   1              		.syntax unified
   2              		.cpu cortex-m3
   3              		.fpu softvfp
   4              		.eabi_attribute 20, 1
   5              		.eabi_attribute 21, 1
   6              		.eabi_attribute 23, 3
   7              		.eabi_attribute 24, 1
   8              		.eabi_attribute 25, 1
   9              		.eabi_attribute 26, 1
  10              		.eabi_attribute 30, 6
  11              		.eabi_attribute 34, 1
  12              		.eabi_attribute 18, 4
  13              		.thumb
  14              		.file	"sixtop.c"
  15              		.text
  16              	.Ltext0:
  17              		.cfi_sections	.debug_frame
  18              		.section	.rodata
  19              		.align	2
  22              	rreg_uriquery:
  23 0000 683D7563 		.ascii	"h=ucb\000"
  23      6200
  24 0006 0000     		.align	2
  27              	infoBoardname:
  28 0008 43433235 		.ascii	"CC2538\000"
  28      333800
  29 000f 00       		.align	2
  32              	infouCName:
  33 0010 43433235 		.ascii	"CC2538\000"
  33      333800
  34 0017 00       		.align	2
  37              	infoRadioName:
  38 0018 43433235 		.ascii	"CC2538 SoC\000"
  38      33382053 
  38      6F4300
  39 0023 00       		.align	2
  42              	infoStackName:
  43 0024 4F70656E 		.ascii	"OpenWSN \000"
  43      57534E20 
  43      00
  44 002d 000000   		.align	2
  47              	all_routers_multicast:
  48 0030 FF       		.byte	-1
  49 0031 02       		.byte	2
  50 0032 00       		.byte	0
  51 0033 00       		.byte	0
  52 0034 00       		.byte	0
  53 0035 00       		.byte	0
  54 0036 00       		.byte	0
  55 0037 00       		.byte	0
  56 0038 00       		.byte	0
  57 0039 00       		.byte	0
  58 003a 00       		.byte	0
  59 003b 00       		.byte	0
  60 003c 00       		.byte	0
  61 003d 00       		.byte	0
  62 003e 00       		.byte	0
  63 003f 02       		.byte	2
  64              		.comm	sixtop_vars,12,4
  65              		.text
  66              		.align	2
  67              		.global	sixtop_init
  68              		.thumb
  69              		.thumb_func
  71              	sixtop_init:
  72              	.LFB0:
  73              		.file 1 "openstack/02b-MAChigh/sixtop.c"
   1:openstack/02b-MAChigh/sixtop.c **** #include "opendefs.h"
   2:openstack/02b-MAChigh/sixtop.c **** #include "sixtop.h"
   3:openstack/02b-MAChigh/sixtop.c **** 
   4:openstack/02b-MAChigh/sixtop.c **** #include "../02a-MAClow/IEEE802154Ecsl.h"
   5:openstack/02b-MAChigh/sixtop.c **** #include "openserial.h"
   6:openstack/02b-MAChigh/sixtop.c **** #include "openqueue.h"
   7:openstack/02b-MAChigh/sixtop.c **** #include "neighbors.h"
   8:openstack/02b-MAChigh/sixtop.c **** #include "iphc.h"
   9:openstack/02b-MAChigh/sixtop.c **** #include "otf.h"
  10:openstack/02b-MAChigh/sixtop.c **** #include "packetfunctions.h"
  11:openstack/02b-MAChigh/sixtop.c **** #include "openrandom.h"
  12:openstack/02b-MAChigh/sixtop.c **** #include "scheduler.h"
  13:openstack/02b-MAChigh/sixtop.c **** #include "opentimers.h"
  14:openstack/02b-MAChigh/sixtop.c **** #include "debugpins.h"
  15:openstack/02b-MAChigh/sixtop.c **** #include "leds.h"
  16:openstack/02b-MAChigh/sixtop.c **** #include "processIE.h"
  17:openstack/02b-MAChigh/sixtop.c **** #include "IEEE802154.h"
  18:openstack/02b-MAChigh/sixtop.c **** #include "idmanager.h"
  19:openstack/02b-MAChigh/sixtop.c **** #include "schedule.h"
  20:openstack/02b-MAChigh/sixtop.c **** 
  21:openstack/02b-MAChigh/sixtop.c **** //=========================== variables =======================================
  22:openstack/02b-MAChigh/sixtop.c **** 
  23:openstack/02b-MAChigh/sixtop.c **** sixtop_vars_t sixtop_vars;
  24:openstack/02b-MAChigh/sixtop.c **** 
  25:openstack/02b-MAChigh/sixtop.c **** //=========================== prototypes ======================================
  26:openstack/02b-MAChigh/sixtop.c **** 
  27:openstack/02b-MAChigh/sixtop.c **** // send internal
  28:openstack/02b-MAChigh/sixtop.c **** owerror_t     sixtop_send_internal(
  29:openstack/02b-MAChigh/sixtop.c ****    OpenQueueEntry_t*    msg,
  30:openstack/02b-MAChigh/sixtop.c ****    uint8_t              iePresent,
  31:openstack/02b-MAChigh/sixtop.c ****    uint8_t              frameVersion
  32:openstack/02b-MAChigh/sixtop.c **** );
  33:openstack/02b-MAChigh/sixtop.c **** 
  34:openstack/02b-MAChigh/sixtop.c **** // timer interrupt callbacks
  35:openstack/02b-MAChigh/sixtop.c **** void          sixtop_maintenance_timer_cb(void);
  36:openstack/02b-MAChigh/sixtop.c **** void          sixtop_timeout_timer_cb(void);
  37:openstack/02b-MAChigh/sixtop.c **** 
  38:openstack/02b-MAChigh/sixtop.c **** //=== EB/KA task
  39:openstack/02b-MAChigh/sixtop.c **** 
  40:openstack/02b-MAChigh/sixtop.c **** void          timer_sixtop_management_fired(void);
  41:openstack/02b-MAChigh/sixtop.c **** void          sixtop_sendEB(void);
  42:openstack/02b-MAChigh/sixtop.c **** void          sixtop_sendKA(void);
  43:openstack/02b-MAChigh/sixtop.c **** 
  44:openstack/02b-MAChigh/sixtop.c **** //=== six2six task
  45:openstack/02b-MAChigh/sixtop.c **** 
  46:openstack/02b-MAChigh/sixtop.c **** void          timer_sixtop_six2six_timeout_fired(void);
  47:openstack/02b-MAChigh/sixtop.c **** void          sixtop_six2six_sendDone(
  48:openstack/02b-MAChigh/sixtop.c ****    OpenQueueEntry_t*    msg,
  49:openstack/02b-MAChigh/sixtop.c ****    owerror_t            error
  50:openstack/02b-MAChigh/sixtop.c **** );
  51:openstack/02b-MAChigh/sixtop.c **** bool          sixtop_processIEs(
  52:openstack/02b-MAChigh/sixtop.c ****    OpenQueueEntry_t*    pkt,
  53:openstack/02b-MAChigh/sixtop.c ****    uint16_t*            lenIE
  54:openstack/02b-MAChigh/sixtop.c **** );
  55:openstack/02b-MAChigh/sixtop.c **** void          sixtop_notifyReceiveCommand(
  56:openstack/02b-MAChigh/sixtop.c ****    opcode_IE_ht*        opcode_ie, 
  57:openstack/02b-MAChigh/sixtop.c ****    bandwidth_IE_ht*     bandwidth_ie, 
  58:openstack/02b-MAChigh/sixtop.c ****    schedule_IE_ht*      schedule_ie,
  59:openstack/02b-MAChigh/sixtop.c ****    open_addr_t*         addr
  60:openstack/02b-MAChigh/sixtop.c **** );
  61:openstack/02b-MAChigh/sixtop.c **** void          sixtop_notifyReceiveLinkRequest(
  62:openstack/02b-MAChigh/sixtop.c ****    bandwidth_IE_ht*     bandwidth_ie,
  63:openstack/02b-MAChigh/sixtop.c ****    schedule_IE_ht*      schedule_ie,
  64:openstack/02b-MAChigh/sixtop.c ****    open_addr_t*         addr
  65:openstack/02b-MAChigh/sixtop.c **** );
  66:openstack/02b-MAChigh/sixtop.c **** void          sixtop_linkResponse(
  67:openstack/02b-MAChigh/sixtop.c ****    bool                 success,
  68:openstack/02b-MAChigh/sixtop.c ****    open_addr_t*         tempNeighbor,
  69:openstack/02b-MAChigh/sixtop.c ****    uint8_t              bandwidth,
  70:openstack/02b-MAChigh/sixtop.c ****    schedule_IE_ht*      schedule_ie
  71:openstack/02b-MAChigh/sixtop.c **** );
  72:openstack/02b-MAChigh/sixtop.c **** void          sixtop_notifyReceiveLinkResponse(
  73:openstack/02b-MAChigh/sixtop.c ****    bandwidth_IE_ht*     bandwidth_ie,
  74:openstack/02b-MAChigh/sixtop.c ****    schedule_IE_ht*      schedule_ie,
  75:openstack/02b-MAChigh/sixtop.c ****    open_addr_t*         addr
  76:openstack/02b-MAChigh/sixtop.c **** );
  77:openstack/02b-MAChigh/sixtop.c **** void          sixtop_notifyReceiveRemoveLinkRequest(
  78:openstack/02b-MAChigh/sixtop.c ****    schedule_IE_ht*      schedule_ie,
  79:openstack/02b-MAChigh/sixtop.c ****    open_addr_t*         addr
  80:openstack/02b-MAChigh/sixtop.c **** );
  81:openstack/02b-MAChigh/sixtop.c **** 
  82:openstack/02b-MAChigh/sixtop.c **** //=== helper functions
  83:openstack/02b-MAChigh/sixtop.c **** 
  84:openstack/02b-MAChigh/sixtop.c **** bool          sixtop_candidateAddCellList(
  85:openstack/02b-MAChigh/sixtop.c ****    uint8_t*             type,
  86:openstack/02b-MAChigh/sixtop.c ****    uint8_t*             frameID,
  87:openstack/02b-MAChigh/sixtop.c ****    uint8_t*             flag,
  88:openstack/02b-MAChigh/sixtop.c ****    cellInfo_ht*         cellList
  89:openstack/02b-MAChigh/sixtop.c **** );
  90:openstack/02b-MAChigh/sixtop.c **** bool          sixtop_candidateRemoveCellList(
  91:openstack/02b-MAChigh/sixtop.c ****    uint8_t*             type,
  92:openstack/02b-MAChigh/sixtop.c ****    uint8_t*             frameID,
  93:openstack/02b-MAChigh/sixtop.c ****    uint8_t*             flag,
  94:openstack/02b-MAChigh/sixtop.c ****    cellInfo_ht*         cellList,
  95:openstack/02b-MAChigh/sixtop.c ****    open_addr_t*         neighbor
  96:openstack/02b-MAChigh/sixtop.c **** );
  97:openstack/02b-MAChigh/sixtop.c **** void          sixtop_addCellsByState(
  98:openstack/02b-MAChigh/sixtop.c ****    uint8_t              slotframeID,
  99:openstack/02b-MAChigh/sixtop.c ****    uint8_t              numOfLinks,
 100:openstack/02b-MAChigh/sixtop.c ****    cellInfo_ht*         cellList,
 101:openstack/02b-MAChigh/sixtop.c ****    open_addr_t*         previousHop,
 102:openstack/02b-MAChigh/sixtop.c ****    uint8_t              state
 103:openstack/02b-MAChigh/sixtop.c **** );
 104:openstack/02b-MAChigh/sixtop.c **** void          sixtop_removeCellsByState(
 105:openstack/02b-MAChigh/sixtop.c ****    uint8_t              slotframeID,
 106:openstack/02b-MAChigh/sixtop.c ****    uint8_t              numOfLink,
 107:openstack/02b-MAChigh/sixtop.c ****    cellInfo_ht*         cellList,
 108:openstack/02b-MAChigh/sixtop.c ****    open_addr_t*         previousHop
 109:openstack/02b-MAChigh/sixtop.c **** );
 110:openstack/02b-MAChigh/sixtop.c **** bool          sixtop_areAvailableCellsToBeScheduled(
 111:openstack/02b-MAChigh/sixtop.c ****    uint8_t              frameID, 
 112:openstack/02b-MAChigh/sixtop.c ****    uint8_t              numOfCells, 
 113:openstack/02b-MAChigh/sixtop.c ****    cellInfo_ht*         cellList, 
 114:openstack/02b-MAChigh/sixtop.c ****    uint8_t              bandwidth
 115:openstack/02b-MAChigh/sixtop.c **** );
 116:openstack/02b-MAChigh/sixtop.c **** 
 117:openstack/02b-MAChigh/sixtop.c **** //=========================== public ==========================================
 118:openstack/02b-MAChigh/sixtop.c **** 
 119:openstack/02b-MAChigh/sixtop.c **** void sixtop_init() {
  74              		.loc 1 119 0
  75              		.cfi_startproc
  76              		@ args = 0, pretend = 0, frame = 0
  77              		@ frame_needed = 1, uses_anonymous_args = 0
  78 0000 80B5     		push	{r7, lr}
  79              	.LCFI0:
  80              		.cfi_def_cfa_offset 8
  81              		.cfi_offset 7, -8
  82              		.cfi_offset 14, -4
  83 0002 00AF     		add	r7, sp, #0
  84              	.LCFI1:
  85              		.cfi_def_cfa_register 7
 120:openstack/02b-MAChigh/sixtop.c ****    
 121:openstack/02b-MAChigh/sixtop.c ****    sixtop_vars.periodMaintenance  = 872 +(openrandom_get16b()&0xff);
  86              		.loc 1 121 0
  87 0004 FFF7FEFF 		bl	openrandom_get16b
  88 0008 0346     		mov	r3, r0
  89 000a DBB2     		uxtb	r3, r3
  90 000c 9BB2     		uxth	r3, r3
  91 000e 03F55A73 		add	r3, r3, #872
  92 0012 9AB2     		uxth	r2, r3
  93 0014 40F20003 		movw	r3, #:lower16:sixtop_vars
  94 0018 C0F20003 		movt	r3, #:upper16:sixtop_vars
  95 001c 1A80     		strh	r2, [r3, #0]	@ movhi
 122:openstack/02b-MAChigh/sixtop.c ****    sixtop_vars.busySendingKA      = FALSE;
  96              		.loc 1 122 0
  97 001e 40F20003 		movw	r3, #:lower16:sixtop_vars
  98 0022 C0F20003 		movt	r3, #:upper16:sixtop_vars
  99 0026 4FF00002 		mov	r2, #0
 100 002a 9A70     		strb	r2, [r3, #2]
 123:openstack/02b-MAChigh/sixtop.c ****    sixtop_vars.busySendingEB      = FALSE;
 101              		.loc 1 123 0
 102 002c 40F20003 		movw	r3, #:lower16:sixtop_vars
 103 0030 C0F20003 		movt	r3, #:upper16:sixtop_vars
 104 0034 4FF00002 		mov	r2, #0
 105 0038 DA70     		strb	r2, [r3, #3]
 124:openstack/02b-MAChigh/sixtop.c ****    sixtop_vars.dsn                = 0;
 106              		.loc 1 124 0
 107 003a 40F20003 		movw	r3, #:lower16:sixtop_vars
 108 003e C0F20003 		movt	r3, #:upper16:sixtop_vars
 109 0042 4FF00002 		mov	r2, #0
 110 0046 1A71     		strb	r2, [r3, #4]
 125:openstack/02b-MAChigh/sixtop.c ****    sixtop_vars.mgtTaskCounter     = 0;
 111              		.loc 1 125 0
 112 0048 40F20003 		movw	r3, #:lower16:sixtop_vars
 113 004c C0F20003 		movt	r3, #:upper16:sixtop_vars
 114 0050 4FF00002 		mov	r2, #0
 115 0054 5A71     		strb	r2, [r3, #5]
 126:openstack/02b-MAChigh/sixtop.c ****    sixtop_vars.kaPeriod           = MAXKAPERIOD;
 116              		.loc 1 126 0
 117 0056 40F20003 		movw	r3, #:lower16:sixtop_vars
 118 005a C0F20003 		movt	r3, #:upper16:sixtop_vars
 119 005e 4FF4FA62 		mov	r2, #2000
 120 0062 1A81     		strh	r2, [r3, #8]	@ movhi
 127:openstack/02b-MAChigh/sixtop.c ****    
 128:openstack/02b-MAChigh/sixtop.c ****    sixtop_vars.maintenanceTimerId = opentimers_start(
 129:openstack/02b-MAChigh/sixtop.c ****       sixtop_vars.periodMaintenance,
 121              		.loc 1 129 0
 122 0064 40F20003 		movw	r3, #:lower16:sixtop_vars
 123 0068 C0F20003 		movt	r3, #:upper16:sixtop_vars
 124 006c 1B88     		ldrh	r3, [r3, #0]
 128:openstack/02b-MAChigh/sixtop.c ****    sixtop_vars.maintenanceTimerId = opentimers_start(
 125              		.loc 1 128 0
 126 006e 1846     		mov	r0, r3
 127 0070 4FF00001 		mov	r1, #0
 128 0074 4FF00002 		mov	r2, #0
 129 0078 40F20003 		movw	r3, #:lower16:sixtop_maintenance_timer_cb
 130 007c C0F20003 		movt	r3, #:upper16:sixtop_maintenance_timer_cb
 131 0080 FFF7FEFF 		bl	opentimers_start
 132 0084 0346     		mov	r3, r0
 133 0086 1A46     		mov	r2, r3
 134 0088 40F20003 		movw	r3, #:lower16:sixtop_vars
 135 008c C0F20003 		movt	r3, #:upper16:sixtop_vars
 136 0090 9A71     		strb	r2, [r3, #6]
 130:openstack/02b-MAChigh/sixtop.c ****       TIMER_PERIODIC,
 131:openstack/02b-MAChigh/sixtop.c ****       TIME_MS,
 132:openstack/02b-MAChigh/sixtop.c ****       sixtop_maintenance_timer_cb
 133:openstack/02b-MAChigh/sixtop.c ****    );
 134:openstack/02b-MAChigh/sixtop.c ****    
 135:openstack/02b-MAChigh/sixtop.c ****    sixtop_vars.timeoutTimerId     = opentimers_start(
 137              		.loc 1 135 0
 138 0092 4FF4FA60 		mov	r0, #2000
 139 0096 4FF00101 		mov	r1, #1
 140 009a 4FF00002 		mov	r2, #0
 141 009e 40F20003 		movw	r3, #:lower16:sixtop_timeout_timer_cb
 142 00a2 C0F20003 		movt	r3, #:upper16:sixtop_timeout_timer_cb
 143 00a6 FFF7FEFF 		bl	opentimers_start
 144 00aa 0346     		mov	r3, r0
 145 00ac 1A46     		mov	r2, r3
 146 00ae 40F20003 		movw	r3, #:lower16:sixtop_vars
 147 00b2 C0F20003 		movt	r3, #:upper16:sixtop_vars
 148 00b6 DA71     		strb	r2, [r3, #7]
 136:openstack/02b-MAChigh/sixtop.c ****       SIX2SIX_TIMEOUT_MS,
 137:openstack/02b-MAChigh/sixtop.c ****       TIMER_ONESHOT,
 138:openstack/02b-MAChigh/sixtop.c ****       TIME_MS,
 139:openstack/02b-MAChigh/sixtop.c ****       sixtop_timeout_timer_cb
 140:openstack/02b-MAChigh/sixtop.c ****    );
 141:openstack/02b-MAChigh/sixtop.c **** }
 149              		.loc 1 141 0
 150 00b8 80BD     		pop	{r7, pc}
 151              		.cfi_endproc
 152              	.LFE0:
 154 00ba 00BF     		.align	2
 155              		.global	sixtop_setKaPeriod
 156              		.thumb
 157              		.thumb_func
 159              	sixtop_setKaPeriod:
 160              	.LFB1:
 142:openstack/02b-MAChigh/sixtop.c **** 
 143:openstack/02b-MAChigh/sixtop.c **** void sixtop_setKaPeriod(uint16_t kaPeriod) {
 161              		.loc 1 143 0
 162              		.cfi_startproc
 163              		@ args = 0, pretend = 0, frame = 8
 164              		@ frame_needed = 1, uses_anonymous_args = 0
 165              		@ link register save eliminated.
 166 00bc 80B4     		push	{r7}
 167              	.LCFI2:
 168              		.cfi_def_cfa_offset 4
 169              		.cfi_offset 7, -4
 170 00be 83B0     		sub	sp, sp, #12
 171              	.LCFI3:
 172              		.cfi_def_cfa_offset 16
 173 00c0 00AF     		add	r7, sp, #0
 174              	.LCFI4:
 175              		.cfi_def_cfa_register 7
 176 00c2 0346     		mov	r3, r0
 177 00c4 FB80     		strh	r3, [r7, #6]	@ movhi
 144:openstack/02b-MAChigh/sixtop.c ****    if(kaPeriod > MAXKAPERIOD) {
 178              		.loc 1 144 0
 179 00c6 FB88     		ldrh	r3, [r7, #6]
 180 00c8 B3F5FA6F 		cmp	r3, #2000
 181 00cc 07D9     		bls	.L3
 145:openstack/02b-MAChigh/sixtop.c ****       sixtop_vars.kaPeriod = MAXKAPERIOD;
 182              		.loc 1 145 0
 183 00ce 40F20003 		movw	r3, #:lower16:sixtop_vars
 184 00d2 C0F20003 		movt	r3, #:upper16:sixtop_vars
 185 00d6 4FF4FA62 		mov	r2, #2000
 186 00da 1A81     		strh	r2, [r3, #8]	@ movhi
 187 00dc 05E0     		b	.L2
 188              	.L3:
 146:openstack/02b-MAChigh/sixtop.c ****    } else {
 147:openstack/02b-MAChigh/sixtop.c ****       sixtop_vars.kaPeriod = kaPeriod;
 189              		.loc 1 147 0
 190 00de 40F20003 		movw	r3, #:lower16:sixtop_vars
 191 00e2 C0F20003 		movt	r3, #:upper16:sixtop_vars
 192 00e6 FA88     		ldrh	r2, [r7, #6]	@ movhi
 193 00e8 1A81     		strh	r2, [r3, #8]	@ movhi
 194              	.L2:
 148:openstack/02b-MAChigh/sixtop.c ****    } 
 149:openstack/02b-MAChigh/sixtop.c **** }
 195              		.loc 1 149 0
 196 00ea 07F10C07 		add	r7, r7, #12
 197 00ee BD46     		mov	sp, r7
 198 00f0 80BC     		pop	{r7}
 199 00f2 7047     		bx	lr
 200              		.cfi_endproc
 201              	.LFE1:
 203              		.align	2
 204              		.global	sixtop_addCells
 205              		.thumb
 206              		.thumb_func
 208              	sixtop_addCells:
 209              	.LFB2:
 150:openstack/02b-MAChigh/sixtop.c **** 
 151:openstack/02b-MAChigh/sixtop.c **** //======= scheduling
 152:openstack/02b-MAChigh/sixtop.c **** 
 153:openstack/02b-MAChigh/sixtop.c **** void sixtop_addCells(open_addr_t* neighbor, uint16_t numCells){
 210              		.loc 1 153 0
 211              		.cfi_startproc
 212              		@ args = 0, pretend = 0, frame = 40
 213              		@ frame_needed = 1, uses_anonymous_args = 0
 214 00f4 80B5     		push	{r7, lr}
 215              	.LCFI5:
 216              		.cfi_def_cfa_offset 8
 217              		.cfi_offset 7, -8
 218              		.cfi_offset 14, -4
 219 00f6 8CB0     		sub	sp, sp, #48
 220              	.LCFI6:
 221              		.cfi_def_cfa_offset 56
 222 00f8 02AF     		add	r7, sp, #8
 223              	.LCFI7:
 224              		.cfi_def_cfa 7, 48
 225 00fa 7860     		str	r0, [r7, #4]
 226 00fc 0B46     		mov	r3, r1
 227 00fe 7B80     		strh	r3, [r7, #2]	@ movhi
 154:openstack/02b-MAChigh/sixtop.c ****    OpenQueueEntry_t* pkt;
 155:openstack/02b-MAChigh/sixtop.c ****    uint8_t           len;
 156:openstack/02b-MAChigh/sixtop.c ****    uint8_t           type;
 157:openstack/02b-MAChigh/sixtop.c ****    uint8_t           frameID;
 158:openstack/02b-MAChigh/sixtop.c ****    uint8_t           flag;
 159:openstack/02b-MAChigh/sixtop.c ****    bool              outcome;
 160:openstack/02b-MAChigh/sixtop.c ****    cellInfo_ht       cellList[SCHEDULEIEMAXNUMCELLS];
 161:openstack/02b-MAChigh/sixtop.c ****    
 162:openstack/02b-MAChigh/sixtop.c ****    frameID    = SCHEDULE_MINIMAL_6TISCH_DEFAULT_SLOTFRAME_HANDLE;
 228              		.loc 1 162 0
 229 0100 4FF00103 		mov	r3, #1
 230 0104 7B77     		strb	r3, [r7, #29]
 163:openstack/02b-MAChigh/sixtop.c ****    
 164:openstack/02b-MAChigh/sixtop.c ****    memset(cellList,0,sizeof(cellList));
 231              		.loc 1 164 0
 232 0106 07F10C03 		add	r3, r7, #12
 233 010a 1846     		mov	r0, r3
 234 010c 4FF00001 		mov	r1, #0
 235 0110 4FF00F02 		mov	r2, #15
 236 0114 FFF7FEFF 		bl	memset
 165:openstack/02b-MAChigh/sixtop.c ****    
 166:openstack/02b-MAChigh/sixtop.c ****    // filter parameters
 167:openstack/02b-MAChigh/sixtop.c ****    if(sixtop_vars.six2six_state!=SIX_IDLE){
 237              		.loc 1 167 0
 238 0118 40F20003 		movw	r3, #:lower16:sixtop_vars
 239 011c C0F20003 		movt	r3, #:upper16:sixtop_vars
 240 0120 9B7A     		ldrb	r3, [r3, #10]	@ zero_extendqisi2
 241 0122 002B     		cmp	r3, #0
 242 0124 40F09380 		bne	.L5
 168:openstack/02b-MAChigh/sixtop.c ****       return;
 169:openstack/02b-MAChigh/sixtop.c ****    }
 170:openstack/02b-MAChigh/sixtop.c ****    if (neighbor==NULL){
 243              		.loc 1 170 0
 244 0128 7B68     		ldr	r3, [r7, #4]
 245 012a 002B     		cmp	r3, #0
 246 012c 00F08F80 		beq	.L5
 171:openstack/02b-MAChigh/sixtop.c ****       return;
 172:openstack/02b-MAChigh/sixtop.c ****    }
 173:openstack/02b-MAChigh/sixtop.c ****    
 174:openstack/02b-MAChigh/sixtop.c ****    // generate candidate cell list
 175:openstack/02b-MAChigh/sixtop.c ****    outcome = sixtop_candidateAddCellList(
 247              		.loc 1 175 0
 248 0130 07F11E00 		add	r0, r7, #30
 249 0134 07F11D01 		add	r1, r7, #29
 250 0138 07F11C02 		add	r2, r7, #28
 176:openstack/02b-MAChigh/sixtop.c ****       &type,
 177:openstack/02b-MAChigh/sixtop.c ****       &frameID,
 178:openstack/02b-MAChigh/sixtop.c ****       &flag,
 179:openstack/02b-MAChigh/sixtop.c ****       cellList
 251              		.loc 1 179 0
 252 013c 07F10C03 		add	r3, r7, #12
 175:openstack/02b-MAChigh/sixtop.c ****    outcome = sixtop_candidateAddCellList(
 253              		.loc 1 175 0
 254 0140 FFF7FEFF 		bl	sixtop_candidateAddCellList
 255 0144 0346     		mov	r3, r0
 256 0146 87F82730 		strb	r3, [r7, #39]
 180:openstack/02b-MAChigh/sixtop.c ****    );
 181:openstack/02b-MAChigh/sixtop.c ****    if (outcome == FALSE) {
 257              		.loc 1 181 0
 258 014a 97F82730 		ldrb	r3, [r7, #39]
 259 014e 83F00103 		eor	r3, r3, #1
 260 0152 DBB2     		uxtb	r3, r3
 261 0154 002B     		cmp	r3, #0
 262 0156 7AD1     		bne	.L5
 182:openstack/02b-MAChigh/sixtop.c ****      return;
 183:openstack/02b-MAChigh/sixtop.c ****    }
 184:openstack/02b-MAChigh/sixtop.c ****    
 185:openstack/02b-MAChigh/sixtop.c ****    // get a free packet buffer
 186:openstack/02b-MAChigh/sixtop.c ****    pkt = openqueue_getFreePacketBuffer(COMPONENT_SIXTOP_RES);
 263              		.loc 1 186 0
 264 0158 4FF00F00 		mov	r0, #15
 265 015c FFF7FEFF 		bl	openqueue_getFreePacketBuffer
 266 0160 3862     		str	r0, [r7, #32]
 187:openstack/02b-MAChigh/sixtop.c ****    if (pkt==NULL) {
 267              		.loc 1 187 0
 268 0162 3B6A     		ldr	r3, [r7, #32]
 269 0164 002B     		cmp	r3, #0
 270 0166 0AD1     		bne	.L7
 188:openstack/02b-MAChigh/sixtop.c ****       openserial_printError(
 271              		.loc 1 188 0
 272 0168 4FF00F00 		mov	r0, #15
 273 016c 4FF02C01 		mov	r1, #44
 274 0170 4FF00002 		mov	r2, #0
 275 0174 4FF00003 		mov	r3, #0
 276 0178 FFF7FEFF 		bl	openserial_printError
 277 017c 67E0     		b	.L5
 278              	.L7:
 189:openstack/02b-MAChigh/sixtop.c ****          COMPONENT_SIXTOP_RES,
 190:openstack/02b-MAChigh/sixtop.c ****          ERR_NO_FREE_PACKET_BUFFER,
 191:openstack/02b-MAChigh/sixtop.c ****          (errorparameter_t)0,
 192:openstack/02b-MAChigh/sixtop.c ****          (errorparameter_t)0
 193:openstack/02b-MAChigh/sixtop.c ****       );
 194:openstack/02b-MAChigh/sixtop.c ****       return;
 195:openstack/02b-MAChigh/sixtop.c ****    }
 196:openstack/02b-MAChigh/sixtop.c ****    
 197:openstack/02b-MAChigh/sixtop.c ****    // update state
 198:openstack/02b-MAChigh/sixtop.c ****    sixtop_vars.six2six_state  = SIX_SENDING_ADDREQUEST;
 279              		.loc 1 198 0
 280 017e 40F20003 		movw	r3, #:lower16:sixtop_vars
 281 0182 C0F20003 		movt	r3, #:upper16:sixtop_vars
 282 0186 4FF00102 		mov	r2, #1
 283 018a 9A72     		strb	r2, [r3, #10]
 199:openstack/02b-MAChigh/sixtop.c ****    
 200:openstack/02b-MAChigh/sixtop.c ****    // take ownership
 201:openstack/02b-MAChigh/sixtop.c ****    pkt->creator = COMPONENT_SIXTOP_RES;
 284              		.loc 1 201 0
 285 018c 3B6A     		ldr	r3, [r7, #32]
 286 018e 4FF00F02 		mov	r2, #15
 287 0192 1A70     		strb	r2, [r3, #0]
 202:openstack/02b-MAChigh/sixtop.c ****    pkt->owner   = COMPONENT_SIXTOP_RES;
 288              		.loc 1 202 0
 289 0194 3B6A     		ldr	r3, [r7, #32]
 290 0196 4FF00F02 		mov	r2, #15
 291 019a 5A70     		strb	r2, [r3, #1]
 203:openstack/02b-MAChigh/sixtop.c ****    
 204:openstack/02b-MAChigh/sixtop.c ****    memcpy(
 205:openstack/02b-MAChigh/sixtop.c ****       &(pkt->l2_nextORpreviousHop),
 292              		.loc 1 205 0
 293 019c 3B6A     		ldr	r3, [r7, #32]
 294 019e 03F13803 		add	r3, r3, #56
 204:openstack/02b-MAChigh/sixtop.c ****    memcpy(
 295              		.loc 1 204 0
 296 01a2 1846     		mov	r0, r3
 297 01a4 7968     		ldr	r1, [r7, #4]
 298 01a6 4FF01102 		mov	r2, #17
 299 01aa FFF7FEFF 		bl	memcpy
 206:openstack/02b-MAChigh/sixtop.c ****       neighbor,
 207:openstack/02b-MAChigh/sixtop.c ****       sizeof(open_addr_t)
 208:openstack/02b-MAChigh/sixtop.c ****    );
 209:openstack/02b-MAChigh/sixtop.c ****    
 210:openstack/02b-MAChigh/sixtop.c ****    // create packet
 211:openstack/02b-MAChigh/sixtop.c ****    len  = 0;
 300              		.loc 1 211 0
 301 01ae 4FF00003 		mov	r3, #0
 302 01b2 FB77     		strb	r3, [r7, #31]
 212:openstack/02b-MAChigh/sixtop.c ****    len += processIE_prependSheduleIE(pkt,type,frameID,flag,cellList);
 303              		.loc 1 212 0
 304 01b4 B97F     		ldrb	r1, [r7, #30]	@ zero_extendqisi2
 305 01b6 7A7F     		ldrb	r2, [r7, #29]	@ zero_extendqisi2
 306 01b8 3B7F     		ldrb	r3, [r7, #28]	@ zero_extendqisi2
 307 01ba 07F10C00 		add	r0, r7, #12
 308 01be 0090     		str	r0, [sp, #0]
 309 01c0 386A     		ldr	r0, [r7, #32]
 310 01c2 FFF7FEFF 		bl	processIE_prependSheduleIE
 311 01c6 0346     		mov	r3, r0
 312 01c8 1A46     		mov	r2, r3
 313 01ca FB7F     		ldrb	r3, [r7, #31]
 314 01cc D318     		adds	r3, r2, r3
 315 01ce FB77     		strb	r3, [r7, #31]
 213:openstack/02b-MAChigh/sixtop.c ****    len += processIE_prependBandwidthIE(pkt,numCells,frameID);
 316              		.loc 1 213 0
 317 01d0 7B88     		ldrh	r3, [r7, #2]	@ movhi
 318 01d2 DAB2     		uxtb	r2, r3
 319 01d4 7B7F     		ldrb	r3, [r7, #29]	@ zero_extendqisi2
 320 01d6 386A     		ldr	r0, [r7, #32]
 321 01d8 1146     		mov	r1, r2
 322 01da 1A46     		mov	r2, r3
 323 01dc FFF7FEFF 		bl	processIE_prependBandwidthIE
 324 01e0 0346     		mov	r3, r0
 325 01e2 1A46     		mov	r2, r3
 326 01e4 FB7F     		ldrb	r3, [r7, #31]
 327 01e6 D318     		adds	r3, r2, r3
 328 01e8 FB77     		strb	r3, [r7, #31]
 214:openstack/02b-MAChigh/sixtop.c ****    len += processIE_prependOpcodeIE(pkt,SIXTOP_SOFT_CELL_REQ);
 329              		.loc 1 214 0
 330 01ea 386A     		ldr	r0, [r7, #32]
 331 01ec 4FF00001 		mov	r1, #0
 332 01f0 FFF7FEFF 		bl	processIE_prependOpcodeIE
 333 01f4 0346     		mov	r3, r0
 334 01f6 1A46     		mov	r2, r3
 335 01f8 FB7F     		ldrb	r3, [r7, #31]
 336 01fa D318     		adds	r3, r2, r3
 337 01fc FB77     		strb	r3, [r7, #31]
 215:openstack/02b-MAChigh/sixtop.c ****    processIE_prependMLMEIE(pkt,len);
 338              		.loc 1 215 0
 339 01fe FB7F     		ldrb	r3, [r7, #31]	@ zero_extendqisi2
 340 0200 386A     		ldr	r0, [r7, #32]
 341 0202 1946     		mov	r1, r3
 342 0204 FFF7FEFF 		bl	processIE_prependMLMEIE
 216:openstack/02b-MAChigh/sixtop.c ****    
 217:openstack/02b-MAChigh/sixtop.c ****    // indicate IEs present
 218:openstack/02b-MAChigh/sixtop.c ****    pkt->l2_IEListPresent = IEEE154_IELIST_YES;
 343              		.loc 1 218 0
 344 0208 3B6A     		ldr	r3, [r7, #32]
 345 020a 4FF00102 		mov	r2, #1
 346 020e 83F86520 		strb	r2, [r3, #101]
 219:openstack/02b-MAChigh/sixtop.c ****    
 220:openstack/02b-MAChigh/sixtop.c ****    // send packet
 221:openstack/02b-MAChigh/sixtop.c ****    sixtop_send(pkt);
 347              		.loc 1 221 0
 348 0212 386A     		ldr	r0, [r7, #32]
 349 0214 FFF7FEFF 		bl	sixtop_send
 222:openstack/02b-MAChigh/sixtop.c ****    
 223:openstack/02b-MAChigh/sixtop.c ****    // update state
 224:openstack/02b-MAChigh/sixtop.c ****    sixtop_vars.six2six_state = SIX_WAIT_ADDREQUEST_SENDDONE;
 350              		.loc 1 224 0
 351 0218 40F20003 		movw	r3, #:lower16:sixtop_vars
 352 021c C0F20003 		movt	r3, #:upper16:sixtop_vars
 353 0220 4FF00202 		mov	r2, #2
 354 0224 9A72     		strb	r2, [r3, #10]
 225:openstack/02b-MAChigh/sixtop.c ****    
 226:openstack/02b-MAChigh/sixtop.c ****    // arm timeout
 227:openstack/02b-MAChigh/sixtop.c ****    opentimers_setPeriod(
 355              		.loc 1 227 0
 356 0226 40F20003 		movw	r3, #:lower16:sixtop_vars
 357 022a C0F20003 		movt	r3, #:upper16:sixtop_vars
 358 022e DB79     		ldrb	r3, [r3, #7]	@ zero_extendqisi2
 359 0230 1846     		mov	r0, r3
 360 0232 4FF00001 		mov	r1, #0
 361 0236 4FF4FA62 		mov	r2, #2000
 362 023a FFF7FEFF 		bl	opentimers_setPeriod
 228:openstack/02b-MAChigh/sixtop.c ****       sixtop_vars.timeoutTimerId,
 229:openstack/02b-MAChigh/sixtop.c ****       TIME_MS,
 230:openstack/02b-MAChigh/sixtop.c ****       SIX2SIX_TIMEOUT_MS
 231:openstack/02b-MAChigh/sixtop.c ****    );
 232:openstack/02b-MAChigh/sixtop.c ****    opentimers_restart(sixtop_vars.timeoutTimerId);
 363              		.loc 1 232 0
 364 023e 40F20003 		movw	r3, #:lower16:sixtop_vars
 365 0242 C0F20003 		movt	r3, #:upper16:sixtop_vars
 366 0246 DB79     		ldrb	r3, [r3, #7]	@ zero_extendqisi2
 367 0248 1846     		mov	r0, r3
 368 024a FFF7FEFF 		bl	opentimers_restart
 369              	.L5:
 233:openstack/02b-MAChigh/sixtop.c **** }
 370              		.loc 1 233 0
 371 024e 07F12807 		add	r7, r7, #40
 372 0252 BD46     		mov	sp, r7
 373 0254 80BD     		pop	{r7, pc}
 374              		.cfi_endproc
 375              	.LFE2:
 377 0256 00BF     		.align	2
 378              		.global	sixtop_removeCell
 379              		.thumb
 380              		.thumb_func
 382              	sixtop_removeCell:
 383              	.LFB3:
 234:openstack/02b-MAChigh/sixtop.c **** 
 235:openstack/02b-MAChigh/sixtop.c **** void sixtop_removeCell(open_addr_t* neighbor){
 384              		.loc 1 235 0
 385              		.cfi_startproc
 386              		@ args = 0, pretend = 0, frame = 40
 387              		@ frame_needed = 1, uses_anonymous_args = 0
 388 0258 90B5     		push	{r4, r7, lr}
 389              	.LCFI8:
 390              		.cfi_def_cfa_offset 12
 391              		.cfi_offset 4, -12
 392              		.cfi_offset 7, -8
 393              		.cfi_offset 14, -4
 394 025a 8DB0     		sub	sp, sp, #52
 395              	.LCFI9:
 396              		.cfi_def_cfa_offset 64
 397 025c 02AF     		add	r7, sp, #8
 398              	.LCFI10:
 399              		.cfi_def_cfa 7, 56
 400 025e 7860     		str	r0, [r7, #4]
 236:openstack/02b-MAChigh/sixtop.c ****    OpenQueueEntry_t* pkt;
 237:openstack/02b-MAChigh/sixtop.c ****    bool              outcome;
 238:openstack/02b-MAChigh/sixtop.c ****    uint8_t           len;
 239:openstack/02b-MAChigh/sixtop.c ****    uint8_t           type;
 240:openstack/02b-MAChigh/sixtop.c ****    uint8_t           frameID;
 241:openstack/02b-MAChigh/sixtop.c ****    uint8_t           flag;
 242:openstack/02b-MAChigh/sixtop.c ****    cellInfo_ht       cellList[SCHEDULEIEMAXNUMCELLS];
 243:openstack/02b-MAChigh/sixtop.c ****    
 244:openstack/02b-MAChigh/sixtop.c ****    memset(cellList,0,sizeof(cellList));
 401              		.loc 1 244 0
 402 0260 07F10C03 		add	r3, r7, #12
 403 0264 1846     		mov	r0, r3
 404 0266 4FF00001 		mov	r1, #0
 405 026a 4FF00F02 		mov	r2, #15
 406 026e FFF7FEFF 		bl	memset
 245:openstack/02b-MAChigh/sixtop.c ****    
 246:openstack/02b-MAChigh/sixtop.c ****    // filter parameters
 247:openstack/02b-MAChigh/sixtop.c ****    if (sixtop_vars.six2six_state!=SIX_IDLE){
 407              		.loc 1 247 0
 408 0272 40F20003 		movw	r3, #:lower16:sixtop_vars
 409 0276 C0F20003 		movt	r3, #:upper16:sixtop_vars
 410 027a 9B7A     		ldrb	r3, [r3, #10]	@ zero_extendqisi2
 411 027c 002B     		cmp	r3, #0
 412 027e 40F08880 		bne	.L9
 248:openstack/02b-MAChigh/sixtop.c ****       return;
 249:openstack/02b-MAChigh/sixtop.c ****    }
 250:openstack/02b-MAChigh/sixtop.c ****    if (neighbor==NULL){
 413              		.loc 1 250 0
 414 0282 7B68     		ldr	r3, [r7, #4]
 415 0284 002B     		cmp	r3, #0
 416 0286 00F08480 		beq	.L9
 251:openstack/02b-MAChigh/sixtop.c ****       return;
 252:openstack/02b-MAChigh/sixtop.c ****    }
 253:openstack/02b-MAChigh/sixtop.c ****    
 254:openstack/02b-MAChigh/sixtop.c ****    // generate candidate cell list
 255:openstack/02b-MAChigh/sixtop.c ****    outcome = sixtop_candidateRemoveCellList(
 417              		.loc 1 255 0
 418 028a 07F11E00 		add	r0, r7, #30
 419 028e 07F11D01 		add	r1, r7, #29
 420 0292 07F11C02 		add	r2, r7, #28
 256:openstack/02b-MAChigh/sixtop.c ****       &type, 
 257:openstack/02b-MAChigh/sixtop.c ****       &frameID,
 258:openstack/02b-MAChigh/sixtop.c ****       &flag, 
 259:openstack/02b-MAChigh/sixtop.c ****       cellList, 
 421              		.loc 1 259 0
 422 0296 07F10C03 		add	r3, r7, #12
 255:openstack/02b-MAChigh/sixtop.c ****    outcome = sixtop_candidateRemoveCellList(
 423              		.loc 1 255 0
 424 029a 7C68     		ldr	r4, [r7, #4]
 425 029c 0094     		str	r4, [sp, #0]
 426 029e FFF7FEFF 		bl	sixtop_candidateRemoveCellList
 427 02a2 0346     		mov	r3, r0
 428 02a4 87F82730 		strb	r3, [r7, #39]
 260:openstack/02b-MAChigh/sixtop.c ****       neighbor
 261:openstack/02b-MAChigh/sixtop.c ****    );
 262:openstack/02b-MAChigh/sixtop.c ****    if(outcome == FALSE){
 429              		.loc 1 262 0
 430 02a8 97F82730 		ldrb	r3, [r7, #39]
 431 02ac 83F00103 		eor	r3, r3, #1
 432 02b0 DBB2     		uxtb	r3, r3
 433 02b2 002B     		cmp	r3, #0
 434 02b4 6DD1     		bne	.L9
 263:openstack/02b-MAChigh/sixtop.c ****       return;
 264:openstack/02b-MAChigh/sixtop.c ****    }
 265:openstack/02b-MAChigh/sixtop.c ****    
 266:openstack/02b-MAChigh/sixtop.c ****    // get a free packet buffer
 267:openstack/02b-MAChigh/sixtop.c ****    pkt = openqueue_getFreePacketBuffer(COMPONENT_SIXTOP_RES);
 435              		.loc 1 267 0
 436 02b6 4FF00F00 		mov	r0, #15
 437 02ba FFF7FEFF 		bl	openqueue_getFreePacketBuffer
 438 02be 3862     		str	r0, [r7, #32]
 268:openstack/02b-MAChigh/sixtop.c ****    if(pkt==NULL) {
 439              		.loc 1 268 0
 440 02c0 3B6A     		ldr	r3, [r7, #32]
 441 02c2 002B     		cmp	r3, #0
 442 02c4 0AD1     		bne	.L11
 269:openstack/02b-MAChigh/sixtop.c ****       openserial_printError(
 443              		.loc 1 269 0
 444 02c6 4FF00F00 		mov	r0, #15
 445 02ca 4FF02C01 		mov	r1, #44
 446 02ce 4FF00002 		mov	r2, #0
 447 02d2 4FF00003 		mov	r3, #0
 448 02d6 FFF7FEFF 		bl	openserial_printError
 449 02da 5AE0     		b	.L9
 450              	.L11:
 270:openstack/02b-MAChigh/sixtop.c ****          COMPONENT_SIXTOP_RES,
 271:openstack/02b-MAChigh/sixtop.c ****          ERR_NO_FREE_PACKET_BUFFER,
 272:openstack/02b-MAChigh/sixtop.c ****          (errorparameter_t)0,
 273:openstack/02b-MAChigh/sixtop.c ****          (errorparameter_t)0
 274:openstack/02b-MAChigh/sixtop.c ****       );
 275:openstack/02b-MAChigh/sixtop.c ****       return;
 276:openstack/02b-MAChigh/sixtop.c ****    }
 277:openstack/02b-MAChigh/sixtop.c ****    
 278:openstack/02b-MAChigh/sixtop.c ****    // update state
 279:openstack/02b-MAChigh/sixtop.c ****    sixtop_vars.six2six_state = SIX_SENDING_REMOVEREQUEST;
 451              		.loc 1 279 0
 452 02dc 40F20003 		movw	r3, #:lower16:sixtop_vars
 453 02e0 C0F20003 		movt	r3, #:upper16:sixtop_vars
 454 02e4 4FF00802 		mov	r2, #8
 455 02e8 9A72     		strb	r2, [r3, #10]
 280:openstack/02b-MAChigh/sixtop.c ****    
 281:openstack/02b-MAChigh/sixtop.c ****    // declare ownership over that packet
 282:openstack/02b-MAChigh/sixtop.c ****    pkt->creator = COMPONENT_SIXTOP_RES;
 456              		.loc 1 282 0
 457 02ea 3B6A     		ldr	r3, [r7, #32]
 458 02ec 4FF00F02 		mov	r2, #15
 459 02f0 1A70     		strb	r2, [r3, #0]
 283:openstack/02b-MAChigh/sixtop.c ****    pkt->owner   = COMPONENT_SIXTOP_RES;
 460              		.loc 1 283 0
 461 02f2 3B6A     		ldr	r3, [r7, #32]
 462 02f4 4FF00F02 		mov	r2, #15
 463 02f8 5A70     		strb	r2, [r3, #1]
 284:openstack/02b-MAChigh/sixtop.c ****       
 285:openstack/02b-MAChigh/sixtop.c ****    memcpy(
 286:openstack/02b-MAChigh/sixtop.c ****       &(pkt->l2_nextORpreviousHop),
 464              		.loc 1 286 0
 465 02fa 3B6A     		ldr	r3, [r7, #32]
 466 02fc 03F13803 		add	r3, r3, #56
 285:openstack/02b-MAChigh/sixtop.c ****    memcpy(
 467              		.loc 1 285 0
 468 0300 1846     		mov	r0, r3
 469 0302 7968     		ldr	r1, [r7, #4]
 470 0304 4FF01102 		mov	r2, #17
 471 0308 FFF7FEFF 		bl	memcpy
 287:openstack/02b-MAChigh/sixtop.c ****       neighbor,
 288:openstack/02b-MAChigh/sixtop.c ****       sizeof(open_addr_t)
 289:openstack/02b-MAChigh/sixtop.c ****    );
 290:openstack/02b-MAChigh/sixtop.c ****  
 291:openstack/02b-MAChigh/sixtop.c ****    
 292:openstack/02b-MAChigh/sixtop.c ****    // create packet
 293:openstack/02b-MAChigh/sixtop.c ****    len  = 0;
 472              		.loc 1 293 0
 473 030c 4FF00003 		mov	r3, #0
 474 0310 FB77     		strb	r3, [r7, #31]
 294:openstack/02b-MAChigh/sixtop.c ****    len += processIE_prependSheduleIE(pkt,type,frameID, flag,cellList);
 475              		.loc 1 294 0
 476 0312 B97F     		ldrb	r1, [r7, #30]	@ zero_extendqisi2
 477 0314 7A7F     		ldrb	r2, [r7, #29]	@ zero_extendqisi2
 478 0316 3B7F     		ldrb	r3, [r7, #28]	@ zero_extendqisi2
 479 0318 07F10C00 		add	r0, r7, #12
 480 031c 0090     		str	r0, [sp, #0]
 481 031e 386A     		ldr	r0, [r7, #32]
 482 0320 FFF7FEFF 		bl	processIE_prependSheduleIE
 483 0324 0346     		mov	r3, r0
 484 0326 1A46     		mov	r2, r3
 485 0328 FB7F     		ldrb	r3, [r7, #31]
 486 032a D318     		adds	r3, r2, r3
 487 032c FB77     		strb	r3, [r7, #31]
 295:openstack/02b-MAChigh/sixtop.c ****    len += processIE_prependOpcodeIE(pkt,SIXTOP_REMOVE_SOFT_CELL_REQUEST);
 488              		.loc 1 295 0
 489 032e 386A     		ldr	r0, [r7, #32]
 490 0330 4FF00201 		mov	r1, #2
 491 0334 FFF7FEFF 		bl	processIE_prependOpcodeIE
 492 0338 0346     		mov	r3, r0
 493 033a 1A46     		mov	r2, r3
 494 033c FB7F     		ldrb	r3, [r7, #31]
 495 033e D318     		adds	r3, r2, r3
 496 0340 FB77     		strb	r3, [r7, #31]
 296:openstack/02b-MAChigh/sixtop.c ****    processIE_prependMLMEIE(pkt,len);
 497              		.loc 1 296 0
 498 0342 FB7F     		ldrb	r3, [r7, #31]	@ zero_extendqisi2
 499 0344 386A     		ldr	r0, [r7, #32]
 500 0346 1946     		mov	r1, r3
 501 0348 FFF7FEFF 		bl	processIE_prependMLMEIE
 297:openstack/02b-MAChigh/sixtop.c ****  
 298:openstack/02b-MAChigh/sixtop.c ****    // indicate IEs present
 299:openstack/02b-MAChigh/sixtop.c ****    pkt->l2_IEListPresent = IEEE154_IELIST_YES;
 502              		.loc 1 299 0
 503 034c 3B6A     		ldr	r3, [r7, #32]
 504 034e 4FF00102 		mov	r2, #1
 505 0352 83F86520 		strb	r2, [r3, #101]
 300:openstack/02b-MAChigh/sixtop.c ****    
 301:openstack/02b-MAChigh/sixtop.c ****    // send packet
 302:openstack/02b-MAChigh/sixtop.c ****    sixtop_send(pkt);
 506              		.loc 1 302 0
 507 0356 386A     		ldr	r0, [r7, #32]
 508 0358 FFF7FEFF 		bl	sixtop_send
 303:openstack/02b-MAChigh/sixtop.c ****    
 304:openstack/02b-MAChigh/sixtop.c ****    // update state
 305:openstack/02b-MAChigh/sixtop.c ****    sixtop_vars.six2six_state = SIX_WAIT_REMOVEREQUEST_SENDDONE;
 509              		.loc 1 305 0
 510 035c 40F20003 		movw	r3, #:lower16:sixtop_vars
 511 0360 C0F20003 		movt	r3, #:upper16:sixtop_vars
 512 0364 4FF00902 		mov	r2, #9
 513 0368 9A72     		strb	r2, [r3, #10]
 306:openstack/02b-MAChigh/sixtop.c ****    
 307:openstack/02b-MAChigh/sixtop.c ****    // arm timeout
 308:openstack/02b-MAChigh/sixtop.c ****    opentimers_setPeriod(
 514              		.loc 1 308 0
 515 036a 40F20003 		movw	r3, #:lower16:sixtop_vars
 516 036e C0F20003 		movt	r3, #:upper16:sixtop_vars
 517 0372 DB79     		ldrb	r3, [r3, #7]	@ zero_extendqisi2
 518 0374 1846     		mov	r0, r3
 519 0376 4FF00001 		mov	r1, #0
 520 037a 4FF4FA62 		mov	r2, #2000
 521 037e FFF7FEFF 		bl	opentimers_setPeriod
 309:openstack/02b-MAChigh/sixtop.c ****       sixtop_vars.timeoutTimerId,
 310:openstack/02b-MAChigh/sixtop.c ****       TIME_MS,
 311:openstack/02b-MAChigh/sixtop.c ****       SIX2SIX_TIMEOUT_MS
 312:openstack/02b-MAChigh/sixtop.c ****    );
 313:openstack/02b-MAChigh/sixtop.c ****    opentimers_restart(sixtop_vars.timeoutTimerId);
 522              		.loc 1 313 0
 523 0382 40F20003 		movw	r3, #:lower16:sixtop_vars
 524 0386 C0F20003 		movt	r3, #:upper16:sixtop_vars
 525 038a DB79     		ldrb	r3, [r3, #7]	@ zero_extendqisi2
 526 038c 1846     		mov	r0, r3
 527 038e FFF7FEFF 		bl	opentimers_restart
 528              	.L9:
 314:openstack/02b-MAChigh/sixtop.c **** }
 529              		.loc 1 314 0
 530 0392 07F12C07 		add	r7, r7, #44
 531 0396 BD46     		mov	sp, r7
 532 0398 90BD     		pop	{r4, r7, pc}
 533              		.cfi_endproc
 534              	.LFE3:
 536 039a 00BF     		.align	2
 537              		.global	sixtop_send
 538              		.thumb
 539              		.thumb_func
 541              	sixtop_send:
 542              	.LFB4:
 315:openstack/02b-MAChigh/sixtop.c **** 
 316:openstack/02b-MAChigh/sixtop.c **** //======= from upper layer
 317:openstack/02b-MAChigh/sixtop.c **** 
 318:openstack/02b-MAChigh/sixtop.c **** owerror_t sixtop_send(OpenQueueEntry_t *msg) {
 543              		.loc 1 318 0
 544              		.cfi_startproc
 545              		@ args = 0, pretend = 0, frame = 8
 546              		@ frame_needed = 1, uses_anonymous_args = 0
 547 039c 80B5     		push	{r7, lr}
 548              	.LCFI11:
 549              		.cfi_def_cfa_offset 8
 550              		.cfi_offset 7, -8
 551              		.cfi_offset 14, -4
 552 039e 82B0     		sub	sp, sp, #8
 553              	.LCFI12:
 554              		.cfi_def_cfa_offset 16
 555 03a0 00AF     		add	r7, sp, #0
 556              	.LCFI13:
 557              		.cfi_def_cfa_register 7
 558 03a2 7860     		str	r0, [r7, #4]
 319:openstack/02b-MAChigh/sixtop.c ****    
 320:openstack/02b-MAChigh/sixtop.c ****    // set metadata
 321:openstack/02b-MAChigh/sixtop.c ****    msg->owner        = COMPONENT_SIXTOP;
 559              		.loc 1 321 0
 560 03a4 7B68     		ldr	r3, [r7, #4]
 561 03a6 4FF00C02 		mov	r2, #12
 562 03aa 5A70     		strb	r2, [r3, #1]
 322:openstack/02b-MAChigh/sixtop.c ****    msg->l2_frameType = IEEE154_TYPE_DATA;
 563              		.loc 1 322 0
 564 03ac 7B68     		ldr	r3, [r7, #4]
 565 03ae 4FF00102 		mov	r2, #1
 566 03b2 83F84920 		strb	r2, [r3, #73]
 323:openstack/02b-MAChigh/sixtop.c ****    
 324:openstack/02b-MAChigh/sixtop.c ****    if (msg->l2_IEListPresent == IEEE154_IELIST_NO) {
 567              		.loc 1 324 0
 568 03b6 7B68     		ldr	r3, [r7, #4]
 569 03b8 93F86530 		ldrb	r3, [r3, #101]	@ zero_extendqisi2
 570 03bc 83F00103 		eor	r3, r3, #1
 571 03c0 DBB2     		uxtb	r3, r3
 572 03c2 002B     		cmp	r3, #0
 573 03c4 08D0     		beq	.L14
 325:openstack/02b-MAChigh/sixtop.c ****       return sixtop_send_internal(
 574              		.loc 1 325 0
 575 03c6 7868     		ldr	r0, [r7, #4]
 576 03c8 4FF00001 		mov	r1, #0
 577 03cc 4FF00102 		mov	r2, #1
 578 03d0 FFF7FEFF 		bl	sixtop_send_internal
 579 03d4 0346     		mov	r3, r0
 580 03d6 07E0     		b	.L15
 581              	.L14:
 326:openstack/02b-MAChigh/sixtop.c ****          msg,
 327:openstack/02b-MAChigh/sixtop.c ****          IEEE154_IELIST_NO,
 328:openstack/02b-MAChigh/sixtop.c ****          IEEE154_FRAMEVERSION_2006
 329:openstack/02b-MAChigh/sixtop.c ****       );
 330:openstack/02b-MAChigh/sixtop.c ****    } else {
 331:openstack/02b-MAChigh/sixtop.c ****       return sixtop_send_internal(
 582              		.loc 1 331 0
 583 03d8 7868     		ldr	r0, [r7, #4]
 584 03da 4FF00101 		mov	r1, #1
 585 03de 4FF00202 		mov	r2, #2
 586 03e2 FFF7FEFF 		bl	sixtop_send_internal
 587 03e6 0346     		mov	r3, r0
 588              	.L15:
 332:openstack/02b-MAChigh/sixtop.c ****          msg,
 333:openstack/02b-MAChigh/sixtop.c ****          IEEE154_IELIST_YES,
 334:openstack/02b-MAChigh/sixtop.c ****          IEEE154_FRAMEVERSION
 335:openstack/02b-MAChigh/sixtop.c ****       );
 336:openstack/02b-MAChigh/sixtop.c ****    }
 337:openstack/02b-MAChigh/sixtop.c **** }
 589              		.loc 1 337 0
 590 03e8 1846     		mov	r0, r3
 591 03ea 07F10807 		add	r7, r7, #8
 592 03ee BD46     		mov	sp, r7
 593 03f0 80BD     		pop	{r7, pc}
 594              		.cfi_endproc
 595              	.LFE4:
 597 03f2 00BF     		.align	2
 598              		.global	task_sixtopNotifSendDone
 599              		.thumb
 600              		.thumb_func
 602              	task_sixtopNotifSendDone:
 603              	.LFB5:
 338:openstack/02b-MAChigh/sixtop.c **** 
 339:openstack/02b-MAChigh/sixtop.c **** //======= from lower layer
 340:openstack/02b-MAChigh/sixtop.c **** 
 341:openstack/02b-MAChigh/sixtop.c **** void task_sixtopNotifSendDone() {
 604              		.loc 1 341 0
 605              		.cfi_startproc
 606              		@ args = 0, pretend = 0, frame = 8
 607              		@ frame_needed = 1, uses_anonymous_args = 0
 608 03f4 80B5     		push	{r7, lr}
 609              	.LCFI14:
 610              		.cfi_def_cfa_offset 8
 611              		.cfi_offset 7, -8
 612              		.cfi_offset 14, -4
 613 03f6 82B0     		sub	sp, sp, #8
 614              	.LCFI15:
 615              		.cfi_def_cfa_offset 16
 616 03f8 00AF     		add	r7, sp, #0
 617              	.LCFI16:
 618              		.cfi_def_cfa_register 7
 342:openstack/02b-MAChigh/sixtop.c ****    OpenQueueEntry_t* msg;
 343:openstack/02b-MAChigh/sixtop.c ****    
 344:openstack/02b-MAChigh/sixtop.c ****    // get recently-sent packet from openqueue
 345:openstack/02b-MAChigh/sixtop.c ****    msg = openqueue_sixtopGetSentPacket();
 619              		.loc 1 345 0
 620 03fa FFF7FEFF 		bl	openqueue_sixtopGetSentPacket
 621 03fe 7860     		str	r0, [r7, #4]
 346:openstack/02b-MAChigh/sixtop.c ****    if (msg==NULL) {
 622              		.loc 1 346 0
 623 0400 7B68     		ldr	r3, [r7, #4]
 624 0402 002B     		cmp	r3, #0
 625 0404 0AD1     		bne	.L17
 347:openstack/02b-MAChigh/sixtop.c ****       openserial_printCritical(
 626              		.loc 1 347 0
 627 0406 4FF00C00 		mov	r0, #12
 628 040a 4FF01501 		mov	r1, #21
 629 040e 4FF00002 		mov	r2, #0
 630 0412 4FF00003 		mov	r3, #0
 631 0416 FFF7FEFF 		bl	openserial_printCritical
 348:openstack/02b-MAChigh/sixtop.c ****          COMPONENT_SIXTOP,
 349:openstack/02b-MAChigh/sixtop.c ****          ERR_NO_SENT_PACKET,
 350:openstack/02b-MAChigh/sixtop.c ****          (errorparameter_t)0,
 351:openstack/02b-MAChigh/sixtop.c ****          (errorparameter_t)0
 352:openstack/02b-MAChigh/sixtop.c ****       );
 353:openstack/02b-MAChigh/sixtop.c ****       return;
 632              		.loc 1 353 0
 633 041a 73E0     		b	.L16
 634              	.L17:
 354:openstack/02b-MAChigh/sixtop.c ****    }
 355:openstack/02b-MAChigh/sixtop.c ****    
 356:openstack/02b-MAChigh/sixtop.c ****    // take ownership
 357:openstack/02b-MAChigh/sixtop.c ****    msg->owner = COMPONENT_SIXTOP;
 635              		.loc 1 357 0
 636 041c 7B68     		ldr	r3, [r7, #4]
 637 041e 4FF00C02 		mov	r2, #12
 638 0422 5A70     		strb	r2, [r3, #1]
 358:openstack/02b-MAChigh/sixtop.c ****    
 359:openstack/02b-MAChigh/sixtop.c ****    // update neighbor statistics
 360:openstack/02b-MAChigh/sixtop.c ****    if (msg->l2_sendDoneError==E_SUCCESS) {
 639              		.loc 1 360 0
 640 0424 7B68     		ldr	r3, [r7, #4]
 641 0426 93F83730 		ldrb	r3, [r3, #55]	@ zero_extendqisi2
 642 042a 002B     		cmp	r3, #0
 643 042c 0FD1     		bne	.L19
 361:openstack/02b-MAChigh/sixtop.c ****       neighbors_indicateTx(
 644              		.loc 1 361 0
 645 042e 7B68     		ldr	r3, [r7, #4]
 646 0430 03F13801 		add	r1, r3, #56
 362:openstack/02b-MAChigh/sixtop.c ****          &(msg->l2_nextORpreviousHop),
 363:openstack/02b-MAChigh/sixtop.c ****          msg->l2_numTxAttempts,
 647              		.loc 1 363 0
 648 0434 7B68     		ldr	r3, [r7, #4]
 361:openstack/02b-MAChigh/sixtop.c ****       neighbors_indicateTx(
 649              		.loc 1 361 0
 650 0436 93F84C20 		ldrb	r2, [r3, #76]	@ zero_extendqisi2
 651 043a 7B68     		ldr	r3, [r7, #4]
 652 043c 03F14D03 		add	r3, r3, #77
 653 0440 0846     		mov	r0, r1
 654 0442 1146     		mov	r1, r2
 655 0444 4FF00102 		mov	r2, #1
 656 0448 FFF7FEFF 		bl	neighbors_indicateTx
 657 044c 0EE0     		b	.L20
 658              	.L19:
 364:openstack/02b-MAChigh/sixtop.c ****          TRUE,
 365:openstack/02b-MAChigh/sixtop.c ****          &msg->l2_asn
 366:openstack/02b-MAChigh/sixtop.c ****       );
 367:openstack/02b-MAChigh/sixtop.c ****    } else {
 368:openstack/02b-MAChigh/sixtop.c ****       neighbors_indicateTx(
 659              		.loc 1 368 0
 660 044e 7B68     		ldr	r3, [r7, #4]
 661 0450 03F13801 		add	r1, r3, #56
 369:openstack/02b-MAChigh/sixtop.c ****          &(msg->l2_nextORpreviousHop),
 370:openstack/02b-MAChigh/sixtop.c ****          msg->l2_numTxAttempts,
 662              		.loc 1 370 0
 663 0454 7B68     		ldr	r3, [r7, #4]
 368:openstack/02b-MAChigh/sixtop.c ****       neighbors_indicateTx(
 664              		.loc 1 368 0
 665 0456 93F84C20 		ldrb	r2, [r3, #76]	@ zero_extendqisi2
 666 045a 7B68     		ldr	r3, [r7, #4]
 667 045c 03F14D03 		add	r3, r3, #77
 668 0460 0846     		mov	r0, r1
 669 0462 1146     		mov	r1, r2
 670 0464 4FF00002 		mov	r2, #0
 671 0468 FFF7FEFF 		bl	neighbors_indicateTx
 672              	.L20:
 371:openstack/02b-MAChigh/sixtop.c ****          FALSE,
 372:openstack/02b-MAChigh/sixtop.c ****          &msg->l2_asn
 373:openstack/02b-MAChigh/sixtop.c ****       );
 374:openstack/02b-MAChigh/sixtop.c ****    }
 375:openstack/02b-MAChigh/sixtop.c ****    
 376:openstack/02b-MAChigh/sixtop.c ****    // send the packet to where it belongs
 377:openstack/02b-MAChigh/sixtop.c ****    switch (msg->creator) {
 673              		.loc 1 377 0
 674 046c 7B68     		ldr	r3, [r7, #4]
 675 046e 1B78     		ldrb	r3, [r3, #0]	@ zero_extendqisi2
 676 0470 0C2B     		cmp	r3, #12
 677 0472 02D0     		beq	.L22
 678 0474 0F2B     		cmp	r3, #15
 679 0476 35D0     		beq	.L23
 680 0478 3CE0     		b	.L26
 681              	.L22:
 378:openstack/02b-MAChigh/sixtop.c ****       
 379:openstack/02b-MAChigh/sixtop.c ****       case COMPONENT_SIXTOP:
 380:openstack/02b-MAChigh/sixtop.c ****          if (msg->l2_frameType==IEEE154_TYPE_BEACON) {
 682              		.loc 1 380 0
 683 047a 7B68     		ldr	r3, [r7, #4]
 684 047c 93F84930 		ldrb	r3, [r3, #73]	@ zero_extendqisi2
 685 0480 002B     		cmp	r3, #0
 686 0482 07D1     		bne	.L24
 381:openstack/02b-MAChigh/sixtop.c ****             // this is a ADV
 382:openstack/02b-MAChigh/sixtop.c ****             
 383:openstack/02b-MAChigh/sixtop.c ****             // not busy sending ADV anymore
 384:openstack/02b-MAChigh/sixtop.c ****             sixtop_vars.busySendingEB = FALSE;
 687              		.loc 1 384 0
 688 0484 40F20003 		movw	r3, #:lower16:sixtop_vars
 689 0488 C0F20003 		movt	r3, #:upper16:sixtop_vars
 690 048c 4FF00002 		mov	r2, #0
 691 0490 DA70     		strb	r2, [r3, #3]
 692 0492 06E0     		b	.L25
 693              	.L24:
 385:openstack/02b-MAChigh/sixtop.c ****          } else {
 386:openstack/02b-MAChigh/sixtop.c ****             // this is a KA
 387:openstack/02b-MAChigh/sixtop.c ****             
 388:openstack/02b-MAChigh/sixtop.c ****             // not busy sending KA anymore
 389:openstack/02b-MAChigh/sixtop.c ****             sixtop_vars.busySendingKA = FALSE;
 694              		.loc 1 389 0
 695 0494 40F20003 		movw	r3, #:lower16:sixtop_vars
 696 0498 C0F20003 		movt	r3, #:upper16:sixtop_vars
 697 049c 4FF00002 		mov	r2, #0
 698 04a0 9A70     		strb	r2, [r3, #2]
 699              	.L25:
 390:openstack/02b-MAChigh/sixtop.c ****          }
 391:openstack/02b-MAChigh/sixtop.c ****          // discard packets
 392:openstack/02b-MAChigh/sixtop.c ****          openqueue_freePacketBuffer(msg);
 700              		.loc 1 392 0
 701 04a2 7868     		ldr	r0, [r7, #4]
 702 04a4 FFF7FEFF 		bl	openqueue_freePacketBuffer
 393:openstack/02b-MAChigh/sixtop.c ****          
 394:openstack/02b-MAChigh/sixtop.c ****          // restart a random timer
 395:openstack/02b-MAChigh/sixtop.c ****          sixtop_vars.periodMaintenance = 872+(openrandom_get16b()&0xff);
 703              		.loc 1 395 0
 704 04a8 FFF7FEFF 		bl	openrandom_get16b
 705 04ac 0346     		mov	r3, r0
 706 04ae DBB2     		uxtb	r3, r3
 707 04b0 9BB2     		uxth	r3, r3
 708 04b2 03F55A73 		add	r3, r3, #872
 709 04b6 9AB2     		uxth	r2, r3
 710 04b8 40F20003 		movw	r3, #:lower16:sixtop_vars
 711 04bc C0F20003 		movt	r3, #:upper16:sixtop_vars
 712 04c0 1A80     		strh	r2, [r3, #0]	@ movhi
 396:openstack/02b-MAChigh/sixtop.c ****          opentimers_setPeriod(
 713              		.loc 1 396 0
 714 04c2 40F20003 		movw	r3, #:lower16:sixtop_vars
 715 04c6 C0F20003 		movt	r3, #:upper16:sixtop_vars
 716 04ca 9A79     		ldrb	r2, [r3, #6]	@ zero_extendqisi2
 397:openstack/02b-MAChigh/sixtop.c ****             sixtop_vars.maintenanceTimerId,
 398:openstack/02b-MAChigh/sixtop.c ****             TIME_MS,
 399:openstack/02b-MAChigh/sixtop.c ****             sixtop_vars.periodMaintenance
 717              		.loc 1 399 0
 718 04cc 40F20003 		movw	r3, #:lower16:sixtop_vars
 719 04d0 C0F20003 		movt	r3, #:upper16:sixtop_vars
 720 04d4 1B88     		ldrh	r3, [r3, #0]
 396:openstack/02b-MAChigh/sixtop.c ****          opentimers_setPeriod(
 721              		.loc 1 396 0
 722 04d6 1046     		mov	r0, r2
 723 04d8 4FF00001 		mov	r1, #0
 724 04dc 1A46     		mov	r2, r3
 725 04de FFF7FEFF 		bl	opentimers_setPeriod
 400:openstack/02b-MAChigh/sixtop.c ****          );
 401:openstack/02b-MAChigh/sixtop.c ****          break;
 726              		.loc 1 401 0
 727 04e2 0FE0     		b	.L16
 728              	.L23:
 402:openstack/02b-MAChigh/sixtop.c ****       
 403:openstack/02b-MAChigh/sixtop.c ****       case COMPONENT_SIXTOP_RES:
 404:openstack/02b-MAChigh/sixtop.c ****          sixtop_six2six_sendDone(msg,msg->l2_sendDoneError);
 729              		.loc 1 404 0
 730 04e4 7B68     		ldr	r3, [r7, #4]
 731 04e6 93F83730 		ldrb	r3, [r3, #55]	@ zero_extendqisi2
 732 04ea 7868     		ldr	r0, [r7, #4]
 733 04ec 1946     		mov	r1, r3
 734 04ee FFF7FEFF 		bl	sixtop_six2six_sendDone
 405:openstack/02b-MAChigh/sixtop.c ****          break;
 735              		.loc 1 405 0
 736 04f2 07E0     		b	.L16
 737              	.L26:
 406:openstack/02b-MAChigh/sixtop.c ****       
 407:openstack/02b-MAChigh/sixtop.c ****       default:
 408:openstack/02b-MAChigh/sixtop.c ****          // send the rest up the stack
 409:openstack/02b-MAChigh/sixtop.c ****          iphc_sendDone(msg,msg->l2_sendDoneError);
 738              		.loc 1 409 0
 739 04f4 7B68     		ldr	r3, [r7, #4]
 740 04f6 93F83730 		ldrb	r3, [r3, #55]	@ zero_extendqisi2
 741 04fa 7868     		ldr	r0, [r7, #4]
 742 04fc 1946     		mov	r1, r3
 743 04fe FFF7FEFF 		bl	iphc_sendDone
 410:openstack/02b-MAChigh/sixtop.c ****          break;
 744              		.loc 1 410 0
 745 0502 00BF     		nop
 746              	.L16:
 411:openstack/02b-MAChigh/sixtop.c ****    }
 412:openstack/02b-MAChigh/sixtop.c **** }
 747              		.loc 1 412 0
 748 0504 07F10807 		add	r7, r7, #8
 749 0508 BD46     		mov	sp, r7
 750 050a 80BD     		pop	{r7, pc}
 751              		.cfi_endproc
 752              	.LFE5:
 754              		.align	2
 755              		.global	task_sixtopNotifReceive
 756              		.thumb
 757              		.thumb_func
 759              	task_sixtopNotifReceive:
 760              	.LFB6:
 413:openstack/02b-MAChigh/sixtop.c **** 
 414:openstack/02b-MAChigh/sixtop.c **** void task_sixtopNotifReceive() {
 761              		.loc 1 414 0
 762              		.cfi_startproc
 763              		@ args = 0, pretend = 0, frame = 8
 764              		@ frame_needed = 1, uses_anonymous_args = 0
 765 050c 90B5     		push	{r4, r7, lr}
 766              	.LCFI17:
 767              		.cfi_def_cfa_offset 12
 768              		.cfi_offset 4, -12
 769              		.cfi_offset 7, -8
 770              		.cfi_offset 14, -4
 771 050e 85B0     		sub	sp, sp, #20
 772              	.LCFI18:
 773              		.cfi_def_cfa_offset 32
 774 0510 02AF     		add	r7, sp, #8
 775              	.LCFI19:
 776              		.cfi_def_cfa 7, 24
 415:openstack/02b-MAChigh/sixtop.c ****    OpenQueueEntry_t* msg;
 416:openstack/02b-MAChigh/sixtop.c ****    uint16_t          lenIE;
 417:openstack/02b-MAChigh/sixtop.c ****    
 418:openstack/02b-MAChigh/sixtop.c ****    // get received packet from openqueue
 419:openstack/02b-MAChigh/sixtop.c ****    msg = openqueue_sixtopGetReceivedPacket();
 777              		.loc 1 419 0
 778 0512 FFF7FEFF 		bl	openqueue_sixtopGetReceivedPacket
 779 0516 7860     		str	r0, [r7, #4]
 420:openstack/02b-MAChigh/sixtop.c ****    if (msg==NULL) {
 780              		.loc 1 420 0
 781 0518 7B68     		ldr	r3, [r7, #4]
 782 051a 002B     		cmp	r3, #0
 783 051c 0AD1     		bne	.L28
 421:openstack/02b-MAChigh/sixtop.c ****       openserial_printCritical(
 784              		.loc 1 421 0
 785 051e 4FF00C00 		mov	r0, #12
 786 0522 4FF01601 		mov	r1, #22
 787 0526 4FF00002 		mov	r2, #0
 788 052a 4FF00003 		mov	r3, #0
 789 052e FFF7FEFF 		bl	openserial_printCritical
 790 0532 67E0     		b	.L27
 791              	.L28:
 422:openstack/02b-MAChigh/sixtop.c ****          COMPONENT_SIXTOP,
 423:openstack/02b-MAChigh/sixtop.c ****          ERR_NO_RECEIVED_PACKET,
 424:openstack/02b-MAChigh/sixtop.c ****          (errorparameter_t)0,
 425:openstack/02b-MAChigh/sixtop.c ****          (errorparameter_t)0
 426:openstack/02b-MAChigh/sixtop.c ****       );
 427:openstack/02b-MAChigh/sixtop.c ****       return;
 428:openstack/02b-MAChigh/sixtop.c ****    }
 429:openstack/02b-MAChigh/sixtop.c ****    
 430:openstack/02b-MAChigh/sixtop.c ****    // take ownership
 431:openstack/02b-MAChigh/sixtop.c ****    msg->owner = COMPONENT_SIXTOP;
 792              		.loc 1 431 0
 793 0534 7B68     		ldr	r3, [r7, #4]
 794 0536 4FF00C02 		mov	r2, #12
 795 053a 5A70     		strb	r2, [r3, #1]
 432:openstack/02b-MAChigh/sixtop.c ****    
 433:openstack/02b-MAChigh/sixtop.c ****    // process the header IEs
 434:openstack/02b-MAChigh/sixtop.c ****    lenIE=0;
 796              		.loc 1 434 0
 797 053c 4FF00003 		mov	r3, #0
 798 0540 7B80     		strh	r3, [r7, #2]	@ movhi
 435:openstack/02b-MAChigh/sixtop.c ****    if(
 436:openstack/02b-MAChigh/sixtop.c ****          msg->l2_frameType==IEEE154_TYPE_DATA            &&
 799              		.loc 1 436 0
 800 0542 7B68     		ldr	r3, [r7, #4]
 801 0544 93F84930 		ldrb	r3, [r3, #73]	@ zero_extendqisi2
 435:openstack/02b-MAChigh/sixtop.c ****    if(
 802              		.loc 1 435 0
 803 0548 012B     		cmp	r3, #1
 804 054a 14D1     		bne	.L30
 437:openstack/02b-MAChigh/sixtop.c ****          msg->l2_IEListPresent==IEEE154_IELIST_YES       &&
 805              		.loc 1 437 0
 806 054c 7B68     		ldr	r3, [r7, #4]
 807 054e 93F86530 		ldrb	r3, [r3, #101]	@ zero_extendqisi2
 436:openstack/02b-MAChigh/sixtop.c ****          msg->l2_frameType==IEEE154_TYPE_DATA            &&
 808              		.loc 1 436 0
 809 0552 002B     		cmp	r3, #0
 810 0554 0FD0     		beq	.L30
 438:openstack/02b-MAChigh/sixtop.c ****          sixtop_processIEs(msg, &lenIE) == FALSE
 811              		.loc 1 438 0
 812 0556 07F10203 		add	r3, r7, #2
 813 055a 7868     		ldr	r0, [r7, #4]
 814 055c 1946     		mov	r1, r3
 815 055e FFF7FEFF 		bl	sixtop_processIEs
 816 0562 0346     		mov	r3, r0
 817 0564 83F00103 		eor	r3, r3, #1
 818 0568 DBB2     		uxtb	r3, r3
 437:openstack/02b-MAChigh/sixtop.c ****          msg->l2_IEListPresent==IEEE154_IELIST_YES       &&
 819              		.loc 1 437 0
 820 056a 002B     		cmp	r3, #0
 821 056c 03D0     		beq	.L30
 439:openstack/02b-MAChigh/sixtop.c ****       ) {
 440:openstack/02b-MAChigh/sixtop.c ****       // free the packet's RAM memory
 441:openstack/02b-MAChigh/sixtop.c ****       openqueue_freePacketBuffer(msg);
 822              		.loc 1 441 0
 823 056e 7868     		ldr	r0, [r7, #4]
 824 0570 FFF7FEFF 		bl	openqueue_freePacketBuffer
 825 0574 46E0     		b	.L27
 826              	.L30:
 442:openstack/02b-MAChigh/sixtop.c ****       //log error
 443:openstack/02b-MAChigh/sixtop.c ****       return;
 444:openstack/02b-MAChigh/sixtop.c ****    }
 445:openstack/02b-MAChigh/sixtop.c ****    
 446:openstack/02b-MAChigh/sixtop.c ****    // toss the header IEs
 447:openstack/02b-MAChigh/sixtop.c ****    packetfunctions_tossHeader(msg,lenIE);
 827              		.loc 1 447 0
 828 0576 7B88     		ldrh	r3, [r7, #2]
 829 0578 DBB2     		uxtb	r3, r3
 830 057a 7868     		ldr	r0, [r7, #4]
 831 057c 1946     		mov	r1, r3
 832 057e FFF7FEFF 		bl	packetfunctions_tossHeader
 448:openstack/02b-MAChigh/sixtop.c ****    
 449:openstack/02b-MAChigh/sixtop.c ****    // update neighbor statistics
 450:openstack/02b-MAChigh/sixtop.c ****    neighbors_indicateRx(
 833              		.loc 1 450 0
 834 0582 7B68     		ldr	r3, [r7, #4]
 835 0584 03F13800 		add	r0, r3, #56
 451:openstack/02b-MAChigh/sixtop.c ****       &(msg->l2_nextORpreviousHop),
 452:openstack/02b-MAChigh/sixtop.c ****       msg->l1_rssi,
 836              		.loc 1 452 0
 837 0588 7B68     		ldr	r3, [r7, #4]
 450:openstack/02b-MAChigh/sixtop.c ****    neighbors_indicateRx(
 838              		.loc 1 450 0
 839 058a 93F86810 		ldrb	r1, [r3, #104]	@ zero_extendqisi2
 840 058e 7B68     		ldr	r3, [r7, #4]
 841 0590 03F14D02 		add	r2, r3, #77
 453:openstack/02b-MAChigh/sixtop.c ****       &msg->l2_asn,
 454:openstack/02b-MAChigh/sixtop.c ****       msg->l2_joinPriorityPresent,
 842              		.loc 1 454 0
 843 0594 7B68     		ldr	r3, [r7, #4]
 450:openstack/02b-MAChigh/sixtop.c ****    neighbors_indicateRx(
 844              		.loc 1 450 0
 845 0596 93F86630 		ldrb	r3, [r3, #102]	@ zero_extendqisi2
 455:openstack/02b-MAChigh/sixtop.c ****       msg->l2_joinPriority
 846              		.loc 1 455 0
 847 059a 7C68     		ldr	r4, [r7, #4]
 450:openstack/02b-MAChigh/sixtop.c ****    neighbors_indicateRx(
 848              		.loc 1 450 0
 849 059c 94F86440 		ldrb	r4, [r4, #100]	@ zero_extendqisi2
 850 05a0 49B2     		sxtb	r1, r1
 851 05a2 0094     		str	r4, [sp, #0]
 852 05a4 FFF7FEFF 		bl	neighbors_indicateRx
 456:openstack/02b-MAChigh/sixtop.c ****    );
 457:openstack/02b-MAChigh/sixtop.c ****    
 458:openstack/02b-MAChigh/sixtop.c ****    // reset it to avoid race conditions with this var.
 459:openstack/02b-MAChigh/sixtop.c ****    msg->l2_joinPriorityPresent = FALSE; 
 853              		.loc 1 459 0
 854 05a8 7B68     		ldr	r3, [r7, #4]
 855 05aa 4FF00002 		mov	r2, #0
 856 05ae 83F86620 		strb	r2, [r3, #102]
 460:openstack/02b-MAChigh/sixtop.c ****    
 461:openstack/02b-MAChigh/sixtop.c ****    // send the packet up the stack, if it qualifies
 462:openstack/02b-MAChigh/sixtop.c ****    switch (msg->l2_frameType) {
 857              		.loc 1 462 0
 858 05b2 7B68     		ldr	r3, [r7, #4]
 859 05b4 93F84930 		ldrb	r3, [r3, #73]	@ zero_extendqisi2
 860 05b8 032B     		cmp	r3, #3
 861 05ba 13D8     		bhi	.L31
 862 05bc 4FF00102 		mov	r2, #1
 863 05c0 02FA03F3 		lsl	r3, r2, r3
 864 05c4 03F00B03 		and	r3, r3, #11
 865 05c8 002B     		cmp	r3, #0
 866 05ca 0BD0     		beq	.L31
 867              	.L32:
 463:openstack/02b-MAChigh/sixtop.c ****       case IEEE154_TYPE_BEACON:
 464:openstack/02b-MAChigh/sixtop.c ****       case IEEE154_TYPE_DATA:
 465:openstack/02b-MAChigh/sixtop.c ****       case IEEE154_TYPE_CMD:
 466:openstack/02b-MAChigh/sixtop.c ****          if (msg->length>0) {
 868              		.loc 1 466 0
 869 05cc 7B68     		ldr	r3, [r7, #4]
 870 05ce 1B7A     		ldrb	r3, [r3, #8]	@ zero_extendqisi2
 871 05d0 002B     		cmp	r3, #0
 872 05d2 03D0     		beq	.L33
 467:openstack/02b-MAChigh/sixtop.c ****             // send to upper layer
 468:openstack/02b-MAChigh/sixtop.c ****             iphc_receive(msg);
 873              		.loc 1 468 0
 874 05d4 7868     		ldr	r0, [r7, #4]
 875 05d6 FFF7FEFF 		bl	iphc_receive
 469:openstack/02b-MAChigh/sixtop.c ****          } else {
 470:openstack/02b-MAChigh/sixtop.c ****             // free up the RAM
 471:openstack/02b-MAChigh/sixtop.c ****             openqueue_freePacketBuffer(msg);
 472:openstack/02b-MAChigh/sixtop.c ****          }
 473:openstack/02b-MAChigh/sixtop.c ****          break;
 876              		.loc 1 473 0
 877 05da 13E0     		b	.L27
 878              	.L33:
 471:openstack/02b-MAChigh/sixtop.c ****             openqueue_freePacketBuffer(msg);
 879              		.loc 1 471 0
 880 05dc 7868     		ldr	r0, [r7, #4]
 881 05de FFF7FEFF 		bl	openqueue_freePacketBuffer
 882              		.loc 1 473 0
 883 05e2 0FE0     		b	.L27
 884              	.L31:
 474:openstack/02b-MAChigh/sixtop.c ****       case IEEE154_TYPE_ACK:
 475:openstack/02b-MAChigh/sixtop.c ****       default:
 476:openstack/02b-MAChigh/sixtop.c ****          // free the packet's RAM memory
 477:openstack/02b-MAChigh/sixtop.c ****          openqueue_freePacketBuffer(msg);
 885              		.loc 1 477 0
 886 05e4 7868     		ldr	r0, [r7, #4]
 887 05e6 FFF7FEFF 		bl	openqueue_freePacketBuffer
 478:openstack/02b-MAChigh/sixtop.c ****          // log the error
 479:openstack/02b-MAChigh/sixtop.c ****          openserial_printError(
 480:openstack/02b-MAChigh/sixtop.c ****             COMPONENT_SIXTOP,
 481:openstack/02b-MAChigh/sixtop.c ****             ERR_MSG_UNKNOWN_TYPE,
 482:openstack/02b-MAChigh/sixtop.c ****             (errorparameter_t)msg->l2_frameType,
 888              		.loc 1 482 0
 889 05ea 7B68     		ldr	r3, [r7, #4]
 890 05ec 93F84930 		ldrb	r3, [r3, #73]	@ zero_extendqisi2
 479:openstack/02b-MAChigh/sixtop.c ****          openserial_printError(
 891              		.loc 1 479 0
 892 05f0 4FF00C00 		mov	r0, #12
 893 05f4 4FF03001 		mov	r1, #48
 894 05f8 1A46     		mov	r2, r3
 895 05fa 4FF00003 		mov	r3, #0
 896 05fe FFF7FEFF 		bl	openserial_printError
 483:openstack/02b-MAChigh/sixtop.c ****             (errorparameter_t)0
 484:openstack/02b-MAChigh/sixtop.c ****          );
 485:openstack/02b-MAChigh/sixtop.c ****          break;
 897              		.loc 1 485 0
 898 0602 00BF     		nop
 899              	.L27:
 486:openstack/02b-MAChigh/sixtop.c ****    }
 487:openstack/02b-MAChigh/sixtop.c **** }
 900              		.loc 1 487 0
 901 0604 07F10C07 		add	r7, r7, #12
 902 0608 BD46     		mov	sp, r7
 903 060a 90BD     		pop	{r4, r7, pc}
 904              		.cfi_endproc
 905              	.LFE6:
 907              		.align	2
 908              		.global	debugPrint_myDAGrank
 909              		.thumb
 910              		.thumb_func
 912              	debugPrint_myDAGrank:
 913              	.LFB7:
 488:openstack/02b-MAChigh/sixtop.c **** 
 489:openstack/02b-MAChigh/sixtop.c **** //======= debugging
 490:openstack/02b-MAChigh/sixtop.c **** 
 491:openstack/02b-MAChigh/sixtop.c **** /**
 492:openstack/02b-MAChigh/sixtop.c **** \brief Trigger this module to print status information, over serial.
 493:openstack/02b-MAChigh/sixtop.c **** 
 494:openstack/02b-MAChigh/sixtop.c **** debugPrint_* functions are used by the openserial module to continuously print
 495:openstack/02b-MAChigh/sixtop.c **** status information about several modules in the OpenWSN stack.
 496:openstack/02b-MAChigh/sixtop.c **** 
 497:openstack/02b-MAChigh/sixtop.c **** \returns TRUE if this function printed something, FALSE otherwise.
 498:openstack/02b-MAChigh/sixtop.c **** */
 499:openstack/02b-MAChigh/sixtop.c **** bool debugPrint_myDAGrank() {
 914              		.loc 1 499 0
 915              		.cfi_startproc
 916              		@ args = 0, pretend = 0, frame = 8
 917              		@ frame_needed = 1, uses_anonymous_args = 0
 918 060c 80B5     		push	{r7, lr}
 919              	.LCFI20:
 920              		.cfi_def_cfa_offset 8
 921              		.cfi_offset 7, -8
 922              		.cfi_offset 14, -4
 923 060e 82B0     		sub	sp, sp, #8
 924              	.LCFI21:
 925              		.cfi_def_cfa_offset 16
 926 0610 00AF     		add	r7, sp, #0
 927              	.LCFI22:
 928              		.cfi_def_cfa_register 7
 500:openstack/02b-MAChigh/sixtop.c ****    uint16_t output;
 501:openstack/02b-MAChigh/sixtop.c ****    
 502:openstack/02b-MAChigh/sixtop.c ****    output = 0;
 929              		.loc 1 502 0
 930 0612 4FF00003 		mov	r3, #0
 931 0616 FB80     		strh	r3, [r7, #6]	@ movhi
 503:openstack/02b-MAChigh/sixtop.c ****    
 504:openstack/02b-MAChigh/sixtop.c ****    output = neighbors_getMyDAGrank();
 932              		.loc 1 504 0
 933 0618 FFF7FEFF 		bl	neighbors_getMyDAGrank
 934 061c 0346     		mov	r3, r0
 935 061e FB80     		strh	r3, [r7, #6]	@ movhi
 505:openstack/02b-MAChigh/sixtop.c ****    openserial_printStatus(STATUS_DAGRANK,(uint8_t*)&output,sizeof(uint16_t));
 936              		.loc 1 505 0
 937 0620 07F10603 		add	r3, r7, #6
 938 0624 4FF00200 		mov	r0, #2
 939 0628 1946     		mov	r1, r3
 940 062a 4FF00202 		mov	r2, #2
 941 062e FFF7FEFF 		bl	openserial_printStatus
 506:openstack/02b-MAChigh/sixtop.c ****    return TRUE;
 942              		.loc 1 506 0
 943 0632 4FF00103 		mov	r3, #1
 507:openstack/02b-MAChigh/sixtop.c **** }
 944              		.loc 1 507 0
 945 0636 1846     		mov	r0, r3
 946 0638 07F10807 		add	r7, r7, #8
 947 063c BD46     		mov	sp, r7
 948 063e 80BD     		pop	{r7, pc}
 949              		.cfi_endproc
 950              	.LFE7:
 952              		.align	2
 953              		.global	debugPrint_kaPeriod
 954              		.thumb
 955              		.thumb_func
 957              	debugPrint_kaPeriod:
 958              	.LFB8:
 508:openstack/02b-MAChigh/sixtop.c **** 
 509:openstack/02b-MAChigh/sixtop.c **** /**
 510:openstack/02b-MAChigh/sixtop.c **** \brief Trigger this module to print status information, over serial.
 511:openstack/02b-MAChigh/sixtop.c **** 
 512:openstack/02b-MAChigh/sixtop.c **** debugPrint_* functions are used by the openserial module to continuously print
 513:openstack/02b-MAChigh/sixtop.c **** status information about several modules in the OpenWSN stack.
 514:openstack/02b-MAChigh/sixtop.c **** 
 515:openstack/02b-MAChigh/sixtop.c **** \returns TRUE if this function printed something, FALSE otherwise.
 516:openstack/02b-MAChigh/sixtop.c **** */
 517:openstack/02b-MAChigh/sixtop.c **** bool debugPrint_kaPeriod() {
 959              		.loc 1 517 0
 960              		.cfi_startproc
 961              		@ args = 0, pretend = 0, frame = 8
 962              		@ frame_needed = 1, uses_anonymous_args = 0
 963 0640 80B5     		push	{r7, lr}
 964              	.LCFI23:
 965              		.cfi_def_cfa_offset 8
 966              		.cfi_offset 7, -8
 967              		.cfi_offset 14, -4
 968 0642 82B0     		sub	sp, sp, #8
 969              	.LCFI24:
 970              		.cfi_def_cfa_offset 16
 971 0644 00AF     		add	r7, sp, #0
 972              	.LCFI25:
 973              		.cfi_def_cfa_register 7
 518:openstack/02b-MAChigh/sixtop.c ****    uint16_t output;
 519:openstack/02b-MAChigh/sixtop.c ****    
 520:openstack/02b-MAChigh/sixtop.c ****    output = sixtop_vars.kaPeriod;
 974              		.loc 1 520 0
 975 0646 40F20003 		movw	r3, #:lower16:sixtop_vars
 976 064a C0F20003 		movt	r3, #:upper16:sixtop_vars
 977 064e 1B89     		ldrh	r3, [r3, #8]
 978 0650 FB80     		strh	r3, [r7, #6]	@ movhi
 521:openstack/02b-MAChigh/sixtop.c ****    
 522:openstack/02b-MAChigh/sixtop.c ****    openserial_printStatus(
 523:openstack/02b-MAChigh/sixtop.c ****        STATUS_KAPERIOD,
 524:openstack/02b-MAChigh/sixtop.c ****        (uint8_t*)&output,
 979              		.loc 1 524 0
 980 0652 07F10603 		add	r3, r7, #6
 522:openstack/02b-MAChigh/sixtop.c ****    openserial_printStatus(
 981              		.loc 1 522 0
 982 0656 4FF00A00 		mov	r0, #10
 983 065a 1946     		mov	r1, r3
 984 065c 4FF00202 		mov	r2, #2
 985 0660 FFF7FEFF 		bl	openserial_printStatus
 525:openstack/02b-MAChigh/sixtop.c ****        sizeof(output)
 526:openstack/02b-MAChigh/sixtop.c ****    );
 527:openstack/02b-MAChigh/sixtop.c ****    return TRUE;
 986              		.loc 1 527 0
 987 0664 4FF00103 		mov	r3, #1
 528:openstack/02b-MAChigh/sixtop.c **** }
 988              		.loc 1 528 0
 989 0668 1846     		mov	r0, r3
 990 066a 07F10807 		add	r7, r7, #8
 991 066e BD46     		mov	sp, r7
 992 0670 80BD     		pop	{r7, pc}
 993              		.cfi_endproc
 994              	.LFE8:
 996 0672 00BF     		.align	2
 997              		.global	sixtop_send_internal
 998              		.thumb
 999              		.thumb_func
 1001              	sixtop_send_internal:
 1002              	.LFB9:
 529:openstack/02b-MAChigh/sixtop.c **** 
 530:openstack/02b-MAChigh/sixtop.c **** //=========================== private =========================================
 531:openstack/02b-MAChigh/sixtop.c **** 
 532:openstack/02b-MAChigh/sixtop.c **** /**
 533:openstack/02b-MAChigh/sixtop.c **** \brief Transfer packet to MAC.
 534:openstack/02b-MAChigh/sixtop.c **** 
 535:openstack/02b-MAChigh/sixtop.c **** This function adds a IEEE802.15.4 header to the packet and leaves it the 
 536:openstack/02b-MAChigh/sixtop.c **** OpenQueue buffer. The very last thing it does is assigning this packet to the 
 537:openstack/02b-MAChigh/sixtop.c **** virtual component COMPONENT_SIXTOP_TO_IEEE802154E. Whenever it gets a change,
 538:openstack/02b-MAChigh/sixtop.c **** IEEE802154E will handle the packet.
 539:openstack/02b-MAChigh/sixtop.c **** 
 540:openstack/02b-MAChigh/sixtop.c **** \param[in] msg The packet to the transmitted
 541:openstack/02b-MAChigh/sixtop.c **** \param[in] iePresent Indicates wheter an Information Element is present in the
 542:openstack/02b-MAChigh/sixtop.c ****    packet.
 543:openstack/02b-MAChigh/sixtop.c **** \param[in] frameVersion The frame version to write in the packet.
 544:openstack/02b-MAChigh/sixtop.c **** 
 545:openstack/02b-MAChigh/sixtop.c **** \returns E_SUCCESS iff successful.
 546:openstack/02b-MAChigh/sixtop.c **** */
 547:openstack/02b-MAChigh/sixtop.c **** owerror_t sixtop_send_internal(
 548:openstack/02b-MAChigh/sixtop.c ****    OpenQueueEntry_t* msg, 
 549:openstack/02b-MAChigh/sixtop.c ****    uint8_t iePresent, 
 550:openstack/02b-MAChigh/sixtop.c ****    uint8_t frameVersion) {
 1003              		.loc 1 550 0
 1004              		.cfi_startproc
 1005              		@ args = 0, pretend = 0, frame = 8
 1006              		@ frame_needed = 1, uses_anonymous_args = 0
 1007 0674 B0B5     		push	{r4, r5, r7, lr}
 1008              	.LCFI26:
 1009              		.cfi_def_cfa_offset 16
 1010              		.cfi_offset 4, -16
 1011              		.cfi_offset 5, -12
 1012              		.cfi_offset 7, -8
 1013              		.cfi_offset 14, -4
 1014 0676 86B0     		sub	sp, sp, #24
 1015              	.LCFI27:
 1016              		.cfi_def_cfa_offset 40
 1017 0678 04AF     		add	r7, sp, #16
 1018              	.LCFI28:
 1019              		.cfi_def_cfa 7, 24
 1020 067a 7860     		str	r0, [r7, #4]
 1021 067c 1346     		mov	r3, r2
 1022 067e 0A46     		mov	r2, r1
 1023 0680 FA70     		strb	r2, [r7, #3]
 1024 0682 BB70     		strb	r3, [r7, #2]
 551:openstack/02b-MAChigh/sixtop.c **** 
 552:openstack/02b-MAChigh/sixtop.c ****    // assign a number of retries
 553:openstack/02b-MAChigh/sixtop.c ****    if (
 554:openstack/02b-MAChigh/sixtop.c ****       packetfunctions_isBroadcastMulticast(&(msg->l2_nextORpreviousHop))==TRUE
 1025              		.loc 1 554 0
 1026 0684 7B68     		ldr	r3, [r7, #4]
 1027 0686 03F13803 		add	r3, r3, #56
 1028 068a 1846     		mov	r0, r3
 1029 068c FFF7FEFF 		bl	packetfunctions_isBroadcastMulticast
 1030 0690 0346     		mov	r3, r0
 553:openstack/02b-MAChigh/sixtop.c ****    if (
 1031              		.loc 1 553 0
 1032 0692 002B     		cmp	r3, #0
 1033 0694 05D0     		beq	.L42
 555:openstack/02b-MAChigh/sixtop.c ****       ) {
 556:openstack/02b-MAChigh/sixtop.c ****       msg->l2_retriesLeft = 1;
 1034              		.loc 1 556 0
 1035 0696 7B68     		ldr	r3, [r7, #4]
 1036 0698 4FF00102 		mov	r2, #1
 1037 069c 83F84B20 		strb	r2, [r3, #75]
 1038 06a0 04E0     		b	.L43
 1039              	.L42:
 557:openstack/02b-MAChigh/sixtop.c ****    } else {
 558:openstack/02b-MAChigh/sixtop.c ****       msg->l2_retriesLeft = TXRETRIES;
 1040              		.loc 1 558 0
 1041 06a2 7B68     		ldr	r3, [r7, #4]
 1042 06a4 4FF00302 		mov	r2, #3
 1043 06a8 83F84B20 		strb	r2, [r3, #75]
 1044              	.L43:
 559:openstack/02b-MAChigh/sixtop.c ****    }
 560:openstack/02b-MAChigh/sixtop.c ****    // record this packet's dsn (for matching the ACK)
 561:openstack/02b-MAChigh/sixtop.c ****    msg->l2_dsn = sixtop_vars.dsn++;
 1045              		.loc 1 561 0
 1046 06ac 40F20003 		movw	r3, #:lower16:sixtop_vars
 1047 06b0 C0F20003 		movt	r3, #:upper16:sixtop_vars
 1048 06b4 1B79     		ldrb	r3, [r3, #4]	@ zero_extendqisi2
 1049 06b6 7A68     		ldr	r2, [r7, #4]
 1050 06b8 1946     		mov	r1, r3
 1051 06ba 82F84A10 		strb	r1, [r2, #74]
 1052 06be 03F10103 		add	r3, r3, #1
 1053 06c2 DAB2     		uxtb	r2, r3
 1054 06c4 40F20003 		movw	r3, #:lower16:sixtop_vars
 1055 06c8 C0F20003 		movt	r3, #:upper16:sixtop_vars
 1056 06cc 1A71     		strb	r2, [r3, #4]
 562:openstack/02b-MAChigh/sixtop.c ****    // this is a new packet which I never attempted to send
 563:openstack/02b-MAChigh/sixtop.c ****    msg->l2_numTxAttempts = 0;
 1057              		.loc 1 563 0
 1058 06ce 7B68     		ldr	r3, [r7, #4]
 1059 06d0 4FF00002 		mov	r2, #0
 1060 06d4 83F84C20 		strb	r2, [r3, #76]
 564:openstack/02b-MAChigh/sixtop.c ****    // transmit with the default TX power
 565:openstack/02b-MAChigh/sixtop.c ****    msg->l1_txPower = TX_POWER;
 1061              		.loc 1 565 0
 1062 06d8 7B68     		ldr	r3, [r7, #4]
 1063 06da 4FF01F02 		mov	r2, #31
 1064 06de 83F86720 		strb	r2, [r3, #103]
 566:openstack/02b-MAChigh/sixtop.c ****    // record the location, in the packet, where the l2 payload starts
 567:openstack/02b-MAChigh/sixtop.c ****    msg->l2_payload = msg->payload;
 1065              		.loc 1 567 0
 1066 06e2 7B68     		ldr	r3, [r7, #4]
 1067 06e4 5A68     		ldr	r2, [r3, #4]
 1068 06e6 7B68     		ldr	r3, [r7, #4]
 1069 06e8 5A65     		str	r2, [r3, #84]
 568:openstack/02b-MAChigh/sixtop.c ****    // add a IEEE802.15.4 header
 569:openstack/02b-MAChigh/sixtop.c ****    ieee802154_prependHeader(msg,
 570:openstack/02b-MAChigh/sixtop.c ****                             msg->l2_frameType,
 1070              		.loc 1 570 0
 1071 06ea 7B68     		ldr	r3, [r7, #4]
 569:openstack/02b-MAChigh/sixtop.c ****    ieee802154_prependHeader(msg,
 1072              		.loc 1 569 0
 1073 06ec 93F84910 		ldrb	r1, [r3, #73]	@ zero_extendqisi2
 571:openstack/02b-MAChigh/sixtop.c ****                             iePresent,
 572:openstack/02b-MAChigh/sixtop.c ****                             frameVersion,
 573:openstack/02b-MAChigh/sixtop.c ****                             IEEE154_SEC_NO_SECURITY,
 574:openstack/02b-MAChigh/sixtop.c ****                             msg->l2_dsn,
 1074              		.loc 1 574 0
 1075 06f0 7B68     		ldr	r3, [r7, #4]
 569:openstack/02b-MAChigh/sixtop.c ****    ieee802154_prependHeader(msg,
 1076              		.loc 1 569 0
 1077 06f2 93F84A40 		ldrb	r4, [r3, #74]	@ zero_extendqisi2
 1078 06f6 7B68     		ldr	r3, [r7, #4]
 1079 06f8 03F13800 		add	r0, r3, #56
 1080 06fc FA78     		ldrb	r2, [r7, #3]	@ zero_extendqisi2
 1081 06fe BB78     		ldrb	r3, [r7, #2]	@ zero_extendqisi2
 1082 0700 4FF00005 		mov	r5, #0
 1083 0704 0095     		str	r5, [sp, #0]
 1084 0706 0194     		str	r4, [sp, #4]
 1085 0708 0290     		str	r0, [sp, #8]
 1086 070a 7868     		ldr	r0, [r7, #4]
 1087 070c FFF7FEFF 		bl	ieee802154_prependHeader
 575:openstack/02b-MAChigh/sixtop.c ****                             &(msg->l2_nextORpreviousHop)
 576:openstack/02b-MAChigh/sixtop.c ****                             );
 577:openstack/02b-MAChigh/sixtop.c ****    // reserve space for 2-byte CRC
 578:openstack/02b-MAChigh/sixtop.c ****    packetfunctions_reserveFooterSize(msg,2);
 1088              		.loc 1 578 0
 1089 0710 7868     		ldr	r0, [r7, #4]
 1090 0712 4FF00201 		mov	r1, #2
 1091 0716 FFF7FEFF 		bl	packetfunctions_reserveFooterSize
 579:openstack/02b-MAChigh/sixtop.c ****    // change owner to IEEE802154E fetches it from queue
 580:openstack/02b-MAChigh/sixtop.c ****    msg->owner  = COMPONENT_SIXTOP_TO_IEEE802154E;
 1092              		.loc 1 580 0
 1093 071a 7B68     		ldr	r3, [r7, #4]
 1094 071c 4FF00A02 		mov	r2, #10
 1095 0720 5A70     		strb	r2, [r3, #1]
 581:openstack/02b-MAChigh/sixtop.c ****    return E_SUCCESS;
 1096              		.loc 1 581 0
 1097 0722 4FF00003 		mov	r3, #0
 582:openstack/02b-MAChigh/sixtop.c **** }
 1098              		.loc 1 582 0
 1099 0726 1846     		mov	r0, r3
 1100 0728 07F10807 		add	r7, r7, #8
 1101 072c BD46     		mov	sp, r7
 1102 072e B0BD     		pop	{r4, r5, r7, pc}
 1103              		.cfi_endproc
 1104              	.LFE9:
 1106              		.align	2
 1107              		.global	sixtop_maintenance_timer_cb
 1108              		.thumb
 1109              		.thumb_func
 1111              	sixtop_maintenance_timer_cb:
 1112              	.LFB10:
 583:openstack/02b-MAChigh/sixtop.c **** 
 584:openstack/02b-MAChigh/sixtop.c **** // timer interrupt callbacks
 585:openstack/02b-MAChigh/sixtop.c **** 
 586:openstack/02b-MAChigh/sixtop.c **** void sixtop_maintenance_timer_cb() {
 1113              		.loc 1 586 0
 1114              		.cfi_startproc
 1115              		@ args = 0, pretend = 0, frame = 0
 1116              		@ frame_needed = 1, uses_anonymous_args = 0
 1117 0730 80B5     		push	{r7, lr}
 1118              	.LCFI29:
 1119              		.cfi_def_cfa_offset 8
 1120              		.cfi_offset 7, -8
 1121              		.cfi_offset 14, -4
 1122 0732 00AF     		add	r7, sp, #0
 1123              	.LCFI30:
 1124              		.cfi_def_cfa_register 7
 587:openstack/02b-MAChigh/sixtop.c ****    scheduler_push_task(timer_sixtop_management_fired,TASKPRIO_SIXTOP);
 1125              		.loc 1 587 0
 1126 0734 40F20000 		movw	r0, #:lower16:timer_sixtop_management_fired
 1127 0738 C0F20000 		movt	r0, #:upper16:timer_sixtop_management_fired
 1128 073c 4FF00301 		mov	r1, #3
 1129 0740 FFF7FEFF 		bl	scheduler_push_task
 588:openstack/02b-MAChigh/sixtop.c **** }
 1130              		.loc 1 588 0
 1131 0744 80BD     		pop	{r7, pc}
 1132              		.cfi_endproc
 1133              	.LFE10:
 1135 0746 00BF     		.align	2
 1136              		.global	sixtop_timeout_timer_cb
 1137              		.thumb
 1138              		.thumb_func
 1140              	sixtop_timeout_timer_cb:
 1141              	.LFB11:
 589:openstack/02b-MAChigh/sixtop.c **** 
 590:openstack/02b-MAChigh/sixtop.c **** void sixtop_timeout_timer_cb() {
 1142              		.loc 1 590 0
 1143              		.cfi_startproc
 1144              		@ args = 0, pretend = 0, frame = 0
 1145              		@ frame_needed = 1, uses_anonymous_args = 0
 1146 0748 80B5     		push	{r7, lr}
 1147              	.LCFI31:
 1148              		.cfi_def_cfa_offset 8
 1149              		.cfi_offset 7, -8
 1150              		.cfi_offset 14, -4
 1151 074a 00AF     		add	r7, sp, #0
 1152              	.LCFI32:
 1153              		.cfi_def_cfa_register 7
 591:openstack/02b-MAChigh/sixtop.c ****    scheduler_push_task(timer_sixtop_six2six_timeout_fired,TASKPRIO_SIXTOP_TIMEOUT);
 1154              		.loc 1 591 0
 1155 074c 40F20000 		movw	r0, #:lower16:timer_sixtop_six2six_timeout_fired
 1156 0750 C0F20000 		movt	r0, #:upper16:timer_sixtop_six2six_timeout_fired
 1157 0754 4FF00A01 		mov	r1, #10
 1158 0758 FFF7FEFF 		bl	scheduler_push_task
 592:openstack/02b-MAChigh/sixtop.c **** }
 1159              		.loc 1 592 0
 1160 075c 80BD     		pop	{r7, pc}
 1161              		.cfi_endproc
 1162              	.LFE11:
 1164 075e 00BF     		.align	2
 1165              		.global	timer_sixtop_management_fired
 1166              		.thumb
 1167              		.thumb_func
 1169              	timer_sixtop_management_fired:
 1170              	.LFB12:
 593:openstack/02b-MAChigh/sixtop.c **** 
 594:openstack/02b-MAChigh/sixtop.c **** //======= EB/KA task
 595:openstack/02b-MAChigh/sixtop.c **** 
 596:openstack/02b-MAChigh/sixtop.c **** /**
 597:openstack/02b-MAChigh/sixtop.c **** \brief Timer handlers which triggers MAC management task.
 598:openstack/02b-MAChigh/sixtop.c **** 
 599:openstack/02b-MAChigh/sixtop.c **** This function is called in task context by the scheduler after the RES timer
 600:openstack/02b-MAChigh/sixtop.c **** has fired. This timer is set to fire every second, on average.
 601:openstack/02b-MAChigh/sixtop.c **** 
 602:openstack/02b-MAChigh/sixtop.c **** The body of this function executes one of the MAC management task.
 603:openstack/02b-MAChigh/sixtop.c **** */
 604:openstack/02b-MAChigh/sixtop.c **** void timer_sixtop_management_fired(void) {
 1171              		.loc 1 604 0
 1172              		.cfi_startproc
 1173              		@ args = 0, pretend = 0, frame = 0
 1174              		@ frame_needed = 1, uses_anonymous_args = 0
 1175 0760 80B5     		push	{r7, lr}
 1176              	.LCFI33:
 1177              		.cfi_def_cfa_offset 8
 1178              		.cfi_offset 7, -8
 1179              		.cfi_offset 14, -4
 1180 0762 00AF     		add	r7, sp, #0
 1181              	.LCFI34:
 1182              		.cfi_def_cfa_register 7
 605:openstack/02b-MAChigh/sixtop.c ****    sixtop_vars.mgtTaskCounter = (sixtop_vars.mgtTaskCounter+1)%ADVTIMEOUT;
 1183              		.loc 1 605 0
 1184 0764 40F20003 		movw	r3, #:lower16:sixtop_vars
 1185 0768 C0F20003 		movt	r3, #:upper16:sixtop_vars
 1186 076c 5B79     		ldrb	r3, [r3, #5]	@ zero_extendqisi2
 1187 076e 03F10101 		add	r1, r3, #1
 1188 0772 48F68903 		movw	r3, #34953
 1189 0776 C8F68803 		movt	r3, 34952
 1190 077a 83FB0123 		smull	r2, r3, r3, r1
 1191 077e 5B18     		adds	r3, r3, r1
 1192 0780 4FEA2312 		asr	r2, r3, #4
 1193 0784 4FEAE173 		asr	r3, r1, #31
 1194 0788 D21A     		subs	r2, r2, r3
 1195 078a 1346     		mov	r3, r2
 1196 078c 4FEA0313 		lsl	r3, r3, #4
 1197 0790 9B1A     		subs	r3, r3, r2
 1198 0792 4FEA4303 		lsl	r3, r3, #1
 1199 0796 CA1A     		subs	r2, r1, r3
 1200 0798 D2B2     		uxtb	r2, r2
 1201 079a 40F20003 		movw	r3, #:lower16:sixtop_vars
 1202 079e C0F20003 		movt	r3, #:upper16:sixtop_vars
 1203 07a2 5A71     		strb	r2, [r3, #5]
 606:openstack/02b-MAChigh/sixtop.c ****    
 607:openstack/02b-MAChigh/sixtop.c ****    switch (sixtop_vars.mgtTaskCounter) {
 1204              		.loc 1 607 0
 1205 07a4 40F20003 		movw	r3, #:lower16:sixtop_vars
 1206 07a8 C0F20003 		movt	r3, #:upper16:sixtop_vars
 1207 07ac 5B79     		ldrb	r3, [r3, #5]	@ zero_extendqisi2
 1208 07ae 002B     		cmp	r3, #0
 1209 07b0 02D0     		beq	.L49
 1210 07b2 012B     		cmp	r3, #1
 1211 07b4 03D0     		beq	.L50
 1212 07b6 05E0     		b	.L52
 1213              	.L49:
 608:openstack/02b-MAChigh/sixtop.c ****       case 0:
 609:openstack/02b-MAChigh/sixtop.c ****          // called every ADVTIMEOUT seconds
 610:openstack/02b-MAChigh/sixtop.c ****          sixtop_sendEB();
 1214              		.loc 1 610 0
 1215 07b8 FFF7FEFF 		bl	sixtop_sendEB
 611:openstack/02b-MAChigh/sixtop.c ****          break;
 1216              		.loc 1 611 0
 1217 07bc 05E0     		b	.L47
 1218              	.L50:
 612:openstack/02b-MAChigh/sixtop.c ****       case 1:
 613:openstack/02b-MAChigh/sixtop.c ****          // called every ADVTIMEOUT seconds
 614:openstack/02b-MAChigh/sixtop.c ****          neighbors_removeOld();
 1219              		.loc 1 614 0
 1220 07be FFF7FEFF 		bl	neighbors_removeOld
 615:openstack/02b-MAChigh/sixtop.c ****          break;
 1221              		.loc 1 615 0
 1222 07c2 02E0     		b	.L47
 1223              	.L52:
 616:openstack/02b-MAChigh/sixtop.c ****       default:
 617:openstack/02b-MAChigh/sixtop.c ****          // called every second, except twice every ADVTIMEOUT seconds
 618:openstack/02b-MAChigh/sixtop.c ****          sixtop_sendKA();
 1224              		.loc 1 618 0
 1225 07c4 FFF7FEFF 		bl	sixtop_sendKA
 619:openstack/02b-MAChigh/sixtop.c ****          break;
 1226              		.loc 1 619 0
 1227 07c8 00BF     		nop
 1228              	.L47:
 620:openstack/02b-MAChigh/sixtop.c ****    }
 621:openstack/02b-MAChigh/sixtop.c **** }
 1229              		.loc 1 621 0
 1230 07ca 80BD     		pop	{r7, pc}
 1231              		.cfi_endproc
 1232              	.LFE12:
 1234              		.align	2
 1235              		.global	sixtop_sendEB
 1236              		.thumb
 1237              		.thumb_func
 1239              	sixtop_sendEB:
 1240              	.LFB13:
 622:openstack/02b-MAChigh/sixtop.c **** 
 623:openstack/02b-MAChigh/sixtop.c **** /**
 624:openstack/02b-MAChigh/sixtop.c **** \brief Send an advertisement.
 625:openstack/02b-MAChigh/sixtop.c **** 
 626:openstack/02b-MAChigh/sixtop.c **** This is one of the MAC management tasks. This function inlines in the
 627:openstack/02b-MAChigh/sixtop.c **** timers_res_fired() function, but is declared as a separate function for better
 628:openstack/02b-MAChigh/sixtop.c **** readability of the code.
 629:openstack/02b-MAChigh/sixtop.c **** */
 630:openstack/02b-MAChigh/sixtop.c **** port_INLINE void sixtop_sendEB() {
 1241              		.loc 1 630 0
 1242              		.cfi_startproc
 1243              		@ args = 0, pretend = 0, frame = 8
 1244              		@ frame_needed = 1, uses_anonymous_args = 0
 1245 07cc 80B5     		push	{r7, lr}
 1246              	.LCFI35:
 1247              		.cfi_def_cfa_offset 8
 1248              		.cfi_offset 7, -8
 1249              		.cfi_offset 14, -4
 1250 07ce 82B0     		sub	sp, sp, #8
 1251              	.LCFI36:
 1252              		.cfi_def_cfa_offset 16
 1253 07d0 00AF     		add	r7, sp, #0
 1254              	.LCFI37:
 1255              		.cfi_def_cfa_register 7
 631:openstack/02b-MAChigh/sixtop.c ****    OpenQueueEntry_t* adv;
 632:openstack/02b-MAChigh/sixtop.c ****    uint8_t len;
 633:openstack/02b-MAChigh/sixtop.c ****    
 634:openstack/02b-MAChigh/sixtop.c ****    len = 0;
 1256              		.loc 1 634 0
 1257 07d2 4FF00003 		mov	r3, #0
 1258 07d6 FB71     		strb	r3, [r7, #7]
 635:openstack/02b-MAChigh/sixtop.c ****    
 636:openstack/02b-MAChigh/sixtop.c ****    if (ieee154e_isSynch()==FALSE) {
 1259              		.loc 1 636 0
 1260 07d8 FFF7FEFF 		bl	ieee154e_isSynch
 1261 07dc 0346     		mov	r3, r0
 1262 07de 83F00103 		eor	r3, r3, #1
 1263 07e2 DBB2     		uxtb	r3, r3
 1264 07e4 002B     		cmp	r3, #0
 1265 07e6 0BD0     		beq	.L54
 637:openstack/02b-MAChigh/sixtop.c ****       // I'm not sync'ed
 638:openstack/02b-MAChigh/sixtop.c ****       
 639:openstack/02b-MAChigh/sixtop.c ****       // delete packets genereted by this module (ADV and KA) from openqueue
 640:openstack/02b-MAChigh/sixtop.c ****       openqueue_removeAllCreatedBy(COMPONENT_SIXTOP);
 1266              		.loc 1 640 0
 1267 07e8 4FF00C00 		mov	r0, #12
 1268 07ec FFF7FEFF 		bl	openqueue_removeAllCreatedBy
 641:openstack/02b-MAChigh/sixtop.c ****       
 642:openstack/02b-MAChigh/sixtop.c ****       // I'm now busy sending an ADV
 643:openstack/02b-MAChigh/sixtop.c ****       sixtop_vars.busySendingEB = FALSE;
 1269              		.loc 1 643 0
 1270 07f0 40F20003 		movw	r3, #:lower16:sixtop_vars
 1271 07f4 C0F20003 		movt	r3, #:upper16:sixtop_vars
 1272 07f8 4FF00002 		mov	r2, #0
 1273 07fc DA70     		strb	r2, [r3, #3]
 644:openstack/02b-MAChigh/sixtop.c ****       
 645:openstack/02b-MAChigh/sixtop.c ****       // stop here
 646:openstack/02b-MAChigh/sixtop.c ****       return;
 1274              		.loc 1 646 0
 1275 07fe 56E0     		b	.L53
 1276              	.L54:
 647:openstack/02b-MAChigh/sixtop.c ****    }
 648:openstack/02b-MAChigh/sixtop.c ****    
 649:openstack/02b-MAChigh/sixtop.c ****    if (sixtop_vars.busySendingEB==TRUE) {
 650:openstack/02b-MAChigh/sixtop.c ****       // don't continue if I'm still sending a previous ADV
 651:openstack/02b-MAChigh/sixtop.c ****    }
 652:openstack/02b-MAChigh/sixtop.c ****    
 653:openstack/02b-MAChigh/sixtop.c ****    // if I get here, I will send an ADV
 654:openstack/02b-MAChigh/sixtop.c ****    
 655:openstack/02b-MAChigh/sixtop.c ****    // get a free packet buffer
 656:openstack/02b-MAChigh/sixtop.c ****    adv = openqueue_getFreePacketBuffer(COMPONENT_SIXTOP);
 1277              		.loc 1 656 0
 1278 0800 4FF00C00 		mov	r0, #12
 1279 0804 FFF7FEFF 		bl	openqueue_getFreePacketBuffer
 1280 0808 3860     		str	r0, [r7, #0]
 657:openstack/02b-MAChigh/sixtop.c ****    if (adv==NULL) {
 1281              		.loc 1 657 0
 1282 080a 3B68     		ldr	r3, [r7, #0]
 1283 080c 002B     		cmp	r3, #0
 1284 080e 0AD1     		bne	.L56
 658:openstack/02b-MAChigh/sixtop.c ****       openserial_printError(COMPONENT_SIXTOP,ERR_NO_FREE_PACKET_BUFFER,
 1285              		.loc 1 658 0
 1286 0810 4FF00C00 		mov	r0, #12
 1287 0814 4FF02C01 		mov	r1, #44
 1288 0818 4FF00002 		mov	r2, #0
 1289 081c 4FF00003 		mov	r3, #0
 1290 0820 FFF7FEFF 		bl	openserial_printError
 659:openstack/02b-MAChigh/sixtop.c ****                             (errorparameter_t)0,
 660:openstack/02b-MAChigh/sixtop.c ****                             (errorparameter_t)0);
 661:openstack/02b-MAChigh/sixtop.c ****       return;
 1291              		.loc 1 661 0
 1292 0824 43E0     		b	.L53
 1293              	.L56:
 662:openstack/02b-MAChigh/sixtop.c ****    }
 663:openstack/02b-MAChigh/sixtop.c ****    
 664:openstack/02b-MAChigh/sixtop.c ****    // declare ownership over that packet
 665:openstack/02b-MAChigh/sixtop.c ****    adv->creator = COMPONENT_SIXTOP;
 1294              		.loc 1 665 0
 1295 0826 3B68     		ldr	r3, [r7, #0]
 1296 0828 4FF00C02 		mov	r2, #12
 1297 082c 1A70     		strb	r2, [r3, #0]
 666:openstack/02b-MAChigh/sixtop.c ****    adv->owner   = COMPONENT_SIXTOP;
 1298              		.loc 1 666 0
 1299 082e 3B68     		ldr	r3, [r7, #0]
 1300 0830 4FF00C02 		mov	r2, #12
 1301 0834 5A70     		strb	r2, [r3, #1]
 667:openstack/02b-MAChigh/sixtop.c ****    
 668:openstack/02b-MAChigh/sixtop.c ****    // reserve space for ADV-specific header
 669:openstack/02b-MAChigh/sixtop.c ****    // reserving for IEs.
 670:openstack/02b-MAChigh/sixtop.c ****    len += processIE_prependSlotframeLinkIE(adv);
 1302              		.loc 1 670 0
 1303 0836 3868     		ldr	r0, [r7, #0]
 1304 0838 FFF7FEFF 		bl	processIE_prependSlotframeLinkIE
 1305 083c 0346     		mov	r3, r0
 1306 083e 1A46     		mov	r2, r3
 1307 0840 FB79     		ldrb	r3, [r7, #7]
 1308 0842 D318     		adds	r3, r2, r3
 1309 0844 FB71     		strb	r3, [r7, #7]
 671:openstack/02b-MAChigh/sixtop.c ****    len += processIE_prependSyncIE(adv);
 1310              		.loc 1 671 0
 1311 0846 3868     		ldr	r0, [r7, #0]
 1312 0848 FFF7FEFF 		bl	processIE_prependSyncIE
 1313 084c 0346     		mov	r3, r0
 1314 084e 1A46     		mov	r2, r3
 1315 0850 FB79     		ldrb	r3, [r7, #7]
 1316 0852 D318     		adds	r3, r2, r3
 1317 0854 FB71     		strb	r3, [r7, #7]
 672:openstack/02b-MAChigh/sixtop.c ****    
 673:openstack/02b-MAChigh/sixtop.c ****    //add IE header 
 674:openstack/02b-MAChigh/sixtop.c ****    processIE_prependMLMEIE(adv,len);
 1318              		.loc 1 674 0
 1319 0856 FB79     		ldrb	r3, [r7, #7]	@ zero_extendqisi2
 1320 0858 3868     		ldr	r0, [r7, #0]
 1321 085a 1946     		mov	r1, r3
 1322 085c FFF7FEFF 		bl	processIE_prependMLMEIE
 675:openstack/02b-MAChigh/sixtop.c ****   
 676:openstack/02b-MAChigh/sixtop.c ****    // some l2 information about this packet
 677:openstack/02b-MAChigh/sixtop.c ****    adv->l2_frameType                     = IEEE154_TYPE_BEACON;
 1323              		.loc 1 677 0
 1324 0860 3B68     		ldr	r3, [r7, #0]
 1325 0862 4FF00002 		mov	r2, #0
 1326 0866 83F84920 		strb	r2, [r3, #73]
 678:openstack/02b-MAChigh/sixtop.c ****    adv->l2_nextORpreviousHop.type        = ADDR_16B;
 1327              		.loc 1 678 0
 1328 086a 3B68     		ldr	r3, [r7, #0]
 1329 086c 4FF00102 		mov	r2, #1
 1330 0870 83F83820 		strb	r2, [r3, #56]
 679:openstack/02b-MAChigh/sixtop.c ****    adv->l2_nextORpreviousHop.addr_16b[0] = 0xff;
 1331              		.loc 1 679 0
 1332 0874 3B68     		ldr	r3, [r7, #0]
 1333 0876 4FF0FF02 		mov	r2, #255
 1334 087a 83F83920 		strb	r2, [r3, #57]
 680:openstack/02b-MAChigh/sixtop.c ****    adv->l2_nextORpreviousHop.addr_16b[1] = 0xff;
 1335              		.loc 1 680 0
 1336 087e 3B68     		ldr	r3, [r7, #0]
 1337 0880 4FF0FF02 		mov	r2, #255
 1338 0884 83F83A20 		strb	r2, [r3, #58]
 681:openstack/02b-MAChigh/sixtop.c ****    
 682:openstack/02b-MAChigh/sixtop.c ****    //I has an IE in my payload
 683:openstack/02b-MAChigh/sixtop.c ****    adv->l2_IEListPresent = IEEE154_IELIST_YES;
 1339              		.loc 1 683 0
 1340 0888 3B68     		ldr	r3, [r7, #0]
 1341 088a 4FF00102 		mov	r2, #1
 1342 088e 83F86520 		strb	r2, [r3, #101]
 684:openstack/02b-MAChigh/sixtop.c ****    
 685:openstack/02b-MAChigh/sixtop.c ****    // put in queue for MAC to handle
 686:openstack/02b-MAChigh/sixtop.c ****    sixtop_send_internal(adv,IEEE154_IELIST_YES,IEEE154_FRAMEVERSION);
 1343              		.loc 1 686 0
 1344 0892 3868     		ldr	r0, [r7, #0]
 1345 0894 4FF00101 		mov	r1, #1
 1346 0898 4FF00202 		mov	r2, #2
 1347 089c FFF7FEFF 		bl	sixtop_send_internal
 687:openstack/02b-MAChigh/sixtop.c ****    
 688:openstack/02b-MAChigh/sixtop.c ****    // I'm now busy sending an ADV
 689:openstack/02b-MAChigh/sixtop.c ****    sixtop_vars.busySendingEB = TRUE;
 1348              		.loc 1 689 0
 1349 08a0 40F20003 		movw	r3, #:lower16:sixtop_vars
 1350 08a4 C0F20003 		movt	r3, #:upper16:sixtop_vars
 1351 08a8 4FF00102 		mov	r2, #1
 1352 08ac DA70     		strb	r2, [r3, #3]
 1353              	.L53:
 690:openstack/02b-MAChigh/sixtop.c **** }
 1354              		.loc 1 690 0
 1355 08ae 07F10807 		add	r7, r7, #8
 1356 08b2 BD46     		mov	sp, r7
 1357 08b4 80BD     		pop	{r7, pc}
 1358              		.cfi_endproc
 1359              	.LFE13:
 1361 08b6 00BF     		.align	2
 1362              		.global	sixtop_sendKA
 1363              		.thumb
 1364              		.thumb_func
 1366              	sixtop_sendKA:
 1367              	.LFB14:
 691:openstack/02b-MAChigh/sixtop.c **** 
 692:openstack/02b-MAChigh/sixtop.c **** /**
 693:openstack/02b-MAChigh/sixtop.c **** \brief Send an keep-alive message, if necessary.
 694:openstack/02b-MAChigh/sixtop.c **** 
 695:openstack/02b-MAChigh/sixtop.c **** This is one of the MAC management tasks. This function inlines in the
 696:openstack/02b-MAChigh/sixtop.c **** timers_res_fired() function, but is declared as a separate function for better
 697:openstack/02b-MAChigh/sixtop.c **** readability of the code.
 698:openstack/02b-MAChigh/sixtop.c **** */
 699:openstack/02b-MAChigh/sixtop.c **** port_INLINE void sixtop_sendKA() {
 1368              		.loc 1 699 0
 1369              		.cfi_startproc
 1370              		@ args = 0, pretend = 0, frame = 8
 1371              		@ frame_needed = 1, uses_anonymous_args = 0
 1372 08b8 80B5     		push	{r7, lr}
 1373              	.LCFI38:
 1374              		.cfi_def_cfa_offset 8
 1375              		.cfi_offset 7, -8
 1376              		.cfi_offset 14, -4
 1377 08ba 82B0     		sub	sp, sp, #8
 1378              	.LCFI39:
 1379              		.cfi_def_cfa_offset 16
 1380 08bc 00AF     		add	r7, sp, #0
 1381              	.LCFI40:
 1382              		.cfi_def_cfa_register 7
 700:openstack/02b-MAChigh/sixtop.c ****    OpenQueueEntry_t* kaPkt;
 701:openstack/02b-MAChigh/sixtop.c ****    open_addr_t*      kaNeighAddr;
 702:openstack/02b-MAChigh/sixtop.c ****    
 703:openstack/02b-MAChigh/sixtop.c ****    if (ieee154e_isSynch()==FALSE) {
 1383              		.loc 1 703 0
 1384 08be FFF7FEFF 		bl	ieee154e_isSynch
 1385 08c2 0346     		mov	r3, r0
 1386 08c4 83F00103 		eor	r3, r3, #1
 1387 08c8 DBB2     		uxtb	r3, r3
 1388 08ca 002B     		cmp	r3, #0
 1389 08cc 0BD0     		beq	.L58
 704:openstack/02b-MAChigh/sixtop.c ****       // I'm not sync'ed
 705:openstack/02b-MAChigh/sixtop.c ****       
 706:openstack/02b-MAChigh/sixtop.c ****       // delete packets genereted by this module (ADV and KA) from openqueue
 707:openstack/02b-MAChigh/sixtop.c ****       openqueue_removeAllCreatedBy(COMPONENT_SIXTOP);
 1390              		.loc 1 707 0
 1391 08ce 4FF00C00 		mov	r0, #12
 1392 08d2 FFF7FEFF 		bl	openqueue_removeAllCreatedBy
 708:openstack/02b-MAChigh/sixtop.c ****       
 709:openstack/02b-MAChigh/sixtop.c ****       // I'm now busy sending a KA
 710:openstack/02b-MAChigh/sixtop.c ****       sixtop_vars.busySendingKA = FALSE;
 1393              		.loc 1 710 0
 1394 08d6 40F20003 		movw	r3, #:lower16:sixtop_vars
 1395 08da C0F20003 		movt	r3, #:upper16:sixtop_vars
 1396 08de 4FF00002 		mov	r2, #0
 1397 08e2 9A70     		strb	r2, [r3, #2]
 711:openstack/02b-MAChigh/sixtop.c ****       
 712:openstack/02b-MAChigh/sixtop.c ****       // stop here
 713:openstack/02b-MAChigh/sixtop.c ****       return;
 1398              		.loc 1 713 0
 1399 08e4 4DE0     		b	.L57
 1400              	.L58:
 714:openstack/02b-MAChigh/sixtop.c ****    }
 715:openstack/02b-MAChigh/sixtop.c ****    
 716:openstack/02b-MAChigh/sixtop.c ****    if (sixtop_vars.busySendingKA==TRUE) {
 1401              		.loc 1 716 0
 1402 08e6 40F20003 		movw	r3, #:lower16:sixtop_vars
 1403 08ea C0F20003 		movt	r3, #:upper16:sixtop_vars
 1404 08ee 9B78     		ldrb	r3, [r3, #2]	@ zero_extendqisi2
 1405 08f0 002B     		cmp	r3, #0
 1406 08f2 43D1     		bne	.L63
 1407              	.L60:
 717:openstack/02b-MAChigh/sixtop.c ****       // don't proceed if I'm still sending a KA
 718:openstack/02b-MAChigh/sixtop.c ****       return;
 719:openstack/02b-MAChigh/sixtop.c ****    }
 720:openstack/02b-MAChigh/sixtop.c ****    
 721:openstack/02b-MAChigh/sixtop.c ****    kaNeighAddr = neighbors_getKANeighbor(sixtop_vars.kaPeriod);
 1408              		.loc 1 721 0
 1409 08f4 40F20003 		movw	r3, #:lower16:sixtop_vars
 1410 08f8 C0F20003 		movt	r3, #:upper16:sixtop_vars
 1411 08fc 1B89     		ldrh	r3, [r3, #8]
 1412 08fe 1846     		mov	r0, r3
 1413 0900 FFF7FEFF 		bl	neighbors_getKANeighbor
 1414 0904 7860     		str	r0, [r7, #4]
 722:openstack/02b-MAChigh/sixtop.c ****    if (kaNeighAddr==NULL) {
 1415              		.loc 1 722 0
 1416 0906 7B68     		ldr	r3, [r7, #4]
 1417 0908 002B     		cmp	r3, #0
 1418 090a 39D0     		beq	.L64
 1419              	.L61:
 723:openstack/02b-MAChigh/sixtop.c ****       // don't proceed if I have no neighbor I need to send a KA to
 724:openstack/02b-MAChigh/sixtop.c ****       return;
 725:openstack/02b-MAChigh/sixtop.c ****    }
 726:openstack/02b-MAChigh/sixtop.c ****    
 727:openstack/02b-MAChigh/sixtop.c ****    // if I get here, I will send a KA
 728:openstack/02b-MAChigh/sixtop.c ****    
 729:openstack/02b-MAChigh/sixtop.c ****    // get a free packet buffer
 730:openstack/02b-MAChigh/sixtop.c ****    kaPkt = openqueue_getFreePacketBuffer(COMPONENT_SIXTOP);
 1420              		.loc 1 730 0
 1421 090c 4FF00C00 		mov	r0, #12
 1422 0910 FFF7FEFF 		bl	openqueue_getFreePacketBuffer
 1423 0914 3860     		str	r0, [r7, #0]
 731:openstack/02b-MAChigh/sixtop.c ****    if (kaPkt==NULL) {
 1424              		.loc 1 731 0
 1425 0916 3B68     		ldr	r3, [r7, #0]
 1426 0918 002B     		cmp	r3, #0
 1427 091a 0AD1     		bne	.L62
 732:openstack/02b-MAChigh/sixtop.c ****       openserial_printError(COMPONENT_SIXTOP,ERR_NO_FREE_PACKET_BUFFER,
 1428              		.loc 1 732 0
 1429 091c 4FF00C00 		mov	r0, #12
 1430 0920 4FF02C01 		mov	r1, #44
 1431 0924 4FF00102 		mov	r2, #1
 1432 0928 4FF00003 		mov	r3, #0
 1433 092c FFF7FEFF 		bl	openserial_printError
 733:openstack/02b-MAChigh/sixtop.c ****                             (errorparameter_t)1,
 734:openstack/02b-MAChigh/sixtop.c ****                             (errorparameter_t)0);
 735:openstack/02b-MAChigh/sixtop.c ****       return;
 1434              		.loc 1 735 0
 1435 0930 27E0     		b	.L57
 1436              	.L62:
 736:openstack/02b-MAChigh/sixtop.c ****    }
 737:openstack/02b-MAChigh/sixtop.c ****    
 738:openstack/02b-MAChigh/sixtop.c ****    // declare ownership over that packet
 739:openstack/02b-MAChigh/sixtop.c ****    kaPkt->creator = COMPONENT_SIXTOP;
 1437              		.loc 1 739 0
 1438 0932 3B68     		ldr	r3, [r7, #0]
 1439 0934 4FF00C02 		mov	r2, #12
 1440 0938 1A70     		strb	r2, [r3, #0]
 740:openstack/02b-MAChigh/sixtop.c ****    kaPkt->owner   = COMPONENT_SIXTOP;
 1441              		.loc 1 740 0
 1442 093a 3B68     		ldr	r3, [r7, #0]
 1443 093c 4FF00C02 		mov	r2, #12
 1444 0940 5A70     		strb	r2, [r3, #1]
 741:openstack/02b-MAChigh/sixtop.c ****    
 742:openstack/02b-MAChigh/sixtop.c ****    // some l2 information about this packet
 743:openstack/02b-MAChigh/sixtop.c ****    kaPkt->l2_frameType = IEEE154_TYPE_DATA;
 1445              		.loc 1 743 0
 1446 0942 3B68     		ldr	r3, [r7, #0]
 1447 0944 4FF00102 		mov	r2, #1
 1448 0948 83F84920 		strb	r2, [r3, #73]
 744:openstack/02b-MAChigh/sixtop.c ****    memcpy(&(kaPkt->l2_nextORpreviousHop),kaNeighAddr,sizeof(open_addr_t));
 1449              		.loc 1 744 0
 1450 094c 3B68     		ldr	r3, [r7, #0]
 1451 094e 03F13803 		add	r3, r3, #56
 1452 0952 1846     		mov	r0, r3
 1453 0954 7968     		ldr	r1, [r7, #4]
 1454 0956 4FF01102 		mov	r2, #17
 1455 095a FFF7FEFF 		bl	memcpy
 745:openstack/02b-MAChigh/sixtop.c ****    
 746:openstack/02b-MAChigh/sixtop.c ****    // put in queue for MAC to handle
 747:openstack/02b-MAChigh/sixtop.c ****    sixtop_send_internal(kaPkt,IEEE154_IELIST_NO,IEEE154_FRAMEVERSION_2006);
 1456              		.loc 1 747 0
 1457 095e 3868     		ldr	r0, [r7, #0]
 1458 0960 4FF00001 		mov	r1, #0
 1459 0964 4FF00102 		mov	r2, #1
 1460 0968 FFF7FEFF 		bl	sixtop_send_internal
 748:openstack/02b-MAChigh/sixtop.c ****    
 749:openstack/02b-MAChigh/sixtop.c ****    // I'm now busy sending a KA
 750:openstack/02b-MAChigh/sixtop.c ****    sixtop_vars.busySendingKA = TRUE;
 1461              		.loc 1 750 0
 1462 096c 40F20003 		movw	r3, #:lower16:sixtop_vars
 1463 0970 C0F20003 		movt	r3, #:upper16:sixtop_vars
 1464 0974 4FF00102 		mov	r2, #1
 1465 0978 9A70     		strb	r2, [r3, #2]
 1466 097a 02E0     		b	.L57
 1467              	.L63:
 718:openstack/02b-MAChigh/sixtop.c ****       return;
 1468              		.loc 1 718 0
 1469 097c 00BF     		nop
 1470 097e 00E0     		b	.L57
 1471              	.L64:
 724:openstack/02b-MAChigh/sixtop.c ****       return;
 1472              		.loc 1 724 0
 1473 0980 00BF     		nop
 1474              	.L57:
 751:openstack/02b-MAChigh/sixtop.c **** 
 752:openstack/02b-MAChigh/sixtop.c **** #ifdef OPENSIM
 753:openstack/02b-MAChigh/sixtop.c ****    debugpins_ka_set();
 754:openstack/02b-MAChigh/sixtop.c ****    debugpins_ka_clr();
 755:openstack/02b-MAChigh/sixtop.c **** #endif
 756:openstack/02b-MAChigh/sixtop.c **** }
 1475              		.loc 1 756 0
 1476 0982 07F10807 		add	r7, r7, #8
 1477 0986 BD46     		mov	sp, r7
 1478 0988 80BD     		pop	{r7, pc}
 1479              		.cfi_endproc
 1480              	.LFE14:
 1482 098a 00BF     		.align	2
 1483              		.global	timer_sixtop_six2six_timeout_fired
 1484              		.thumb
 1485              		.thumb_func
 1487              	timer_sixtop_six2six_timeout_fired:
 1488              	.LFB15:
 757:openstack/02b-MAChigh/sixtop.c **** 
 758:openstack/02b-MAChigh/sixtop.c **** //======= six2six task
 759:openstack/02b-MAChigh/sixtop.c **** 
 760:openstack/02b-MAChigh/sixtop.c **** void timer_sixtop_six2six_timeout_fired(void) {
 1489              		.loc 1 760 0
 1490              		.cfi_startproc
 1491              		@ args = 0, pretend = 0, frame = 0
 1492              		@ frame_needed = 1, uses_anonymous_args = 0
 1493              		@ link register save eliminated.
 1494 098c 80B4     		push	{r7}
 1495              	.LCFI41:
 1496              		.cfi_def_cfa_offset 4
 1497              		.cfi_offset 7, -4
 1498 098e 00AF     		add	r7, sp, #0
 1499              	.LCFI42:
 1500              		.cfi_def_cfa_register 7
 761:openstack/02b-MAChigh/sixtop.c ****    // timeout timer fired, reset the state of sixtop to idle
 762:openstack/02b-MAChigh/sixtop.c ****    sixtop_vars.six2six_state = SIX_IDLE;
 1501              		.loc 1 762 0
 1502 0990 40F20003 		movw	r3, #:lower16:sixtop_vars
 1503 0994 C0F20003 		movt	r3, #:upper16:sixtop_vars
 1504 0998 4FF00002 		mov	r2, #0
 1505 099c 9A72     		strb	r2, [r3, #10]
 763:openstack/02b-MAChigh/sixtop.c **** }
 1506              		.loc 1 763 0
 1507 099e BD46     		mov	sp, r7
 1508 09a0 80BC     		pop	{r7}
 1509 09a2 7047     		bx	lr
 1510              		.cfi_endproc
 1511              	.LFE15:
 1513              		.align	2
 1514              		.global	sixtop_six2six_sendDone
 1515              		.thumb
 1516              		.thumb_func
 1518              	sixtop_six2six_sendDone:
 1519              	.LFB16:
 764:openstack/02b-MAChigh/sixtop.c **** 
 765:openstack/02b-MAChigh/sixtop.c **** void sixtop_six2six_sendDone(OpenQueueEntry_t* msg, owerror_t error){
 1520              		.loc 1 765 0
 1521              		.cfi_startproc
 1522              		@ args = 0, pretend = 0, frame = 32
 1523              		@ frame_needed = 1, uses_anonymous_args = 0
 1524 09a4 80B5     		push	{r7, lr}
 1525              	.LCFI43:
 1526              		.cfi_def_cfa_offset 8
 1527              		.cfi_offset 7, -8
 1528              		.cfi_offset 14, -4
 1529 09a6 88B0     		sub	sp, sp, #32
 1530              	.LCFI44:
 1531              		.cfi_def_cfa_offset 40
 1532 09a8 00AF     		add	r7, sp, #0
 1533              	.LCFI45:
 1534              		.cfi_def_cfa_register 7
 1535 09aa 7860     		str	r0, [r7, #4]
 1536 09ac 0B46     		mov	r3, r1
 1537 09ae FB70     		strb	r3, [r7, #3]
 766:openstack/02b-MAChigh/sixtop.c ****    uint8_t i,numOfCells;
 767:openstack/02b-MAChigh/sixtop.c ****    uint8_t* ptr;
 768:openstack/02b-MAChigh/sixtop.c ****    cellInfo_ht cellList[SCHEDULEIEMAXNUMCELLS];
 769:openstack/02b-MAChigh/sixtop.c ****    
 770:openstack/02b-MAChigh/sixtop.c ****    memset(cellList,0,SCHEDULEIEMAXNUMCELLS*sizeof(cellInfo_ht));
 1538              		.loc 1 770 0
 1539 09b0 07F10803 		add	r3, r7, #8
 1540 09b4 1846     		mov	r0, r3
 1541 09b6 4FF00001 		mov	r1, #0
 1542 09ba 4FF00F02 		mov	r2, #15
 1543 09be FFF7FEFF 		bl	memset
 771:openstack/02b-MAChigh/sixtop.c ****   
 772:openstack/02b-MAChigh/sixtop.c ****    ptr = msg->l2_scheduleIE_cellObjects;
 1544              		.loc 1 772 0
 1545 09c2 7B68     		ldr	r3, [r7, #4]
 1546 09c4 9B6D     		ldr	r3, [r3, #88]
 1547 09c6 BB61     		str	r3, [r7, #24]
 773:openstack/02b-MAChigh/sixtop.c ****    numOfCells = msg->l2_scheduleIE_numOfCells;
 1548              		.loc 1 773 0
 1549 09c8 7B68     		ldr	r3, [r7, #4]
 1550 09ca 93F85C30 		ldrb	r3, [r3, #92]
 1551 09ce FB75     		strb	r3, [r7, #23]
 774:openstack/02b-MAChigh/sixtop.c ****    msg->owner = COMPONENT_SIXTOP_RES;
 1552              		.loc 1 774 0
 1553 09d0 7B68     		ldr	r3, [r7, #4]
 1554 09d2 4FF00F02 		mov	r2, #15
 1555 09d6 5A70     		strb	r2, [r3, #1]
 775:openstack/02b-MAChigh/sixtop.c ****   
 776:openstack/02b-MAChigh/sixtop.c ****    if(error == E_FAIL) {
 1556              		.loc 1 776 0
 1557 09d8 FB78     		ldrb	r3, [r7, #3]	@ zero_extendqisi2
 1558 09da 012B     		cmp	r3, #1
 1559 09dc 0AD1     		bne	.L67
 777:openstack/02b-MAChigh/sixtop.c ****       sixtop_vars.six2six_state = SIX_IDLE;
 1560              		.loc 1 777 0
 1561 09de 40F20003 		movw	r3, #:lower16:sixtop_vars
 1562 09e2 C0F20003 		movt	r3, #:upper16:sixtop_vars
 1563 09e6 4FF00002 		mov	r2, #0
 1564 09ea 9A72     		strb	r2, [r3, #10]
 778:openstack/02b-MAChigh/sixtop.c ****       openqueue_freePacketBuffer(msg);
 1565              		.loc 1 778 0
 1566 09ec 7868     		ldr	r0, [r7, #4]
 1567 09ee FFF7FEFF 		bl	openqueue_freePacketBuffer
 1568 09f2 BCE0     		b	.L66
 1569              	.L67:
 779:openstack/02b-MAChigh/sixtop.c ****       return;
 780:openstack/02b-MAChigh/sixtop.c ****    }
 781:openstack/02b-MAChigh/sixtop.c **** 
 782:openstack/02b-MAChigh/sixtop.c ****    switch (sixtop_vars.six2six_state) {
 1570              		.loc 1 782 0
 1571 09f4 40F20003 		movw	r3, #:lower16:sixtop_vars
 1572 09f8 C0F20003 		movt	r3, #:upper16:sixtop_vars
 1573 09fc 9B7A     		ldrb	r3, [r3, #10]	@ zero_extendqisi2
 1574 09fe 072B     		cmp	r3, #7
 1575 0a00 0CD0     		beq	.L71
 1576 0a02 092B     		cmp	r3, #9
 1577 0a04 14D0     		beq	.L72
 1578 0a06 022B     		cmp	r3, #2
 1579 0a08 40F0AD80 		bne	.L77
 1580              	.L70:
 783:openstack/02b-MAChigh/sixtop.c ****       case SIX_WAIT_ADDREQUEST_SENDDONE:
 784:openstack/02b-MAChigh/sixtop.c ****          sixtop_vars.six2six_state = SIX_WAIT_ADDRESPONSE;
 1581              		.loc 1 784 0
 1582 0a0c 40F20003 		movw	r3, #:lower16:sixtop_vars
 1583 0a10 C0F20003 		movt	r3, #:upper16:sixtop_vars
 1584 0a14 4FF00302 		mov	r2, #3
 1585 0a18 9A72     		strb	r2, [r3, #10]
 785:openstack/02b-MAChigh/sixtop.c ****          break;
 1586              		.loc 1 785 0
 1587 0a1a A5E0     		b	.L73
 1588              	.L71:
 786:openstack/02b-MAChigh/sixtop.c ****       case SIX_WAIT_ADDRESPONSE_SENDDONE:
 787:openstack/02b-MAChigh/sixtop.c ****          
 788:openstack/02b-MAChigh/sixtop.c ****          sixtop_vars.six2six_state = SIX_IDLE;
 1589              		.loc 1 788 0
 1590 0a1c 40F20003 		movw	r3, #:lower16:sixtop_vars
 1591 0a20 C0F20003 		movt	r3, #:upper16:sixtop_vars
 1592 0a24 4FF00002 		mov	r2, #0
 1593 0a28 9A72     		strb	r2, [r3, #10]
 789:openstack/02b-MAChigh/sixtop.c ****          
 790:openstack/02b-MAChigh/sixtop.c ****          // notify OTF
 791:openstack/02b-MAChigh/sixtop.c ****          otf_notif_addedCell();
 1594              		.loc 1 791 0
 1595 0a2a FFF7FEFF 		bl	otf_notif_addedCell
 792:openstack/02b-MAChigh/sixtop.c ****          
 793:openstack/02b-MAChigh/sixtop.c ****          break;
 1596              		.loc 1 793 0
 1597 0a2e 9BE0     		b	.L73
 1598              	.L72:
 794:openstack/02b-MAChigh/sixtop.c ****       case SIX_WAIT_REMOVEREQUEST_SENDDONE:
 795:openstack/02b-MAChigh/sixtop.c ****          if(error == E_SUCCESS && numOfCells > 0){
 1599              		.loc 1 795 0
 1600 0a30 FB78     		ldrb	r3, [r7, #3]	@ zero_extendqisi2
 1601 0a32 002B     		cmp	r3, #0
 1602 0a34 40F08D80 		bne	.L74
 1603              		.loc 1 795 0 is_stmt 0 discriminator 1
 1604 0a38 FB7D     		ldrb	r3, [r7, #23]	@ zero_extendqisi2
 1605 0a3a 002B     		cmp	r3, #0
 1606 0a3c 00F08980 		beq	.L74
 796:openstack/02b-MAChigh/sixtop.c ****             for (i=0;i<numOfCells;i++){
 1607              		.loc 1 796 0 is_stmt 1
 1608 0a40 4FF00003 		mov	r3, #0
 1609 0a44 FB77     		strb	r3, [r7, #31]
 1610 0a46 75E0     		b	.L75
 1611              	.L76:
 797:openstack/02b-MAChigh/sixtop.c ****                //TimeSlot 2B
 798:openstack/02b-MAChigh/sixtop.c ****                cellList[i].tsNum       = (*(ptr))<<8;
 1612              		.loc 1 798 0 discriminator 2
 1613 0a48 FA7F     		ldrb	r2, [r7, #31]	@ zero_extendqisi2
 1614 0a4a BB69     		ldr	r3, [r7, #24]
 1615 0a4c 1B78     		ldrb	r3, [r3, #0]	@ zero_extendqisi2
 1616 0a4e 4FEA0323 		lsl	r3, r3, #8
 1617 0a52 99B2     		uxth	r1, r3
 1618 0a54 1346     		mov	r3, r2
 1619 0a56 4FEA8303 		lsl	r3, r3, #2
 1620 0a5a 9B18     		adds	r3, r3, r2
 1621 0a5c 07F12002 		add	r2, r7, #32
 1622 0a60 D318     		adds	r3, r2, r3
 1623 0a62 A3F11803 		sub	r3, r3, #24
 1624 0a66 0A46     		mov	r2, r1	@ movhi
 1625 0a68 1A80     		strh	r2, [r3, #0]	@ unaligned
 799:openstack/02b-MAChigh/sixtop.c ****                cellList[i].tsNum      |= *(ptr+1);
 1626              		.loc 1 799 0 discriminator 2
 1627 0a6a FA7F     		ldrb	r2, [r7, #31]	@ zero_extendqisi2
 1628 0a6c F97F     		ldrb	r1, [r7, #31]	@ zero_extendqisi2
 1629 0a6e 0B46     		mov	r3, r1
 1630 0a70 4FEA8303 		lsl	r3, r3, #2
 1631 0a74 5B18     		adds	r3, r3, r1
 1632 0a76 07F12001 		add	r1, r7, #32
 1633 0a7a CB18     		adds	r3, r1, r3
 1634 0a7c A3F11803 		sub	r3, r3, #24
 1635 0a80 1B88     		ldrh	r3, [r3, #0]	@ unaligned
 1636 0a82 99B2     		uxth	r1, r3
 1637 0a84 BB69     		ldr	r3, [r7, #24]
 1638 0a86 03F10103 		add	r3, r3, #1
 1639 0a8a 1B78     		ldrb	r3, [r3, #0]	@ zero_extendqisi2
 1640 0a8c 0B43     		orrs	r3, r3, r1
 1641 0a8e 99B2     		uxth	r1, r3
 1642 0a90 1346     		mov	r3, r2
 1643 0a92 4FEA8303 		lsl	r3, r3, #2
 1644 0a96 9B18     		adds	r3, r3, r2
 1645 0a98 07F12002 		add	r2, r7, #32
 1646 0a9c D318     		adds	r3, r2, r3
 1647 0a9e A3F11803 		sub	r3, r3, #24
 1648 0aa2 0A46     		mov	r2, r1	@ movhi
 1649 0aa4 1A80     		strh	r2, [r3, #0]	@ unaligned
 800:openstack/02b-MAChigh/sixtop.c ****                //Ch.Offset 2B
 801:openstack/02b-MAChigh/sixtop.c ****                cellList[i].choffset    = (*(ptr+2))<<8;
 1650              		.loc 1 801 0 discriminator 2
 1651 0aa6 FA7F     		ldrb	r2, [r7, #31]	@ zero_extendqisi2
 1652 0aa8 BB69     		ldr	r3, [r7, #24]
 1653 0aaa 03F10203 		add	r3, r3, #2
 1654 0aae 1B78     		ldrb	r3, [r3, #0]	@ zero_extendqisi2
 1655 0ab0 4FEA0323 		lsl	r3, r3, #8
 1656 0ab4 99B2     		uxth	r1, r3
 1657 0ab6 1346     		mov	r3, r2
 1658 0ab8 4FEA8303 		lsl	r3, r3, #2
 1659 0abc 9B18     		adds	r3, r3, r2
 1660 0abe 07F12002 		add	r2, r7, #32
 1661 0ac2 D318     		adds	r3, r2, r3
 1662 0ac4 A3F11803 		sub	r3, r3, #24
 1663 0ac8 0A46     		mov	r2, r1	@ movhi
 1664 0aca 5A80     		strh	r2, [r3, #2]	@ unaligned
 802:openstack/02b-MAChigh/sixtop.c ****                cellList[i].choffset   |= *(ptr+3);
 1665              		.loc 1 802 0 discriminator 2
 1666 0acc FA7F     		ldrb	r2, [r7, #31]	@ zero_extendqisi2
 1667 0ace F97F     		ldrb	r1, [r7, #31]	@ zero_extendqisi2
 1668 0ad0 0B46     		mov	r3, r1
 1669 0ad2 4FEA8303 		lsl	r3, r3, #2
 1670 0ad6 5B18     		adds	r3, r3, r1
 1671 0ad8 07F12001 		add	r1, r7, #32
 1672 0adc CB18     		adds	r3, r1, r3
 1673 0ade A3F11803 		sub	r3, r3, #24
 1674 0ae2 5B88     		ldrh	r3, [r3, #2]	@ unaligned
 1675 0ae4 99B2     		uxth	r1, r3
 1676 0ae6 BB69     		ldr	r3, [r7, #24]
 1677 0ae8 03F10303 		add	r3, r3, #3
 1678 0aec 1B78     		ldrb	r3, [r3, #0]	@ zero_extendqisi2
 1679 0aee 0B43     		orrs	r3, r3, r1
 1680 0af0 99B2     		uxth	r1, r3
 1681 0af2 1346     		mov	r3, r2
 1682 0af4 4FEA8303 		lsl	r3, r3, #2
 1683 0af8 9B18     		adds	r3, r3, r2
 1684 0afa 07F12002 		add	r2, r7, #32
 1685 0afe D318     		adds	r3, r2, r3
 1686 0b00 A3F11803 		sub	r3, r3, #24
 1687 0b04 0A46     		mov	r2, r1	@ movhi
 1688 0b06 5A80     		strh	r2, [r3, #2]	@ unaligned
 803:openstack/02b-MAChigh/sixtop.c ****                //LinkOption bitmap 1B
 804:openstack/02b-MAChigh/sixtop.c ****                cellList[i].linkoptions = *(ptr+4);
 1689              		.loc 1 804 0 discriminator 2
 1690 0b08 FA7F     		ldrb	r2, [r7, #31]	@ zero_extendqisi2
 1691 0b0a BB69     		ldr	r3, [r7, #24]
 1692 0b0c 1979     		ldrb	r1, [r3, #4]	@ zero_extendqisi2
 1693 0b0e 1346     		mov	r3, r2
 1694 0b10 4FEA8303 		lsl	r3, r3, #2
 1695 0b14 9B18     		adds	r3, r3, r2
 1696 0b16 07F12002 		add	r2, r7, #32
 1697 0b1a D318     		adds	r3, r2, r3
 1698 0b1c A3F11803 		sub	r3, r3, #24
 1699 0b20 0A46     		mov	r2, r1
 1700 0b22 1A71     		strb	r2, [r3, #4]
 805:openstack/02b-MAChigh/sixtop.c ****                ptr += 5;
 1701              		.loc 1 805 0 discriminator 2
 1702 0b24 BB69     		ldr	r3, [r7, #24]
 1703 0b26 03F10503 		add	r3, r3, #5
 1704 0b2a BB61     		str	r3, [r7, #24]
 796:openstack/02b-MAChigh/sixtop.c ****             for (i=0;i<numOfCells;i++){
 1705              		.loc 1 796 0 discriminator 2
 1706 0b2c FB7F     		ldrb	r3, [r7, #31]
 1707 0b2e 03F10103 		add	r3, r3, #1
 1708 0b32 FB77     		strb	r3, [r7, #31]
 1709              	.L75:
 796:openstack/02b-MAChigh/sixtop.c ****             for (i=0;i<numOfCells;i++){
 1710              		.loc 1 796 0 is_stmt 0 discriminator 1
 1711 0b34 FA7F     		ldrb	r2, [r7, #31]	@ zero_extendqisi2
 1712 0b36 FB7D     		ldrb	r3, [r7, #23]	@ zero_extendqisi2
 1713 0b38 9A42     		cmp	r2, r3
 1714 0b3a 85D3     		bcc	.L76
 806:openstack/02b-MAChigh/sixtop.c ****             }
 807:openstack/02b-MAChigh/sixtop.c ****             sixtop_removeCellsByState(
 808:openstack/02b-MAChigh/sixtop.c ****                msg->l2_scheduleIE_frameID,
 1715              		.loc 1 808 0 is_stmt 1
 1716 0b3c 7B68     		ldr	r3, [r7, #4]
 807:openstack/02b-MAChigh/sixtop.c ****             sixtop_removeCellsByState(
 1717              		.loc 1 807 0
 1718 0b3e 93F85D00 		ldrb	r0, [r3, #93]	@ zero_extendqisi2
 1719 0b42 7B68     		ldr	r3, [r7, #4]
 1720 0b44 03F13803 		add	r3, r3, #56
 1721 0b48 F97D     		ldrb	r1, [r7, #23]	@ zero_extendqisi2
 809:openstack/02b-MAChigh/sixtop.c ****                numOfCells,
 810:openstack/02b-MAChigh/sixtop.c ****                cellList,
 1722              		.loc 1 810 0
 1723 0b4a 07F10802 		add	r2, r7, #8
 807:openstack/02b-MAChigh/sixtop.c ****             sixtop_removeCellsByState(
 1724              		.loc 1 807 0
 1725 0b4e FFF7FEFF 		bl	sixtop_removeCellsByState
 1726              	.L74:
 811:openstack/02b-MAChigh/sixtop.c ****                &(msg->l2_nextORpreviousHop)
 812:openstack/02b-MAChigh/sixtop.c ****             );
 813:openstack/02b-MAChigh/sixtop.c ****          }
 814:openstack/02b-MAChigh/sixtop.c ****          sixtop_vars.six2six_state = SIX_IDLE;
 1727              		.loc 1 814 0
 1728 0b52 40F20003 		movw	r3, #:lower16:sixtop_vars
 1729 0b56 C0F20003 		movt	r3, #:upper16:sixtop_vars
 1730 0b5a 4FF00002 		mov	r2, #0
 1731 0b5e 9A72     		strb	r2, [r3, #10]
 815:openstack/02b-MAChigh/sixtop.c ****          leds_debug_off();
 1732              		.loc 1 815 0
 1733 0b60 FFF7FEFF 		bl	leds_debug_off
 816:openstack/02b-MAChigh/sixtop.c ****          break;
 1734              		.loc 1 816 0
 1735 0b64 00E0     		b	.L73
 1736              	.L77:
 817:openstack/02b-MAChigh/sixtop.c ****       default:
 818:openstack/02b-MAChigh/sixtop.c ****          //log error
 819:openstack/02b-MAChigh/sixtop.c ****          break;
 1737              		.loc 1 819 0
 1738 0b66 00BF     		nop
 1739              	.L73:
 820:openstack/02b-MAChigh/sixtop.c ****    }
 821:openstack/02b-MAChigh/sixtop.c ****   
 822:openstack/02b-MAChigh/sixtop.c ****    // discard reservation packets this component has created
 823:openstack/02b-MAChigh/sixtop.c ****    openqueue_freePacketBuffer(msg);
 1740              		.loc 1 823 0
 1741 0b68 7868     		ldr	r0, [r7, #4]
 1742 0b6a FFF7FEFF 		bl	openqueue_freePacketBuffer
 1743              	.L66:
 824:openstack/02b-MAChigh/sixtop.c **** }
 1744              		.loc 1 824 0
 1745 0b6e 07F12007 		add	r7, r7, #32
 1746 0b72 BD46     		mov	sp, r7
 1747 0b74 80BD     		pop	{r7, pc}
 1748              		.cfi_endproc
 1749              	.LFE16:
 1751 0b76 00BF     		.align	2
 1752              		.global	sixtop_processIEs
 1753              		.thumb
 1754              		.thumb_func
 1756              	sixtop_processIEs:
 1757              	.LFB17:
 825:openstack/02b-MAChigh/sixtop.c **** 
 826:openstack/02b-MAChigh/sixtop.c **** port_INLINE bool sixtop_processIEs(OpenQueueEntry_t* pkt, uint16_t * lenIE) {
 1758              		.loc 1 826 0
 1759              		.cfi_startproc
 1760              		@ args = 0, pretend = 0, frame = 48
 1761              		@ frame_needed = 1, uses_anonymous_args = 0
 1762 0b78 80B5     		push	{r7, lr}
 1763              	.LCFI46:
 1764              		.cfi_def_cfa_offset 8
 1765              		.cfi_offset 7, -8
 1766              		.cfi_offset 14, -4
 1767 0b7a 8CB0     		sub	sp, sp, #48
 1768              	.LCFI47:
 1769              		.cfi_def_cfa_offset 56
 1770 0b7c 00AF     		add	r7, sp, #0
 1771              	.LCFI48:
 1772              		.cfi_def_cfa_register 7
 1773 0b7e 7860     		str	r0, [r7, #4]
 1774 0b80 3960     		str	r1, [r7, #0]
 827:openstack/02b-MAChigh/sixtop.c ****    uint8_t ptr;
 828:openstack/02b-MAChigh/sixtop.c ****    uint8_t temp_8b,gr_elem_id,subid;
 829:openstack/02b-MAChigh/sixtop.c ****    uint16_t temp_16b,len,sublen;
 830:openstack/02b-MAChigh/sixtop.c ****    opcode_IE_ht opcode_ie;
 831:openstack/02b-MAChigh/sixtop.c ****    bandwidth_IE_ht bandwidth_ie;
 832:openstack/02b-MAChigh/sixtop.c ****    schedule_IE_ht schedule_ie;
 833:openstack/02b-MAChigh/sixtop.c ****  
 834:openstack/02b-MAChigh/sixtop.c ****    ptr=0; 
 1775              		.loc 1 834 0
 1776 0b82 4FF00003 		mov	r3, #0
 1777 0b86 87F82530 		strb	r3, [r7, #37]
 835:openstack/02b-MAChigh/sixtop.c ****    memset(&opcode_ie,0,sizeof(opcode_IE_ht));
 1778              		.loc 1 835 0
 1779 0b8a 07F12403 		add	r3, r7, #36
 1780 0b8e 1846     		mov	r0, r3
 1781 0b90 4FF00001 		mov	r1, #0
 1782 0b94 4FF00102 		mov	r2, #1
 1783 0b98 FFF7FEFF 		bl	memset
 836:openstack/02b-MAChigh/sixtop.c ****    memset(&bandwidth_ie,0,sizeof(bandwidth_IE_ht));
 1784              		.loc 1 836 0
 1785 0b9c 07F12003 		add	r3, r7, #32
 1786 0ba0 1846     		mov	r0, r3
 1787 0ba2 4FF00001 		mov	r1, #0
 1788 0ba6 4FF00202 		mov	r2, #2
 1789 0baa FFF7FEFF 		bl	memset
 837:openstack/02b-MAChigh/sixtop.c ****    memset(&schedule_ie,0,sizeof(schedule_IE_ht));  
 1790              		.loc 1 837 0
 1791 0bae 07F10C03 		add	r3, r7, #12
 1792 0bb2 1846     		mov	r0, r3
 1793 0bb4 4FF00001 		mov	r1, #0
 1794 0bb8 4FF01402 		mov	r2, #20
 1795 0bbc FFF7FEFF 		bl	memset
 838:openstack/02b-MAChigh/sixtop.c ****   
 839:openstack/02b-MAChigh/sixtop.c ****    //candidate IE header  if type ==0 header IE if type==1 payload IE
 840:openstack/02b-MAChigh/sixtop.c ****    temp_8b = *((uint8_t*)(pkt->payload)+ptr);
 1796              		.loc 1 840 0
 1797 0bc0 7B68     		ldr	r3, [r7, #4]
 1798 0bc2 5A68     		ldr	r2, [r3, #4]
 1799 0bc4 97F82530 		ldrb	r3, [r7, #37]	@ zero_extendqisi2
 1800 0bc8 D318     		adds	r3, r2, r3
 1801 0bca 1B78     		ldrb	r3, [r3, #0]
 1802 0bcc 87F82930 		strb	r3, [r7, #41]
 841:openstack/02b-MAChigh/sixtop.c ****    ptr++;
 1803              		.loc 1 841 0
 1804 0bd0 97F82530 		ldrb	r3, [r7, #37]	@ zero_extendqisi2
 1805 0bd4 03F10103 		add	r3, r3, #1
 1806 0bd8 DBB2     		uxtb	r3, r3
 1807 0bda 87F82530 		strb	r3, [r7, #37]
 842:openstack/02b-MAChigh/sixtop.c ****    temp_16b = temp_8b + ((*((uint8_t*)(pkt->payload)+ptr))<< 8);
 1808              		.loc 1 842 0
 1809 0bde 97F82930 		ldrb	r3, [r7, #41]	@ zero_extendqisi2
 1810 0be2 9AB2     		uxth	r2, r3
 1811 0be4 7B68     		ldr	r3, [r7, #4]
 1812 0be6 5968     		ldr	r1, [r3, #4]
 1813 0be8 97F82530 		ldrb	r3, [r7, #37]	@ zero_extendqisi2
 1814 0bec CB18     		adds	r3, r1, r3
 1815 0bee 1B78     		ldrb	r3, [r3, #0]	@ zero_extendqisi2
 1816 0bf0 4FEA0323 		lsl	r3, r3, #8
 1817 0bf4 9BB2     		uxth	r3, r3
 1818 0bf6 D318     		adds	r3, r2, r3
 1819 0bf8 FB84     		strh	r3, [r7, #38]	@ movhi
 843:openstack/02b-MAChigh/sixtop.c ****    ptr++;
 1820              		.loc 1 843 0
 1821 0bfa 97F82530 		ldrb	r3, [r7, #37]	@ zero_extendqisi2
 1822 0bfe 03F10103 		add	r3, r3, #1
 1823 0c02 DBB2     		uxtb	r3, r3
 1824 0c04 87F82530 		strb	r3, [r7, #37]
 844:openstack/02b-MAChigh/sixtop.c ****    *lenIE = ptr;
 1825              		.loc 1 844 0
 1826 0c08 97F82530 		ldrb	r3, [r7, #37]	@ zero_extendqisi2
 1827 0c0c 1A46     		mov	r2, r3
 1828 0c0e 3B68     		ldr	r3, [r7, #0]
 1829 0c10 1A80     		strh	r2, [r3, #0]	@ movhi
 845:openstack/02b-MAChigh/sixtop.c ****    if(
 846:openstack/02b-MAChigh/sixtop.c ****       (temp_16b & IEEE802154E_DESC_TYPE_PAYLOAD_IE) == 
 1830              		.loc 1 846 0
 1831 0c12 FB8C     		ldrh	r3, [r7, #38]
 1832 0c14 03F00103 		and	r3, r3, #1
 845:openstack/02b-MAChigh/sixtop.c ****    if(
 1833              		.loc 1 845 0
 1834 0c18 002B     		cmp	r3, #0
 1835 0c1a 0BD0     		beq	.L79
 847:openstack/02b-MAChigh/sixtop.c ****       IEEE802154E_DESC_TYPE_PAYLOAD_IE
 848:openstack/02b-MAChigh/sixtop.c ****    ){
 849:openstack/02b-MAChigh/sixtop.c ****    //payload IE - last bit is 1
 850:openstack/02b-MAChigh/sixtop.c ****       len = 
 1836              		.loc 1 850 0
 1837 0c1c FB8C     		ldrh	r3, [r7, #38]
 1838 0c1e 4FEA5313 		lsr	r3, r3, #5
 1839 0c22 BB85     		strh	r3, [r7, #44]	@ movhi
 851:openstack/02b-MAChigh/sixtop.c ****          (temp_16b & IEEE802154E_DESC_LEN_PAYLOAD_IE_MASK) >> 
 852:openstack/02b-MAChigh/sixtop.c ****          IEEE802154E_DESC_LEN_PAYLOAD_IE_SHIFT;
 853:openstack/02b-MAChigh/sixtop.c ****       gr_elem_id = 
 854:openstack/02b-MAChigh/sixtop.c ****          (temp_16b & IEEE802154E_DESC_GROUPID_PAYLOAD_IE_MASK)>>
 1840              		.loc 1 854 0
 1841 0c24 FB8C     		ldrh	r3, [r7, #38]
 1842 0c26 03F01E03 		and	r3, r3, #30
 1843 0c2a 4FEA6303 		asr	r3, r3, #1
 853:openstack/02b-MAChigh/sixtop.c ****       gr_elem_id = 
 1844              		.loc 1 853 0
 1845 0c2e 87F82F30 		strb	r3, [r7, #47]
 1846 0c32 0AE0     		b	.L80
 1847              	.L79:
 855:openstack/02b-MAChigh/sixtop.c ****          IEEE802154E_DESC_GROUPID_PAYLOAD_IE_SHIFT;
 856:openstack/02b-MAChigh/sixtop.c ****    }else {
 857:openstack/02b-MAChigh/sixtop.c ****    //header IE - last bit is 0
 858:openstack/02b-MAChigh/sixtop.c ****       len = 
 1848              		.loc 1 858 0
 1849 0c34 FB8C     		ldrh	r3, [r7, #38]
 1850 0c36 4FEA5323 		lsr	r3, r3, #9
 1851 0c3a BB85     		strh	r3, [r7, #44]	@ movhi
 859:openstack/02b-MAChigh/sixtop.c ****          (temp_16b & IEEE802154E_DESC_LEN_HEADER_IE_MASK)>>
 860:openstack/02b-MAChigh/sixtop.c ****          IEEE802154E_DESC_LEN_HEADER_IE_SHIFT;
 861:openstack/02b-MAChigh/sixtop.c ****       gr_elem_id = (temp_16b & IEEE802154E_DESC_ELEMENTID_HEADER_IE_MASK)>>
 1852              		.loc 1 861 0
 1853 0c3c FB8C     		ldrh	r3, [r7, #38]
 1854 0c3e 03F4FF73 		and	r3, r3, #510
 1855 0c42 4FEA6303 		asr	r3, r3, #1
 1856 0c46 87F82F30 		strb	r3, [r7, #47]
 1857              	.L80:
 862:openstack/02b-MAChigh/sixtop.c ****          IEEE802154E_DESC_ELEMENTID_HEADER_IE_SHIFT; 
 863:openstack/02b-MAChigh/sixtop.c ****    }
 864:openstack/02b-MAChigh/sixtop.c ****   
 865:openstack/02b-MAChigh/sixtop.c ****    *lenIE += len;
 1858              		.loc 1 865 0
 1859 0c4a 3B68     		ldr	r3, [r7, #0]
 1860 0c4c 1A88     		ldrh	r2, [r3, #0]
 1861 0c4e BB8D     		ldrh	r3, [r7, #44]	@ movhi
 1862 0c50 D318     		adds	r3, r2, r3
 1863 0c52 9AB2     		uxth	r2, r3
 1864 0c54 3B68     		ldr	r3, [r7, #0]
 1865 0c56 1A80     		strh	r2, [r3, #0]	@ movhi
 866:openstack/02b-MAChigh/sixtop.c ****    //now determine sub elements if any
 867:openstack/02b-MAChigh/sixtop.c ****    switch(gr_elem_id){
 1866              		.loc 1 867 0
 1867 0c58 97F82F30 		ldrb	r3, [r7, #47]	@ zero_extendqisi2
 1868 0c5c 012B     		cmp	r3, #1
 1869 0c5e 7FD1     		bne	.L97
 1870              	.L82:
 868:openstack/02b-MAChigh/sixtop.c ****       //this is the only groupID that we parse. See page 82.  
 869:openstack/02b-MAChigh/sixtop.c ****       case IEEE802154E_MLME_IE_GROUPID:
 870:openstack/02b-MAChigh/sixtop.c ****         //IE content can be any of the sub-IEs. Parse and see which
 871:openstack/02b-MAChigh/sixtop.c ****         do{
 872:openstack/02b-MAChigh/sixtop.c ****            //read sub IE header
 873:openstack/02b-MAChigh/sixtop.c ****            temp_8b = *((uint8_t*)(pkt->payload)+ptr);
 1871              		.loc 1 873 0
 1872 0c60 7B68     		ldr	r3, [r7, #4]
 1873 0c62 5A68     		ldr	r2, [r3, #4]
 1874 0c64 97F82530 		ldrb	r3, [r7, #37]	@ zero_extendqisi2
 1875 0c68 D318     		adds	r3, r2, r3
 1876 0c6a 1B78     		ldrb	r3, [r3, #0]
 1877 0c6c 87F82930 		strb	r3, [r7, #41]
 874:openstack/02b-MAChigh/sixtop.c ****            ptr = ptr + 1;
 1878              		.loc 1 874 0
 1879 0c70 97F82530 		ldrb	r3, [r7, #37]	@ zero_extendqisi2
 1880 0c74 03F10103 		add	r3, r3, #1
 1881 0c78 DBB2     		uxtb	r3, r3
 1882 0c7a 87F82530 		strb	r3, [r7, #37]
 875:openstack/02b-MAChigh/sixtop.c ****            temp_16b = temp_8b  +(*((uint8_t*)(pkt->payload)+ptr) << 8);
 1883              		.loc 1 875 0
 1884 0c7e 97F82930 		ldrb	r3, [r7, #41]	@ zero_extendqisi2
 1885 0c82 9AB2     		uxth	r2, r3
 1886 0c84 7B68     		ldr	r3, [r7, #4]
 1887 0c86 5968     		ldr	r1, [r3, #4]
 1888 0c88 97F82530 		ldrb	r3, [r7, #37]	@ zero_extendqisi2
 1889 0c8c CB18     		adds	r3, r1, r3
 1890 0c8e 1B78     		ldrb	r3, [r3, #0]	@ zero_extendqisi2
 1891 0c90 4FEA0323 		lsl	r3, r3, #8
 1892 0c94 9BB2     		uxth	r3, r3
 1893 0c96 D318     		adds	r3, r2, r3
 1894 0c98 FB84     		strh	r3, [r7, #38]	@ movhi
 876:openstack/02b-MAChigh/sixtop.c ****            ptr = ptr + 1;
 1895              		.loc 1 876 0
 1896 0c9a 97F82530 		ldrb	r3, [r7, #37]	@ zero_extendqisi2
 1897 0c9e 03F10103 		add	r3, r3, #1
 1898 0ca2 DBB2     		uxtb	r3, r3
 1899 0ca4 87F82530 		strb	r3, [r7, #37]
 877:openstack/02b-MAChigh/sixtop.c ****            len = len - 2; //remove header fields len
 1900              		.loc 1 877 0
 1901 0ca8 BB8D     		ldrh	r3, [r7, #44]	@ movhi
 1902 0caa A3F10203 		sub	r3, r3, #2
 1903 0cae BB85     		strh	r3, [r7, #44]	@ movhi
 878:openstack/02b-MAChigh/sixtop.c ****            if(
 879:openstack/02b-MAChigh/sixtop.c ****               (temp_16b & IEEE802154E_DESC_TYPE_LONG) == 
 1904              		.loc 1 879 0
 1905 0cb0 FB8C     		ldrh	r3, [r7, #38]
 1906 0cb2 03F00103 		and	r3, r3, #1
 878:openstack/02b-MAChigh/sixtop.c ****            if(
 1907              		.loc 1 878 0
 1908 0cb6 002B     		cmp	r3, #0
 1909 0cb8 0BD0     		beq	.L83
 880:openstack/02b-MAChigh/sixtop.c ****               IEEE802154E_DESC_TYPE_LONG
 881:openstack/02b-MAChigh/sixtop.c ****               ){
 882:openstack/02b-MAChigh/sixtop.c ****               //long sub-IE - last bit is 1
 883:openstack/02b-MAChigh/sixtop.c ****               sublen =
 1910              		.loc 1 883 0
 1911 0cba FB8C     		ldrh	r3, [r7, #38]
 1912 0cbc 4FEA5313 		lsr	r3, r3, #5
 1913 0cc0 7B85     		strh	r3, [r7, #42]	@ movhi
 884:openstack/02b-MAChigh/sixtop.c ****                  (temp_16b & IEEE802154E_DESC_LEN_LONG_MLME_IE_MASK)>>
 885:openstack/02b-MAChigh/sixtop.c ****                  IEEE802154E_DESC_LEN_LONG_MLME_IE_SHIFT;
 886:openstack/02b-MAChigh/sixtop.c ****               subid= 
 887:openstack/02b-MAChigh/sixtop.c ****                  (temp_16b & IEEE802154E_DESC_SUBID_LONG_MLME_IE_MASK)>>
 1914              		.loc 1 887 0
 1915 0cc2 FB8C     		ldrh	r3, [r7, #38]
 1916 0cc4 03F01E03 		and	r3, r3, #30
 1917 0cc8 4FEA6303 		asr	r3, r3, #1
 886:openstack/02b-MAChigh/sixtop.c ****               subid= 
 1918              		.loc 1 886 0
 1919 0ccc 87F82E30 		strb	r3, [r7, #46]
 1920 0cd0 0AE0     		b	.L84
 1921              	.L83:
 888:openstack/02b-MAChigh/sixtop.c ****                  IEEE802154E_DESC_SUBID_LONG_MLME_IE_SHIFT; 
 889:openstack/02b-MAChigh/sixtop.c ****            } else {
 890:openstack/02b-MAChigh/sixtop.c ****               //short IE - last bit is 0
 891:openstack/02b-MAChigh/sixtop.c ****               sublen = 
 1922              		.loc 1 891 0
 1923 0cd2 FB8C     		ldrh	r3, [r7, #38]
 1924 0cd4 4FEA1323 		lsr	r3, r3, #8
 1925 0cd8 7B85     		strh	r3, [r7, #42]	@ movhi
 892:openstack/02b-MAChigh/sixtop.c ****                  (temp_16b & IEEE802154E_DESC_LEN_SHORT_MLME_IE_MASK)>>
 893:openstack/02b-MAChigh/sixtop.c ****                  IEEE802154E_DESC_LEN_SHORT_MLME_IE_SHIFT;
 894:openstack/02b-MAChigh/sixtop.c ****               subid = (temp_16b & IEEE802154E_DESC_SUBID_SHORT_MLME_IE_MASK)>>
 1926              		.loc 1 894 0
 1927 0cda FB8C     		ldrh	r3, [r7, #38]
 1928 0cdc 03F0FE03 		and	r3, r3, #254
 1929 0ce0 4FEA6303 		asr	r3, r3, #1
 1930 0ce4 87F82E30 		strb	r3, [r7, #46]
 1931              	.L84:
 895:openstack/02b-MAChigh/sixtop.c ****                  IEEE802154E_DESC_SUBID_SHORT_MLME_IE_SHIFT; 
 896:openstack/02b-MAChigh/sixtop.c ****            }
 897:openstack/02b-MAChigh/sixtop.c ****            switch(subid){
 1932              		.loc 1 897 0
 1933 0ce8 97F82E30 		ldrb	r3, [r7, #46]	@ zero_extendqisi2
 1934 0cec A3F14103 		sub	r3, r3, #65
 1935 0cf0 032B     		cmp	r3, #3
 1936 0cf2 29D8     		bhi	.L85
 1937 0cf4 01A2     		adr	r2, .L90
 1938 0cf6 52F823F0 		ldr	pc, [r2, r3, lsl #2]
 1939 0cfa 00BF     		.align	2
 1940              	.L90:
 1941 0cfc 0D0D0000 		.word	.L86+1
 1942 0d00 210D0000 		.word	.L87+1
 1943 0d04 4F0D0000 		.word	.L99+1
 1944 0d08 350D0000 		.word	.L89+1
 1945              	.L86:
 898:openstack/02b-MAChigh/sixtop.c ****               case MLME_IE_SUBID_OPCODE:
 899:openstack/02b-MAChigh/sixtop.c ****               processIE_retrieveOpcodeIE(pkt,&ptr,&opcode_ie);
 1946              		.loc 1 899 0
 1947 0d0c 07F12502 		add	r2, r7, #37
 1948 0d10 07F12403 		add	r3, r7, #36
 1949 0d14 7868     		ldr	r0, [r7, #4]
 1950 0d16 1146     		mov	r1, r2
 1951 0d18 1A46     		mov	r2, r3
 1952 0d1a FFF7FEFF 		bl	processIE_retrieveOpcodeIE
 900:openstack/02b-MAChigh/sixtop.c ****               break;
 1953              		.loc 1 900 0
 1954 0d1e 17E0     		b	.L91
 1955              	.L87:
 901:openstack/02b-MAChigh/sixtop.c ****               case MLME_IE_SUBID_BANDWIDTH:
 902:openstack/02b-MAChigh/sixtop.c ****               processIE_retrieveBandwidthIE(pkt,&ptr,&bandwidth_ie);
 1956              		.loc 1 902 0
 1957 0d20 07F12502 		add	r2, r7, #37
 1958 0d24 07F12003 		add	r3, r7, #32
 1959 0d28 7868     		ldr	r0, [r7, #4]
 1960 0d2a 1146     		mov	r1, r2
 1961 0d2c 1A46     		mov	r2, r3
 1962 0d2e FFF7FEFF 		bl	processIE_retrieveBandwidthIE
 903:openstack/02b-MAChigh/sixtop.c ****               break;
 1963              		.loc 1 903 0
 1964 0d32 0DE0     		b	.L91
 1965              	.L89:
 904:openstack/02b-MAChigh/sixtop.c ****               case MLME_IE_SUBID_TRACKID:
 905:openstack/02b-MAChigh/sixtop.c ****               break;
 906:openstack/02b-MAChigh/sixtop.c ****               case MLME_IE_SUBID_SCHEDULE:
 907:openstack/02b-MAChigh/sixtop.c ****               processIE_retrieveSheduleIE(pkt,&ptr,&schedule_ie);
 1966              		.loc 1 907 0
 1967 0d34 07F12502 		add	r2, r7, #37
 1968 0d38 07F10C03 		add	r3, r7, #12
 1969 0d3c 7868     		ldr	r0, [r7, #4]
 1970 0d3e 1146     		mov	r1, r2
 1971 0d40 1A46     		mov	r2, r3
 1972 0d42 FFF7FEFF 		bl	processIE_retrieveSheduleIE
 908:openstack/02b-MAChigh/sixtop.c ****               break;
 1973              		.loc 1 908 0
 1974 0d46 03E0     		b	.L91
 1975              	.L85:
 909:openstack/02b-MAChigh/sixtop.c ****           default:
 910:openstack/02b-MAChigh/sixtop.c ****              return FALSE;
 1976              		.loc 1 910 0
 1977 0d48 4FF00003 		mov	r3, #0
 1978 0d4c 2FE0     		b	.L96
 1979              	.L99:
 905:openstack/02b-MAChigh/sixtop.c ****               break;
 1980              		.loc 1 905 0
 1981 0d4e 00BF     		nop
 1982              	.L91:
 911:openstack/02b-MAChigh/sixtop.c ****              break;
 912:openstack/02b-MAChigh/sixtop.c ****         }
 913:openstack/02b-MAChigh/sixtop.c ****         len = len - sublen;
 1983              		.loc 1 913 0
 1984 0d50 BA8D     		ldrh	r2, [r7, #44]	@ movhi
 1985 0d52 7B8D     		ldrh	r3, [r7, #42]	@ movhi
 1986 0d54 D31A     		subs	r3, r2, r3
 1987 0d56 BB85     		strh	r3, [r7, #44]	@ movhi
 914:openstack/02b-MAChigh/sixtop.c ****       } while(len>0);
 1988              		.loc 1 914 0
 1989 0d58 BB8D     		ldrh	r3, [r7, #44]
 1990 0d5a 002B     		cmp	r3, #0
 1991 0d5c 80D1     		bne	.L82
 915:openstack/02b-MAChigh/sixtop.c ****       
 916:openstack/02b-MAChigh/sixtop.c ****       break;
 1992              		.loc 1 916 0
 1993 0d5e 06E0     		b	.L98
 1994              	.L97:
 917:openstack/02b-MAChigh/sixtop.c ****     default:
 918:openstack/02b-MAChigh/sixtop.c ****       *lenIE = 0;//no header or not recognized.
 1995              		.loc 1 918 0
 1996 0d60 3B68     		ldr	r3, [r7, #0]
 1997 0d62 4FF00002 		mov	r2, #0
 1998 0d66 1A80     		strh	r2, [r3, #0]	@ movhi
 919:openstack/02b-MAChigh/sixtop.c ****        return FALSE;
 1999              		.loc 1 919 0
 2000 0d68 4FF00003 		mov	r3, #0
 2001 0d6c 1FE0     		b	.L96
 2002              	.L98:
 920:openstack/02b-MAChigh/sixtop.c ****    }
 921:openstack/02b-MAChigh/sixtop.c ****    if (*lenIE>127) {
 2003              		.loc 1 921 0
 2004 0d6e 3B68     		ldr	r3, [r7, #0]
 2005 0d70 1B88     		ldrh	r3, [r3, #0]
 2006 0d72 7F2B     		cmp	r3, #127
 2007 0d74 0AD9     		bls	.L94
 922:openstack/02b-MAChigh/sixtop.c ****          // log the error
 923:openstack/02b-MAChigh/sixtop.c ****      openserial_printError(COMPONENT_IEEE802154E,ERR_HEADER_TOO_LONG,
 2008              		.loc 1 923 0
 2009 0d76 3B68     		ldr	r3, [r7, #0]
 2010 0d78 1B88     		ldrh	r3, [r3, #0]
 2011 0d7a 4FF00900 		mov	r0, #9
 2012 0d7e 4FF03301 		mov	r1, #51
 2013 0d82 1A46     		mov	r2, r3
 2014 0d84 4FF00103 		mov	r3, #1
 2015 0d88 FFF7FEFF 		bl	openserial_printError
 2016              	.L94:
 924:openstack/02b-MAChigh/sixtop.c ****                            (errorparameter_t)*lenIE,
 925:openstack/02b-MAChigh/sixtop.c ****                            (errorparameter_t)1);
 926:openstack/02b-MAChigh/sixtop.c ****    }
 927:openstack/02b-MAChigh/sixtop.c ****   
 928:openstack/02b-MAChigh/sixtop.c ****    if(*lenIE>0) {
 2017              		.loc 1 928 0
 2018 0d8c 3B68     		ldr	r3, [r7, #0]
 2019 0d8e 1B88     		ldrh	r3, [r3, #0]
 2020 0d90 002B     		cmp	r3, #0
 2021 0d92 0AD0     		beq	.L95
 929:openstack/02b-MAChigh/sixtop.c ****       sixtop_notifyReceiveCommand(&opcode_ie,
 2022              		.loc 1 929 0
 2023 0d94 7B68     		ldr	r3, [r7, #4]
 2024 0d96 03F13803 		add	r3, r3, #56
 2025 0d9a 07F12400 		add	r0, r7, #36
 2026 0d9e 07F12001 		add	r1, r7, #32
 2027 0da2 07F10C02 		add	r2, r7, #12
 2028 0da6 FFF7FEFF 		bl	sixtop_notifyReceiveCommand
 2029              	.L95:
 930:openstack/02b-MAChigh/sixtop.c ****                                   &bandwidth_ie,
 931:openstack/02b-MAChigh/sixtop.c ****                                   &schedule_ie,
 932:openstack/02b-MAChigh/sixtop.c ****                                   &(pkt->l2_nextORpreviousHop));
 933:openstack/02b-MAChigh/sixtop.c ****    }
 934:openstack/02b-MAChigh/sixtop.c ****   
 935:openstack/02b-MAChigh/sixtop.c ****   return TRUE;
 2030              		.loc 1 935 0
 2031 0daa 4FF00103 		mov	r3, #1
 2032              	.L96:
 936:openstack/02b-MAChigh/sixtop.c **** }
 2033              		.loc 1 936 0
 2034 0dae 1846     		mov	r0, r3
 2035 0db0 07F13007 		add	r7, r7, #48
 2036 0db4 BD46     		mov	sp, r7
 2037 0db6 80BD     		pop	{r7, pc}
 2038              		.cfi_endproc
 2039              	.LFE17:
 2041              		.align	2
 2042              		.global	sixtop_notifyReceiveCommand
 2043              		.thumb
 2044              		.thumb_func
 2046              	sixtop_notifyReceiveCommand:
 2047              	.LFB18:
 937:openstack/02b-MAChigh/sixtop.c **** 
 938:openstack/02b-MAChigh/sixtop.c **** void sixtop_notifyReceiveCommand(
 939:openstack/02b-MAChigh/sixtop.c ****    opcode_IE_ht* opcode_ie, 
 940:openstack/02b-MAChigh/sixtop.c ****    bandwidth_IE_ht* bandwidth_ie, 
 941:openstack/02b-MAChigh/sixtop.c ****    schedule_IE_ht* schedule_ie,
 942:openstack/02b-MAChigh/sixtop.c ****    open_addr_t* addr){
 2048              		.loc 1 942 0
 2049              		.cfi_startproc
 2050              		@ args = 0, pretend = 0, frame = 16
 2051              		@ frame_needed = 1, uses_anonymous_args = 0
 2052 0db8 80B5     		push	{r7, lr}
 2053              	.LCFI49:
 2054              		.cfi_def_cfa_offset 8
 2055              		.cfi_offset 7, -8
 2056              		.cfi_offset 14, -4
 2057 0dba 84B0     		sub	sp, sp, #16
 2058              	.LCFI50:
 2059              		.cfi_def_cfa_offset 24
 2060 0dbc 00AF     		add	r7, sp, #0
 2061              	.LCFI51:
 2062              		.cfi_def_cfa_register 7
 2063 0dbe F860     		str	r0, [r7, #12]
 2064 0dc0 B960     		str	r1, [r7, #8]
 2065 0dc2 7A60     		str	r2, [r7, #4]
 2066 0dc4 3B60     		str	r3, [r7, #0]
 943:openstack/02b-MAChigh/sixtop.c ****    
 944:openstack/02b-MAChigh/sixtop.c ****    switch(opcode_ie->opcode){
 2067              		.loc 1 944 0
 2068 0dc6 FB68     		ldr	r3, [r7, #12]
 2069 0dc8 1B78     		ldrb	r3, [r3, #0]	@ zero_extendqisi2
 2070 0dca 012B     		cmp	r3, #1
 2071 0dcc 17D0     		beq	.L103
 2072 0dce 022B     		cmp	r3, #2
 2073 0dd0 29D0     		beq	.L104
 2074 0dd2 002B     		cmp	r3, #0
 2075 0dd4 3AD1     		bne	.L109
 2076              	.L102:
 945:openstack/02b-MAChigh/sixtop.c ****       case SIXTOP_SOFT_CELL_REQ:
 946:openstack/02b-MAChigh/sixtop.c ****          if(sixtop_vars.six2six_state == SIX_IDLE)
 2077              		.loc 1 946 0
 2078 0dd6 40F20003 		movw	r3, #:lower16:sixtop_vars
 2079 0dda C0F20003 		movt	r3, #:upper16:sixtop_vars
 2080 0dde 9B7A     		ldrb	r3, [r3, #10]	@ zero_extendqisi2
 2081 0de0 002B     		cmp	r3, #0
 2082 0de2 35D1     		bne	.L110
 947:openstack/02b-MAChigh/sixtop.c ****          {
 948:openstack/02b-MAChigh/sixtop.c ****             sixtop_vars.six2six_state = SIX_ADDREQUEST_RECEIVED;
 2083              		.loc 1 948 0
 2084 0de4 40F20003 		movw	r3, #:lower16:sixtop_vars
 2085 0de8 C0F20003 		movt	r3, #:upper16:sixtop_vars
 2086 0dec 4FF00502 		mov	r2, #5
 2087 0df0 9A72     		strb	r2, [r3, #10]
 949:openstack/02b-MAChigh/sixtop.c ****             //received uResCommand is reserve link request
 950:openstack/02b-MAChigh/sixtop.c ****             sixtop_notifyReceiveLinkRequest(bandwidth_ie,schedule_ie,addr);
 2088              		.loc 1 950 0
 2089 0df2 B868     		ldr	r0, [r7, #8]
 2090 0df4 7968     		ldr	r1, [r7, #4]
 2091 0df6 3A68     		ldr	r2, [r7, #0]
 2092 0df8 FFF7FEFF 		bl	sixtop_notifyReceiveLinkRequest
 951:openstack/02b-MAChigh/sixtop.c ****          }
 952:openstack/02b-MAChigh/sixtop.c ****          break;
 2093              		.loc 1 952 0
 2094 0dfc 28E0     		b	.L110
 2095              	.L103:
 953:openstack/02b-MAChigh/sixtop.c ****       case SIXTOP_SOFT_CELL_RESPONSE:
 954:openstack/02b-MAChigh/sixtop.c ****          if(sixtop_vars.six2six_state == SIX_WAIT_ADDRESPONSE){
 2096              		.loc 1 954 0
 2097 0dfe 40F20003 		movw	r3, #:lower16:sixtop_vars
 2098 0e02 C0F20003 		movt	r3, #:upper16:sixtop_vars
 2099 0e06 9B7A     		ldrb	r3, [r3, #10]	@ zero_extendqisi2
 2100 0e08 032B     		cmp	r3, #3
 2101 0e0a 23D1     		bne	.L111
 955:openstack/02b-MAChigh/sixtop.c ****            sixtop_vars.six2six_state = SIX_ADDRESPONSE_RECEIVED;
 2102              		.loc 1 955 0
 2103 0e0c 40F20003 		movw	r3, #:lower16:sixtop_vars
 2104 0e10 C0F20003 		movt	r3, #:upper16:sixtop_vars
 2105 0e14 4FF00402 		mov	r2, #4
 2106 0e18 9A72     		strb	r2, [r3, #10]
 956:openstack/02b-MAChigh/sixtop.c ****            //received uResCommand is reserve link response
 957:openstack/02b-MAChigh/sixtop.c ****            sixtop_notifyReceiveLinkResponse(bandwidth_ie,schedule_ie,addr);
 2107              		.loc 1 957 0
 2108 0e1a B868     		ldr	r0, [r7, #8]
 2109 0e1c 7968     		ldr	r1, [r7, #4]
 2110 0e1e 3A68     		ldr	r2, [r7, #0]
 2111 0e20 FFF7FEFF 		bl	sixtop_notifyReceiveLinkResponse
 958:openstack/02b-MAChigh/sixtop.c ****          }
 959:openstack/02b-MAChigh/sixtop.c ****          break;
 2112              		.loc 1 959 0
 2113 0e24 16E0     		b	.L111
 2114              	.L104:
 960:openstack/02b-MAChigh/sixtop.c ****       case SIXTOP_REMOVE_SOFT_CELL_REQUEST:
 961:openstack/02b-MAChigh/sixtop.c ****          if(sixtop_vars.six2six_state == SIX_IDLE){
 2115              		.loc 1 961 0
 2116 0e26 40F20003 		movw	r3, #:lower16:sixtop_vars
 2117 0e2a C0F20003 		movt	r3, #:upper16:sixtop_vars
 2118 0e2e 9B7A     		ldrb	r3, [r3, #10]	@ zero_extendqisi2
 2119 0e30 002B     		cmp	r3, #0
 2120 0e32 11D1     		bne	.L112
 962:openstack/02b-MAChigh/sixtop.c ****             sixtop_vars.six2six_state = SIX_REMOVEREQUEST_RECEIVED;
 2121              		.loc 1 962 0
 2122 0e34 40F20003 		movw	r3, #:lower16:sixtop_vars
 2123 0e38 C0F20003 		movt	r3, #:upper16:sixtop_vars
 2124 0e3c 4FF00A02 		mov	r2, #10
 2125 0e40 9A72     		strb	r2, [r3, #10]
 963:openstack/02b-MAChigh/sixtop.c ****           //received uResComand is remove link request
 964:openstack/02b-MAChigh/sixtop.c ****              sixtop_notifyReceiveRemoveLinkRequest(schedule_ie,addr);
 2126              		.loc 1 964 0
 2127 0e42 7868     		ldr	r0, [r7, #4]
 2128 0e44 3968     		ldr	r1, [r7, #0]
 2129 0e46 FFF7FEFF 		bl	sixtop_notifyReceiveRemoveLinkRequest
 965:openstack/02b-MAChigh/sixtop.c ****         }
 966:openstack/02b-MAChigh/sixtop.c ****         break;
 2130              		.loc 1 966 0
 2131 0e4a 05E0     		b	.L112
 2132              	.L109:
 967:openstack/02b-MAChigh/sixtop.c ****       default:
 968:openstack/02b-MAChigh/sixtop.c ****          // log the error
 969:openstack/02b-MAChigh/sixtop.c ****          break;
 2133              		.loc 1 969 0
 2134 0e4c 00BF     		nop
 2135 0e4e 04E0     		b	.L100
 2136              	.L110:
 952:openstack/02b-MAChigh/sixtop.c ****          break;
 2137              		.loc 1 952 0
 2138 0e50 00BF     		nop
 2139 0e52 02E0     		b	.L100
 2140              	.L111:
 959:openstack/02b-MAChigh/sixtop.c ****          break;
 2141              		.loc 1 959 0
 2142 0e54 00BF     		nop
 2143 0e56 00E0     		b	.L100
 2144              	.L112:
 966:openstack/02b-MAChigh/sixtop.c ****         break;
 2145              		.loc 1 966 0
 2146 0e58 00BF     		nop
 2147              	.L100:
 970:openstack/02b-MAChigh/sixtop.c ****       }
 971:openstack/02b-MAChigh/sixtop.c **** }
 2148              		.loc 1 971 0
 2149 0e5a 07F11007 		add	r7, r7, #16
 2150 0e5e BD46     		mov	sp, r7
 2151 0e60 80BD     		pop	{r7, pc}
 2152              		.cfi_endproc
 2153              	.LFE18:
 2155 0e62 00BF     		.align	2
 2156              		.global	sixtop_notifyReceiveLinkRequest
 2157              		.thumb
 2158              		.thumb_func
 2160              	sixtop_notifyReceiveLinkRequest:
 2161              	.LFB19:
 972:openstack/02b-MAChigh/sixtop.c **** 
 973:openstack/02b-MAChigh/sixtop.c **** void sixtop_notifyReceiveLinkRequest(
 974:openstack/02b-MAChigh/sixtop.c ****    bandwidth_IE_ht* bandwidth_ie, 
 975:openstack/02b-MAChigh/sixtop.c ****    schedule_IE_ht* schedule_ie,
 976:openstack/02b-MAChigh/sixtop.c ****    open_addr_t* addr){
 2162              		.loc 1 976 0
 2163              		.cfi_startproc
 2164              		@ args = 0, pretend = 0, frame = 24
 2165              		@ frame_needed = 1, uses_anonymous_args = 0
 2166 0e64 80B5     		push	{r7, lr}
 2167              	.LCFI52:
 2168              		.cfi_def_cfa_offset 8
 2169              		.cfi_offset 7, -8
 2170              		.cfi_offset 14, -4
 2171 0e66 88B0     		sub	sp, sp, #32
 2172              	.LCFI53:
 2173              		.cfi_def_cfa_offset 40
 2174 0e68 02AF     		add	r7, sp, #8
 2175              	.LCFI54:
 2176              		.cfi_def_cfa 7, 32
 2177 0e6a F860     		str	r0, [r7, #12]
 2178 0e6c B960     		str	r1, [r7, #8]
 2179 0e6e 7A60     		str	r2, [r7, #4]
 977:openstack/02b-MAChigh/sixtop.c ****    
 978:openstack/02b-MAChigh/sixtop.c ****    uint8_t bw,numOfcells,frameID;
 979:openstack/02b-MAChigh/sixtop.c ****    bool scheduleCellSuccess;
 980:openstack/02b-MAChigh/sixtop.c ****   
 981:openstack/02b-MAChigh/sixtop.c ****    frameID = schedule_ie->frameID;
 2180              		.loc 1 981 0
 2181 0e70 BB68     		ldr	r3, [r7, #8]
 2182 0e72 9B78     		ldrb	r3, [r3, #2]
 2183 0e74 BB75     		strb	r3, [r7, #22]
 982:openstack/02b-MAChigh/sixtop.c ****    numOfcells = schedule_ie->numberOfcells;
 2184              		.loc 1 982 0
 2185 0e76 BB68     		ldr	r3, [r7, #8]
 2186 0e78 DB78     		ldrb	r3, [r3, #3]
 2187 0e7a 7B75     		strb	r3, [r7, #21]
 983:openstack/02b-MAChigh/sixtop.c ****    bw = bandwidth_ie->numOfLinks;
 2188              		.loc 1 983 0
 2189 0e7c FB68     		ldr	r3, [r7, #12]
 2190 0e7e 5B78     		ldrb	r3, [r3, #1]
 2191 0e80 3B75     		strb	r3, [r7, #20]
 984:openstack/02b-MAChigh/sixtop.c ****    
 985:openstack/02b-MAChigh/sixtop.c ****    // need to check whether the links are available to be scheduled.
 986:openstack/02b-MAChigh/sixtop.c ****    if(bw > numOfcells                                                 ||
 2192              		.loc 1 986 0
 2193 0e82 3A7D     		ldrb	r2, [r7, #20]	@ zero_extendqisi2
 2194 0e84 7B7D     		ldrb	r3, [r7, #21]	@ zero_extendqisi2
 2195 0e86 9A42     		cmp	r2, r3
 2196 0e88 13D8     		bhi	.L114
 987:openstack/02b-MAChigh/sixtop.c ****       schedule_ie->frameID != bandwidth_ie->slotframeID               ||
 2197              		.loc 1 987 0 discriminator 1
 2198 0e8a BB68     		ldr	r3, [r7, #8]
 2199 0e8c 9A78     		ldrb	r2, [r3, #2]	@ zero_extendqisi2
 2200 0e8e FB68     		ldr	r3, [r7, #12]
 2201 0e90 1B78     		ldrb	r3, [r3, #0]	@ zero_extendqisi2
 986:openstack/02b-MAChigh/sixtop.c ****    if(bw > numOfcells                                                 ||
 2202              		.loc 1 986 0 discriminator 1
 2203 0e92 9A42     		cmp	r2, r3
 2204 0e94 0DD1     		bne	.L114
 988:openstack/02b-MAChigh/sixtop.c ****       sixtop_areAvailableCellsToBeScheduled(frameID,
 989:openstack/02b-MAChigh/sixtop.c ****                                             numOfcells,
 990:openstack/02b-MAChigh/sixtop.c ****                                             schedule_ie->cellList, 
 2205              		.loc 1 990 0
 2206 0e96 BB68     		ldr	r3, [r7, #8]
 2207 0e98 03F10502 		add	r2, r3, #5
 988:openstack/02b-MAChigh/sixtop.c ****       sixtop_areAvailableCellsToBeScheduled(frameID,
 2208              		.loc 1 988 0
 2209 0e9c B87D     		ldrb	r0, [r7, #22]	@ zero_extendqisi2
 2210 0e9e 797D     		ldrb	r1, [r7, #21]	@ zero_extendqisi2
 2211 0ea0 3B7D     		ldrb	r3, [r7, #20]	@ zero_extendqisi2
 2212 0ea2 FFF7FEFF 		bl	sixtop_areAvailableCellsToBeScheduled
 2213 0ea6 0346     		mov	r3, r0
 991:openstack/02b-MAChigh/sixtop.c ****                                             bw) == FALSE){
 2214              		.loc 1 991 0
 2215 0ea8 83F00103 		eor	r3, r3, #1
 2216 0eac DBB2     		uxtb	r3, r3
 987:openstack/02b-MAChigh/sixtop.c ****       schedule_ie->frameID != bandwidth_ie->slotframeID               ||
 2217              		.loc 1 987 0
 2218 0eae 002B     		cmp	r3, #0
 2219 0eb0 03D0     		beq	.L115
 2220              	.L114:
 992:openstack/02b-MAChigh/sixtop.c ****       scheduleCellSuccess = FALSE;
 2221              		.loc 1 992 0
 2222 0eb2 4FF00003 		mov	r3, #0
 2223 0eb6 FB75     		strb	r3, [r7, #23]
 2224 0eb8 12E0     		b	.L116
 2225              	.L115:
 993:openstack/02b-MAChigh/sixtop.c ****    } else {
 994:openstack/02b-MAChigh/sixtop.c ****       sixtop_addCellsByState(
 995:openstack/02b-MAChigh/sixtop.c ****          frameID,
 996:openstack/02b-MAChigh/sixtop.c ****          bw,
 997:openstack/02b-MAChigh/sixtop.c ****          schedule_ie->cellList,addr,sixtop_vars.six2six_state);
 2226              		.loc 1 997 0
 2227 0eba BB68     		ldr	r3, [r7, #8]
 2228 0ebc 03F10502 		add	r2, r3, #5
 2229 0ec0 40F20003 		movw	r3, #:lower16:sixtop_vars
 2230 0ec4 C0F20003 		movt	r3, #:upper16:sixtop_vars
 2231 0ec8 987A     		ldrb	r0, [r3, #10]	@ zero_extendqisi2
 994:openstack/02b-MAChigh/sixtop.c ****       sixtop_addCellsByState(
 2232              		.loc 1 994 0
 2233 0eca B97D     		ldrb	r1, [r7, #22]	@ zero_extendqisi2
 2234 0ecc 3B7D     		ldrb	r3, [r7, #20]	@ zero_extendqisi2
 2235 0ece 0090     		str	r0, [sp, #0]
 2236 0ed0 0846     		mov	r0, r1
 2237 0ed2 1946     		mov	r1, r3
 2238 0ed4 7B68     		ldr	r3, [r7, #4]
 2239 0ed6 FFF7FEFF 		bl	sixtop_addCellsByState
 998:openstack/02b-MAChigh/sixtop.c ****       scheduleCellSuccess = TRUE;
 2240              		.loc 1 998 0
 2241 0eda 4FF00103 		mov	r3, #1
 2242 0ede FB75     		strb	r3, [r7, #23]
 2243              	.L116:
 999:openstack/02b-MAChigh/sixtop.c ****    }
1000:openstack/02b-MAChigh/sixtop.c ****   
1001:openstack/02b-MAChigh/sixtop.c ****    //call link response command
1002:openstack/02b-MAChigh/sixtop.c ****    sixtop_linkResponse(scheduleCellSuccess,
1003:openstack/02b-MAChigh/sixtop.c ****                        addr,
1004:openstack/02b-MAChigh/sixtop.c ****                        bandwidth_ie->numOfLinks,
 2244              		.loc 1 1004 0
 2245 0ee0 FB68     		ldr	r3, [r7, #12]
1002:openstack/02b-MAChigh/sixtop.c ****    sixtop_linkResponse(scheduleCellSuccess,
 2246              		.loc 1 1002 0
 2247 0ee2 5B78     		ldrb	r3, [r3, #1]	@ zero_extendqisi2
 2248 0ee4 FA7D     		ldrb	r2, [r7, #23]	@ zero_extendqisi2
 2249 0ee6 1046     		mov	r0, r2
 2250 0ee8 7968     		ldr	r1, [r7, #4]
 2251 0eea 1A46     		mov	r2, r3
 2252 0eec BB68     		ldr	r3, [r7, #8]
 2253 0eee FFF7FEFF 		bl	sixtop_linkResponse
1005:openstack/02b-MAChigh/sixtop.c ****                        schedule_ie);
1006:openstack/02b-MAChigh/sixtop.c **** }
 2254              		.loc 1 1006 0
 2255 0ef2 07F11807 		add	r7, r7, #24
 2256 0ef6 BD46     		mov	sp, r7
 2257 0ef8 80BD     		pop	{r7, pc}
 2258              		.cfi_endproc
 2259              	.LFE19:
 2261 0efa 00BF     		.align	2
 2262              		.global	sixtop_linkResponse
 2263              		.thumb
 2264              		.thumb_func
 2266              	sixtop_linkResponse:
 2267              	.LFB20:
1007:openstack/02b-MAChigh/sixtop.c **** 
1008:openstack/02b-MAChigh/sixtop.c **** void sixtop_linkResponse(
1009:openstack/02b-MAChigh/sixtop.c ****    bool scheduleCellSuccess, 
1010:openstack/02b-MAChigh/sixtop.c ****    open_addr_t* tempNeighbor,
1011:openstack/02b-MAChigh/sixtop.c ****    uint8_t bandwidth, 
1012:openstack/02b-MAChigh/sixtop.c ****    schedule_IE_ht* schedule_ie){
 2268              		.loc 1 1012 0
 2269              		.cfi_startproc
 2270              		@ args = 0, pretend = 0, frame = 32
 2271              		@ frame_needed = 1, uses_anonymous_args = 0
 2272 0efc 80B5     		push	{r7, lr}
 2273              	.LCFI55:
 2274              		.cfi_def_cfa_offset 8
 2275              		.cfi_offset 7, -8
 2276              		.cfi_offset 14, -4
 2277 0efe 8AB0     		sub	sp, sp, #40
 2278              	.LCFI56:
 2279              		.cfi_def_cfa_offset 48
 2280 0f00 02AF     		add	r7, sp, #8
 2281              	.LCFI57:
 2282              		.cfi_def_cfa 7, 40
 2283 0f02 B960     		str	r1, [r7, #8]
 2284 0f04 7B60     		str	r3, [r7, #4]
 2285 0f06 0346     		mov	r3, r0
 2286 0f08 FB73     		strb	r3, [r7, #15]
 2287 0f0a 1346     		mov	r3, r2
 2288 0f0c BB73     		strb	r3, [r7, #14]
1013:openstack/02b-MAChigh/sixtop.c ****    
1014:openstack/02b-MAChigh/sixtop.c ****    OpenQueueEntry_t* sixtopPkt;
1015:openstack/02b-MAChigh/sixtop.c ****    uint8_t len=0;
 2289              		.loc 1 1015 0
 2290 0f0e 4FF00003 		mov	r3, #0
 2291 0f12 BB77     		strb	r3, [r7, #30]
1016:openstack/02b-MAChigh/sixtop.c ****    uint8_t bw;
1017:openstack/02b-MAChigh/sixtop.c ****    uint8_t type,frameID,flag;
1018:openstack/02b-MAChigh/sixtop.c ****    cellInfo_ht* cellList;
1019:openstack/02b-MAChigh/sixtop.c ****     
1020:openstack/02b-MAChigh/sixtop.c ****    // get parameters for scheduleIE
1021:openstack/02b-MAChigh/sixtop.c ****    type = schedule_ie->type;
 2292              		.loc 1 1021 0
 2293 0f14 7B68     		ldr	r3, [r7, #4]
 2294 0f16 1B78     		ldrb	r3, [r3, #0]
 2295 0f18 7B77     		strb	r3, [r7, #29]
1022:openstack/02b-MAChigh/sixtop.c ****    frameID = schedule_ie->frameID;
 2296              		.loc 1 1022 0
 2297 0f1a 7B68     		ldr	r3, [r7, #4]
 2298 0f1c 9B78     		ldrb	r3, [r3, #2]
 2299 0f1e 3B77     		strb	r3, [r7, #28]
1023:openstack/02b-MAChigh/sixtop.c ****    flag = schedule_ie->flag;
 2300              		.loc 1 1023 0
 2301 0f20 7B68     		ldr	r3, [r7, #4]
 2302 0f22 1B79     		ldrb	r3, [r3, #4]	@ zero_extendqisi2
 2303 0f24 FB76     		strb	r3, [r7, #27]
1024:openstack/02b-MAChigh/sixtop.c ****    cellList = schedule_ie->cellList;
 2304              		.loc 1 1024 0
 2305 0f26 7B68     		ldr	r3, [r7, #4]
 2306 0f28 03F10503 		add	r3, r3, #5
 2307 0f2c 7B61     		str	r3, [r7, #20]
1025:openstack/02b-MAChigh/sixtop.c ****   
1026:openstack/02b-MAChigh/sixtop.c ****    // get a free packet buffer
1027:openstack/02b-MAChigh/sixtop.c ****    sixtopPkt = openqueue_getFreePacketBuffer(COMPONENT_SIXTOP_RES);
 2308              		.loc 1 1027 0
 2309 0f2e 4FF00F00 		mov	r0, #15
 2310 0f32 FFF7FEFF 		bl	openqueue_getFreePacketBuffer
 2311 0f36 3861     		str	r0, [r7, #16]
1028:openstack/02b-MAChigh/sixtop.c ****   
1029:openstack/02b-MAChigh/sixtop.c ****    if(sixtopPkt==NULL) {
 2312              		.loc 1 1029 0
 2313 0f38 3B69     		ldr	r3, [r7, #16]
 2314 0f3a 002B     		cmp	r3, #0
 2315 0f3c 0AD1     		bne	.L118
1030:openstack/02b-MAChigh/sixtop.c ****       openserial_printError(COMPONENT_SIXTOP_RES,ERR_NO_FREE_PACKET_BUFFER,
 2316              		.loc 1 1030 0
 2317 0f3e 4FF00F00 		mov	r0, #15
 2318 0f42 4FF02C01 		mov	r1, #44
 2319 0f46 4FF00002 		mov	r2, #0
 2320 0f4a 4FF00003 		mov	r3, #0
 2321 0f4e FFF7FEFF 		bl	openserial_printError
1031:openstack/02b-MAChigh/sixtop.c ****                             (errorparameter_t)0,
1032:openstack/02b-MAChigh/sixtop.c ****                             (errorparameter_t)0);
1033:openstack/02b-MAChigh/sixtop.c ****       return;
 2322              		.loc 1 1033 0
 2323 0f52 57E0     		b	.L117
 2324              	.L118:
1034:openstack/02b-MAChigh/sixtop.c ****     }
1035:openstack/02b-MAChigh/sixtop.c ****     
1036:openstack/02b-MAChigh/sixtop.c ****    // changing state to resLinkRespone command
1037:openstack/02b-MAChigh/sixtop.c ****    sixtop_vars.six2six_state = SIX_SENDING_ADDRESPONSE;
 2325              		.loc 1 1037 0
 2326 0f54 40F20003 		movw	r3, #:lower16:sixtop_vars
 2327 0f58 C0F20003 		movt	r3, #:upper16:sixtop_vars
 2328 0f5c 4FF00602 		mov	r2, #6
 2329 0f60 9A72     		strb	r2, [r3, #10]
1038:openstack/02b-MAChigh/sixtop.c ****     
1039:openstack/02b-MAChigh/sixtop.c ****    // declare ownership over that packet
1040:openstack/02b-MAChigh/sixtop.c ****    sixtopPkt->creator = COMPONENT_SIXTOP_RES;
 2330              		.loc 1 1040 0
 2331 0f62 3B69     		ldr	r3, [r7, #16]
 2332 0f64 4FF00F02 		mov	r2, #15
 2333 0f68 1A70     		strb	r2, [r3, #0]
1041:openstack/02b-MAChigh/sixtop.c ****    sixtopPkt->owner   = COMPONENT_SIXTOP_RES;
 2334              		.loc 1 1041 0
 2335 0f6a 3B69     		ldr	r3, [r7, #16]
 2336 0f6c 4FF00F02 		mov	r2, #15
 2337 0f70 5A70     		strb	r2, [r3, #1]
1042:openstack/02b-MAChigh/sixtop.c ****     
1043:openstack/02b-MAChigh/sixtop.c ****    memcpy(&(sixtopPkt->l2_nextORpreviousHop),tempNeighbor,sizeof(open_addr_t));
 2338              		.loc 1 1043 0
 2339 0f72 3B69     		ldr	r3, [r7, #16]
 2340 0f74 03F13803 		add	r3, r3, #56
 2341 0f78 1846     		mov	r0, r3
 2342 0f7a B968     		ldr	r1, [r7, #8]
 2343 0f7c 4FF01102 		mov	r2, #17
 2344 0f80 FFF7FEFF 		bl	memcpy
1044:openstack/02b-MAChigh/sixtop.c ****     
1045:openstack/02b-MAChigh/sixtop.c ****    // set SubFrameAndLinkIE
1046:openstack/02b-MAChigh/sixtop.c ****    len += processIE_prependSheduleIE(sixtopPkt,
 2345              		.loc 1 1046 0
 2346 0f84 797F     		ldrb	r1, [r7, #29]	@ zero_extendqisi2
 2347 0f86 3A7F     		ldrb	r2, [r7, #28]	@ zero_extendqisi2
 2348 0f88 FB7E     		ldrb	r3, [r7, #27]	@ zero_extendqisi2
 2349 0f8a 7869     		ldr	r0, [r7, #20]
 2350 0f8c 0090     		str	r0, [sp, #0]
 2351 0f8e 3869     		ldr	r0, [r7, #16]
 2352 0f90 FFF7FEFF 		bl	processIE_prependSheduleIE
 2353 0f94 0346     		mov	r3, r0
 2354 0f96 1A46     		mov	r2, r3
 2355 0f98 BB7F     		ldrb	r3, [r7, #30]
 2356 0f9a D318     		adds	r3, r2, r3
 2357 0f9c BB77     		strb	r3, [r7, #30]
1047:openstack/02b-MAChigh/sixtop.c ****                                                   type,
1048:openstack/02b-MAChigh/sixtop.c ****                                                   frameID,
1049:openstack/02b-MAChigh/sixtop.c ****                                                   flag,
1050:openstack/02b-MAChigh/sixtop.c ****                                                   cellList);
1051:openstack/02b-MAChigh/sixtop.c ****     
1052:openstack/02b-MAChigh/sixtop.c ****    if(scheduleCellSuccess){
 2358              		.loc 1 1052 0
 2359 0f9e FB7B     		ldrb	r3, [r7, #15]	@ zero_extendqisi2
 2360 0fa0 002B     		cmp	r3, #0
 2361 0fa2 02D0     		beq	.L120
1053:openstack/02b-MAChigh/sixtop.c ****       bw = bandwidth;
 2362              		.loc 1 1053 0
 2363 0fa4 BB7B     		ldrb	r3, [r7, #14]
 2364 0fa6 FB77     		strb	r3, [r7, #31]
 2365 0fa8 02E0     		b	.L121
 2366              	.L120:
1054:openstack/02b-MAChigh/sixtop.c ****    } else {
1055:openstack/02b-MAChigh/sixtop.c ****       bw = 0;
 2367              		.loc 1 1055 0
 2368 0faa 4FF00003 		mov	r3, #0
 2369 0fae FB77     		strb	r3, [r7, #31]
 2370              	.L121:
1056:openstack/02b-MAChigh/sixtop.c ****    }
1057:openstack/02b-MAChigh/sixtop.c ****    //add BandwidthIE
1058:openstack/02b-MAChigh/sixtop.c ****    len += processIE_prependBandwidthIE(sixtopPkt,bw,frameID);
 2371              		.loc 1 1058 0
 2372 0fb0 FA7F     		ldrb	r2, [r7, #31]	@ zero_extendqisi2
 2373 0fb2 3B7F     		ldrb	r3, [r7, #28]	@ zero_extendqisi2
 2374 0fb4 3869     		ldr	r0, [r7, #16]
 2375 0fb6 1146     		mov	r1, r2
 2376 0fb8 1A46     		mov	r2, r3
 2377 0fba FFF7FEFF 		bl	processIE_prependBandwidthIE
 2378 0fbe 0346     		mov	r3, r0
 2379 0fc0 1A46     		mov	r2, r3
 2380 0fc2 BB7F     		ldrb	r3, [r7, #30]
 2381 0fc4 D318     		adds	r3, r2, r3
 2382 0fc6 BB77     		strb	r3, [r7, #30]
1059:openstack/02b-MAChigh/sixtop.c ****    //add opcodeIE
1060:openstack/02b-MAChigh/sixtop.c ****    len += processIE_prependOpcodeIE(sixtopPkt,SIXTOP_SOFT_CELL_RESPONSE);
 2383              		.loc 1 1060 0
 2384 0fc8 3869     		ldr	r0, [r7, #16]
 2385 0fca 4FF00101 		mov	r1, #1
 2386 0fce FFF7FEFF 		bl	processIE_prependOpcodeIE
 2387 0fd2 0346     		mov	r3, r0
 2388 0fd4 1A46     		mov	r2, r3
 2389 0fd6 BB7F     		ldrb	r3, [r7, #30]
 2390 0fd8 D318     		adds	r3, r2, r3
 2391 0fda BB77     		strb	r3, [r7, #30]
1061:openstack/02b-MAChigh/sixtop.c ****    //add IE header 
1062:openstack/02b-MAChigh/sixtop.c ****    processIE_prependMLMEIE(sixtopPkt,len);
 2392              		.loc 1 1062 0
 2393 0fdc BB7F     		ldrb	r3, [r7, #30]	@ zero_extendqisi2
 2394 0fde 3869     		ldr	r0, [r7, #16]
 2395 0fe0 1946     		mov	r1, r3
 2396 0fe2 FFF7FEFF 		bl	processIE_prependMLMEIE
1063:openstack/02b-MAChigh/sixtop.c ****     
1064:openstack/02b-MAChigh/sixtop.c ****    //I has an IE in my payload
1065:openstack/02b-MAChigh/sixtop.c ****    sixtopPkt->l2_IEListPresent = IEEE154_IELIST_YES;
 2397              		.loc 1 1065 0
 2398 0fe6 3B69     		ldr	r3, [r7, #16]
 2399 0fe8 4FF00102 		mov	r2, #1
 2400 0fec 83F86520 		strb	r2, [r3, #101]
1066:openstack/02b-MAChigh/sixtop.c ****   
1067:openstack/02b-MAChigh/sixtop.c ****    sixtop_send(sixtopPkt);
 2401              		.loc 1 1067 0
 2402 0ff0 3869     		ldr	r0, [r7, #16]
 2403 0ff2 FFF7FEFF 		bl	sixtop_send
1068:openstack/02b-MAChigh/sixtop.c ****   
1069:openstack/02b-MAChigh/sixtop.c ****    sixtop_vars.six2six_state = SIX_WAIT_ADDRESPONSE_SENDDONE;
 2404              		.loc 1 1069 0
 2405 0ff6 40F20003 		movw	r3, #:lower16:sixtop_vars
 2406 0ffa C0F20003 		movt	r3, #:upper16:sixtop_vars
 2407 0ffe 4FF00702 		mov	r2, #7
 2408 1002 9A72     		strb	r2, [r3, #10]
 2409              	.L117:
1070:openstack/02b-MAChigh/sixtop.c **** }
 2410              		.loc 1 1070 0
 2411 1004 07F12007 		add	r7, r7, #32
 2412 1008 BD46     		mov	sp, r7
 2413 100a 80BD     		pop	{r7, pc}
 2414              		.cfi_endproc
 2415              	.LFE20:
 2417              		.align	2
 2418              		.global	sixtop_notifyReceiveLinkResponse
 2419              		.thumb
 2420              		.thumb_func
 2422              	sixtop_notifyReceiveLinkResponse:
 2423              	.LFB21:
1071:openstack/02b-MAChigh/sixtop.c **** 
1072:openstack/02b-MAChigh/sixtop.c **** void sixtop_notifyReceiveLinkResponse(
1073:openstack/02b-MAChigh/sixtop.c ****    bandwidth_IE_ht* bandwidth_ie, 
1074:openstack/02b-MAChigh/sixtop.c ****    schedule_IE_ht* schedule_ie,
1075:openstack/02b-MAChigh/sixtop.c ****    open_addr_t* addr){
 2424              		.loc 1 1075 0
 2425              		.cfi_startproc
 2426              		@ args = 0, pretend = 0, frame = 24
 2427              		@ frame_needed = 1, uses_anonymous_args = 0
 2428 100c 80B5     		push	{r7, lr}
 2429              	.LCFI58:
 2430              		.cfi_def_cfa_offset 8
 2431              		.cfi_offset 7, -8
 2432              		.cfi_offset 14, -4
 2433 100e 88B0     		sub	sp, sp, #32
 2434              	.LCFI59:
 2435              		.cfi_def_cfa_offset 40
 2436 1010 02AF     		add	r7, sp, #8
 2437              	.LCFI60:
 2438              		.cfi_def_cfa 7, 32
 2439 1012 F860     		str	r0, [r7, #12]
 2440 1014 B960     		str	r1, [r7, #8]
 2441 1016 7A60     		str	r2, [r7, #4]
1076:openstack/02b-MAChigh/sixtop.c ****    
1077:openstack/02b-MAChigh/sixtop.c ****    uint8_t bw,numOfcells,frameID;
1078:openstack/02b-MAChigh/sixtop.c ****   
1079:openstack/02b-MAChigh/sixtop.c ****    frameID = schedule_ie->frameID;
 2442              		.loc 1 1079 0
 2443 1018 BB68     		ldr	r3, [r7, #8]
 2444 101a 9B78     		ldrb	r3, [r3, #2]
 2445 101c FB75     		strb	r3, [r7, #23]
1080:openstack/02b-MAChigh/sixtop.c ****    numOfcells = schedule_ie->numberOfcells;
 2446              		.loc 1 1080 0
 2447 101e BB68     		ldr	r3, [r7, #8]
 2448 1020 DB78     		ldrb	r3, [r3, #3]
 2449 1022 BB75     		strb	r3, [r7, #22]
1081:openstack/02b-MAChigh/sixtop.c ****    bw = bandwidth_ie->numOfLinks;
 2450              		.loc 1 1081 0
 2451 1024 FB68     		ldr	r3, [r7, #12]
 2452 1026 5B78     		ldrb	r3, [r3, #1]
 2453 1028 7B75     		strb	r3, [r7, #21]
1082:openstack/02b-MAChigh/sixtop.c ****   
1083:openstack/02b-MAChigh/sixtop.c ****    if(bw == 0){
 2454              		.loc 1 1083 0
 2455 102a 7B7D     		ldrb	r3, [r7, #21]	@ zero_extendqisi2
 2456 102c 002B     		cmp	r3, #0
 2457 102e 39D0     		beq	.L126
 2458              	.L123:
1084:openstack/02b-MAChigh/sixtop.c ****       // link request failed
1085:openstack/02b-MAChigh/sixtop.c ****       // todo- should inform some one
1086:openstack/02b-MAChigh/sixtop.c ****       return;
1087:openstack/02b-MAChigh/sixtop.c ****    } else {
1088:openstack/02b-MAChigh/sixtop.c ****       // need to check whether the links are available to be scheduled.
1089:openstack/02b-MAChigh/sixtop.c ****       if(bw != numOfcells                                                ||
 2459              		.loc 1 1089 0
 2460 1030 7A7D     		ldrb	r2, [r7, #21]	@ zero_extendqisi2
 2461 1032 BB7D     		ldrb	r3, [r7, #22]	@ zero_extendqisi2
 2462 1034 9A42     		cmp	r2, r3
 2463 1036 23D1     		bne	.L125
1090:openstack/02b-MAChigh/sixtop.c ****          schedule_ie->frameID != bandwidth_ie->slotframeID               ||
 2464              		.loc 1 1090 0 discriminator 1
 2465 1038 BB68     		ldr	r3, [r7, #8]
 2466 103a 9A78     		ldrb	r2, [r3, #2]	@ zero_extendqisi2
 2467 103c FB68     		ldr	r3, [r7, #12]
 2468 103e 1B78     		ldrb	r3, [r3, #0]	@ zero_extendqisi2
1089:openstack/02b-MAChigh/sixtop.c ****       if(bw != numOfcells                                                ||
 2469              		.loc 1 1089 0 discriminator 1
 2470 1040 9A42     		cmp	r2, r3
 2471 1042 1DD1     		bne	.L125
1091:openstack/02b-MAChigh/sixtop.c ****          sixtop_areAvailableCellsToBeScheduled(frameID, 
1092:openstack/02b-MAChigh/sixtop.c ****                                                numOfcells, 
1093:openstack/02b-MAChigh/sixtop.c ****                                                schedule_ie->cellList, 
 2472              		.loc 1 1093 0
 2473 1044 BB68     		ldr	r3, [r7, #8]
 2474 1046 03F10502 		add	r2, r3, #5
1091:openstack/02b-MAChigh/sixtop.c ****          sixtop_areAvailableCellsToBeScheduled(frameID, 
 2475              		.loc 1 1091 0
 2476 104a F87D     		ldrb	r0, [r7, #23]	@ zero_extendqisi2
 2477 104c B97D     		ldrb	r1, [r7, #22]	@ zero_extendqisi2
 2478 104e 7B7D     		ldrb	r3, [r7, #21]	@ zero_extendqisi2
 2479 1050 FFF7FEFF 		bl	sixtop_areAvailableCellsToBeScheduled
 2480 1054 0346     		mov	r3, r0
1094:openstack/02b-MAChigh/sixtop.c ****                                                bw) == FALSE){
 2481              		.loc 1 1094 0
 2482 1056 83F00103 		eor	r3, r3, #1
 2483 105a DBB2     		uxtb	r3, r3
1090:openstack/02b-MAChigh/sixtop.c ****          schedule_ie->frameID != bandwidth_ie->slotframeID               ||
 2484              		.loc 1 1090 0
 2485 105c 002B     		cmp	r3, #0
 2486 105e 0FD1     		bne	.L125
1095:openstack/02b-MAChigh/sixtop.c ****          // link request failed,inform uplayer
1096:openstack/02b-MAChigh/sixtop.c ****       } else {
1097:openstack/02b-MAChigh/sixtop.c ****          sixtop_addCellsByState(frameID,
1098:openstack/02b-MAChigh/sixtop.c ****                                 bw,
1099:openstack/02b-MAChigh/sixtop.c ****                                 schedule_ie->cellList,
 2487              		.loc 1 1099 0
 2488 1060 BB68     		ldr	r3, [r7, #8]
 2489 1062 03F10502 		add	r2, r3, #5
1100:openstack/02b-MAChigh/sixtop.c ****                                 addr,
1101:openstack/02b-MAChigh/sixtop.c ****                                 sixtop_vars.six2six_state);
 2490              		.loc 1 1101 0
 2491 1066 40F20003 		movw	r3, #:lower16:sixtop_vars
 2492 106a C0F20003 		movt	r3, #:upper16:sixtop_vars
 2493 106e 987A     		ldrb	r0, [r3, #10]	@ zero_extendqisi2
1097:openstack/02b-MAChigh/sixtop.c ****          sixtop_addCellsByState(frameID,
 2494              		.loc 1 1097 0
 2495 1070 F97D     		ldrb	r1, [r7, #23]	@ zero_extendqisi2
 2496 1072 7B7D     		ldrb	r3, [r7, #21]	@ zero_extendqisi2
 2497 1074 0090     		str	r0, [sp, #0]
 2498 1076 0846     		mov	r0, r1
 2499 1078 1946     		mov	r1, r3
 2500 107a 7B68     		ldr	r3, [r7, #4]
 2501 107c FFF7FEFF 		bl	sixtop_addCellsByState
 2502              	.L125:
1102:openstack/02b-MAChigh/sixtop.c ****       // link request success,inform uplayer
1103:openstack/02b-MAChigh/sixtop.c ****       }
1104:openstack/02b-MAChigh/sixtop.c ****    }
1105:openstack/02b-MAChigh/sixtop.c ****    leds_debug_off();
 2503              		.loc 1 1105 0
 2504 1080 FFF7FEFF 		bl	leds_debug_off
1106:openstack/02b-MAChigh/sixtop.c ****    sixtop_vars.six2six_state = SIX_IDLE;
 2505              		.loc 1 1106 0
 2506 1084 40F20003 		movw	r3, #:lower16:sixtop_vars
 2507 1088 C0F20003 		movt	r3, #:upper16:sixtop_vars
 2508 108c 4FF00002 		mov	r2, #0
 2509 1090 9A72     		strb	r2, [r3, #10]
1107:openstack/02b-MAChigh/sixtop.c ****   
1108:openstack/02b-MAChigh/sixtop.c ****    opentimers_stop(sixtop_vars.timeoutTimerId);
 2510              		.loc 1 1108 0
 2511 1092 40F20003 		movw	r3, #:lower16:sixtop_vars
 2512 1096 C0F20003 		movt	r3, #:upper16:sixtop_vars
 2513 109a DB79     		ldrb	r3, [r3, #7]	@ zero_extendqisi2
 2514 109c 1846     		mov	r0, r3
 2515 109e FFF7FEFF 		bl	opentimers_stop
 2516 10a2 00E0     		b	.L122
 2517              	.L126:
1086:openstack/02b-MAChigh/sixtop.c ****       return;
 2518              		.loc 1 1086 0
 2519 10a4 00BF     		nop
 2520              	.L122:
1109:openstack/02b-MAChigh/sixtop.c **** }
 2521              		.loc 1 1109 0
 2522 10a6 07F11807 		add	r7, r7, #24
 2523 10aa BD46     		mov	sp, r7
 2524 10ac 80BD     		pop	{r7, pc}
 2525              		.cfi_endproc
 2526              	.LFE21:
 2528 10ae 00BF     		.align	2
 2529              		.global	sixtop_notifyReceiveRemoveLinkRequest
 2530              		.thumb
 2531              		.thumb_func
 2533              	sixtop_notifyReceiveRemoveLinkRequest:
 2534              	.LFB22:
1110:openstack/02b-MAChigh/sixtop.c **** 
1111:openstack/02b-MAChigh/sixtop.c **** void sixtop_notifyReceiveRemoveLinkRequest(
1112:openstack/02b-MAChigh/sixtop.c ****    schedule_IE_ht* schedule_ie,
1113:openstack/02b-MAChigh/sixtop.c ****    open_addr_t* addr){
 2535              		.loc 1 1113 0
 2536              		.cfi_startproc
 2537              		@ args = 0, pretend = 0, frame = 16
 2538              		@ frame_needed = 1, uses_anonymous_args = 0
 2539 10b0 80B5     		push	{r7, lr}
 2540              	.LCFI61:
 2541              		.cfi_def_cfa_offset 8
 2542              		.cfi_offset 7, -8
 2543              		.cfi_offset 14, -4
 2544 10b2 84B0     		sub	sp, sp, #16
 2545              	.LCFI62:
 2546              		.cfi_def_cfa_offset 24
 2547 10b4 00AF     		add	r7, sp, #0
 2548              	.LCFI63:
 2549              		.cfi_def_cfa_register 7
 2550 10b6 7860     		str	r0, [r7, #4]
 2551 10b8 3960     		str	r1, [r7, #0]
1114:openstack/02b-MAChigh/sixtop.c ****    
1115:openstack/02b-MAChigh/sixtop.c ****    uint8_t numOfCells,frameID;
1116:openstack/02b-MAChigh/sixtop.c ****    cellInfo_ht* cellList;
1117:openstack/02b-MAChigh/sixtop.c ****   
1118:openstack/02b-MAChigh/sixtop.c ****    numOfCells = schedule_ie->numberOfcells;
 2552              		.loc 1 1118 0
 2553 10ba 7B68     		ldr	r3, [r7, #4]
 2554 10bc DB78     		ldrb	r3, [r3, #3]
 2555 10be FB73     		strb	r3, [r7, #15]
1119:openstack/02b-MAChigh/sixtop.c ****    frameID = schedule_ie->frameID;
 2556              		.loc 1 1119 0
 2557 10c0 7B68     		ldr	r3, [r7, #4]
 2558 10c2 9B78     		ldrb	r3, [r3, #2]
 2559 10c4 BB73     		strb	r3, [r7, #14]
1120:openstack/02b-MAChigh/sixtop.c ****    cellList = schedule_ie->cellList;
 2560              		.loc 1 1120 0
 2561 10c6 7B68     		ldr	r3, [r7, #4]
 2562 10c8 03F10503 		add	r3, r3, #5
 2563 10cc BB60     		str	r3, [r7, #8]
1121:openstack/02b-MAChigh/sixtop.c ****    
1122:openstack/02b-MAChigh/sixtop.c ****    leds_debug_on();
 2564              		.loc 1 1122 0
 2565 10ce FFF7FEFF 		bl	leds_debug_on
1123:openstack/02b-MAChigh/sixtop.c ****    
1124:openstack/02b-MAChigh/sixtop.c ****    sixtop_removeCellsByState(frameID,numOfCells,cellList,addr);
 2566              		.loc 1 1124 0
 2567 10d2 BA7B     		ldrb	r2, [r7, #14]	@ zero_extendqisi2
 2568 10d4 FB7B     		ldrb	r3, [r7, #15]	@ zero_extendqisi2
 2569 10d6 1046     		mov	r0, r2
 2570 10d8 1946     		mov	r1, r3
 2571 10da BA68     		ldr	r2, [r7, #8]
 2572 10dc 3B68     		ldr	r3, [r7, #0]
 2573 10de FFF7FEFF 		bl	sixtop_removeCellsByState
1125:openstack/02b-MAChigh/sixtop.c ****    
1126:openstack/02b-MAChigh/sixtop.c ****    // notify OTF
1127:openstack/02b-MAChigh/sixtop.c ****    otf_notif_removedCell();
 2574              		.loc 1 1127 0
 2575 10e2 FFF7FEFF 		bl	otf_notif_removedCell
1128:openstack/02b-MAChigh/sixtop.c ****    
1129:openstack/02b-MAChigh/sixtop.c ****    sixtop_vars.six2six_state = SIX_IDLE;
 2576              		.loc 1 1129 0
 2577 10e6 40F20003 		movw	r3, #:lower16:sixtop_vars
 2578 10ea C0F20003 		movt	r3, #:upper16:sixtop_vars
 2579 10ee 4FF00002 		mov	r2, #0
 2580 10f2 9A72     		strb	r2, [r3, #10]
1130:openstack/02b-MAChigh/sixtop.c **** 
1131:openstack/02b-MAChigh/sixtop.c ****    leds_debug_off();
 2581              		.loc 1 1131 0
 2582 10f4 FFF7FEFF 		bl	leds_debug_off
1132:openstack/02b-MAChigh/sixtop.c **** }
 2583              		.loc 1 1132 0
 2584 10f8 07F11007 		add	r7, r7, #16
 2585 10fc BD46     		mov	sp, r7
 2586 10fe 80BD     		pop	{r7, pc}
 2587              		.cfi_endproc
 2588              	.LFE22:
 2590              		.align	2
 2591              		.global	sixtop_candidateAddCellList
 2592              		.thumb
 2593              		.thumb_func
 2595              	sixtop_candidateAddCellList:
 2596              	.LFB23:
1133:openstack/02b-MAChigh/sixtop.c **** 
1134:openstack/02b-MAChigh/sixtop.c **** //======= helper functions
1135:openstack/02b-MAChigh/sixtop.c **** 
1136:openstack/02b-MAChigh/sixtop.c **** bool sixtop_candidateAddCellList(
1137:openstack/02b-MAChigh/sixtop.c ****       uint8_t*     type,
1138:openstack/02b-MAChigh/sixtop.c ****       uint8_t*     frameID,
1139:openstack/02b-MAChigh/sixtop.c ****       uint8_t*     flag,
1140:openstack/02b-MAChigh/sixtop.c ****       cellInfo_ht* cellList
1141:openstack/02b-MAChigh/sixtop.c ****    ){
 2597              		.loc 1 1141 0
 2598              		.cfi_startproc
 2599              		@ args = 0, pretend = 0, frame = 24
 2600              		@ frame_needed = 1, uses_anonymous_args = 0
 2601 1100 80B5     		push	{r7, lr}
 2602              	.LCFI64:
 2603              		.cfi_def_cfa_offset 8
 2604              		.cfi_offset 7, -8
 2605              		.cfi_offset 14, -4
 2606 1102 86B0     		sub	sp, sp, #24
 2607              	.LCFI65:
 2608              		.cfi_def_cfa_offset 32
 2609 1104 00AF     		add	r7, sp, #0
 2610              	.LCFI66:
 2611              		.cfi_def_cfa_register 7
 2612 1106 F860     		str	r0, [r7, #12]
 2613 1108 B960     		str	r1, [r7, #8]
 2614 110a 7A60     		str	r2, [r7, #4]
 2615 110c 3B60     		str	r3, [r7, #0]
1142:openstack/02b-MAChigh/sixtop.c ****    uint8_t i;
1143:openstack/02b-MAChigh/sixtop.c ****    uint8_t numCandCells;
1144:openstack/02b-MAChigh/sixtop.c ****    
1145:openstack/02b-MAChigh/sixtop.c ****    *type = 1;
 2616              		.loc 1 1145 0
 2617 110e FB68     		ldr	r3, [r7, #12]
 2618 1110 4FF00102 		mov	r2, #1
 2619 1114 1A70     		strb	r2, [r3, #0]
1146:openstack/02b-MAChigh/sixtop.c ****    *frameID = SCHEDULE_MINIMAL_6TISCH_DEFAULT_SLOTFRAME_HANDLE;
 2620              		.loc 1 1146 0
 2621 1116 BB68     		ldr	r3, [r7, #8]
 2622 1118 4FF00102 		mov	r2, #1
 2623 111c 1A70     		strb	r2, [r3, #0]
1147:openstack/02b-MAChigh/sixtop.c ****    *flag = 1; // the cells listed in cellList are available to be schedule.
 2624              		.loc 1 1147 0
 2625 111e 7B68     		ldr	r3, [r7, #4]
 2626 1120 4FF00102 		mov	r2, #1
 2627 1124 1A70     		strb	r2, [r3, #0]
1148:openstack/02b-MAChigh/sixtop.c ****    
1149:openstack/02b-MAChigh/sixtop.c ****    numCandCells=0;
 2628              		.loc 1 1149 0
 2629 1126 4FF00003 		mov	r3, #0
 2630 112a BB75     		strb	r3, [r7, #22]
1150:openstack/02b-MAChigh/sixtop.c ****    for(i=0;i<MAXACTIVESLOTS;i++){
 2631              		.loc 1 1150 0
 2632 112c 4FF00003 		mov	r3, #0
 2633 1130 FB75     		strb	r3, [r7, #23]
 2634 1132 33E0     		b	.L129
 2635              	.L132:
1151:openstack/02b-MAChigh/sixtop.c ****       if(schedule_isSlotOffsetAvailable(i)==TRUE){
 2636              		.loc 1 1151 0
 2637 1134 FB7D     		ldrb	r3, [r7, #23]	@ zero_extendqisi2
 2638 1136 9BB2     		uxth	r3, r3
 2639 1138 1846     		mov	r0, r3
 2640 113a FFF7FEFF 		bl	schedule_isSlotOffsetAvailable
 2641 113e 0346     		mov	r3, r0
 2642 1140 002B     		cmp	r3, #0
 2643 1142 27D0     		beq	.L130
1152:openstack/02b-MAChigh/sixtop.c ****          cellList[numCandCells].tsNum       = i;
 2644              		.loc 1 1152 0
 2645 1144 BA7D     		ldrb	r2, [r7, #22]	@ zero_extendqisi2
 2646 1146 1346     		mov	r3, r2
 2647 1148 4FEA8303 		lsl	r3, r3, #2
 2648 114c 9B18     		adds	r3, r3, r2
 2649 114e 3A68     		ldr	r2, [r7, #0]
 2650 1150 D318     		adds	r3, r2, r3
 2651 1152 FA7D     		ldrb	r2, [r7, #23]	@ zero_extendqisi2
 2652 1154 92B2     		uxth	r2, r2
 2653 1156 1A80     		strh	r2, [r3, #0]	@ unaligned
1153:openstack/02b-MAChigh/sixtop.c ****          cellList[numCandCells].choffset    = 0;
 2654              		.loc 1 1153 0
 2655 1158 BA7D     		ldrb	r2, [r7, #22]	@ zero_extendqisi2
 2656 115a 1346     		mov	r3, r2
 2657 115c 4FEA8303 		lsl	r3, r3, #2
 2658 1160 9B18     		adds	r3, r3, r2
 2659 1162 3A68     		ldr	r2, [r7, #0]
 2660 1164 D318     		adds	r3, r2, r3
 2661 1166 4FF00002 		mov	r2, #0
 2662 116a 9A70     		strb	r2, [r3, #2]
 2663 116c 4FF00002 		mov	r2, #0
 2664 1170 DA70     		strb	r2, [r3, #3]
1154:openstack/02b-MAChigh/sixtop.c ****          cellList[numCandCells].linkoptions = CELLTYPE_TX;
 2665              		.loc 1 1154 0
 2666 1172 BA7D     		ldrb	r2, [r7, #22]	@ zero_extendqisi2
 2667 1174 1346     		mov	r3, r2
 2668 1176 4FEA8303 		lsl	r3, r3, #2
 2669 117a 9B18     		adds	r3, r3, r2
 2670 117c 3A68     		ldr	r2, [r7, #0]
 2671 117e D318     		adds	r3, r2, r3
 2672 1180 4FF00202 		mov	r2, #2
 2673 1184 1A71     		strb	r2, [r3, #4]
1155:openstack/02b-MAChigh/sixtop.c ****          numCandCells++;
 2674              		.loc 1 1155 0
 2675 1186 BB7D     		ldrb	r3, [r7, #22]
 2676 1188 03F10103 		add	r3, r3, #1
 2677 118c BB75     		strb	r3, [r7, #22]
1156:openstack/02b-MAChigh/sixtop.c ****          if(numCandCells==SCHEDULEIEMAXNUMCELLS){
 2678              		.loc 1 1156 0
 2679 118e BB7D     		ldrb	r3, [r7, #22]	@ zero_extendqisi2
 2680 1190 032B     		cmp	r3, #3
 2681 1192 07D0     		beq	.L135
 2682              	.L130:
1150:openstack/02b-MAChigh/sixtop.c ****    for(i=0;i<MAXACTIVESLOTS;i++){
 2683              		.loc 1 1150 0
 2684 1194 FB7D     		ldrb	r3, [r7, #23]
 2685 1196 03F10103 		add	r3, r3, #1
 2686 119a FB75     		strb	r3, [r7, #23]
 2687              	.L129:
1150:openstack/02b-MAChigh/sixtop.c ****    for(i=0;i<MAXACTIVESLOTS;i++){
 2688              		.loc 1 1150 0 is_stmt 0 discriminator 1
 2689 119c FB7D     		ldrb	r3, [r7, #23]	@ zero_extendqisi2
 2690 119e 082B     		cmp	r3, #8
 2691 11a0 C8D9     		bls	.L132
 2692 11a2 00E0     		b	.L131
 2693              	.L135:
1157:openstack/02b-MAChigh/sixtop.c ****             break;
 2694              		.loc 1 1157 0 is_stmt 1
 2695 11a4 00BF     		nop
 2696              	.L131:
1158:openstack/02b-MAChigh/sixtop.c ****          }
1159:openstack/02b-MAChigh/sixtop.c ****       }
1160:openstack/02b-MAChigh/sixtop.c ****    }
1161:openstack/02b-MAChigh/sixtop.c ****    
1162:openstack/02b-MAChigh/sixtop.c ****    if (numCandCells==0) {
 2697              		.loc 1 1162 0
 2698 11a6 BB7D     		ldrb	r3, [r7, #22]	@ zero_extendqisi2
 2699 11a8 002B     		cmp	r3, #0
 2700 11aa 02D1     		bne	.L133
1163:openstack/02b-MAChigh/sixtop.c ****       return FALSE;
 2701              		.loc 1 1163 0
 2702 11ac 4FF00003 		mov	r3, #0
 2703 11b0 01E0     		b	.L134
 2704              	.L133:
1164:openstack/02b-MAChigh/sixtop.c ****    } else {
1165:openstack/02b-MAChigh/sixtop.c ****       return TRUE;
 2705              		.loc 1 1165 0
 2706 11b2 4FF00103 		mov	r3, #1
 2707              	.L134:
1166:openstack/02b-MAChigh/sixtop.c ****    }
1167:openstack/02b-MAChigh/sixtop.c **** }
 2708              		.loc 1 1167 0
 2709 11b6 1846     		mov	r0, r3
 2710 11b8 07F11807 		add	r7, r7, #24
 2711 11bc BD46     		mov	sp, r7
 2712 11be 80BD     		pop	{r7, pc}
 2713              		.cfi_endproc
 2714              	.LFE23:
 2716              		.align	2
 2717              		.global	sixtop_candidateRemoveCellList
 2718              		.thumb
 2719              		.thumb_func
 2721              	sixtop_candidateRemoveCellList:
 2722              	.LFB24:
1168:openstack/02b-MAChigh/sixtop.c **** 
1169:openstack/02b-MAChigh/sixtop.c **** bool sixtop_candidateRemoveCellList(
1170:openstack/02b-MAChigh/sixtop.c ****       uint8_t*     type,
1171:openstack/02b-MAChigh/sixtop.c ****       uint8_t*     frameID,
1172:openstack/02b-MAChigh/sixtop.c ****       uint8_t*     flag,
1173:openstack/02b-MAChigh/sixtop.c ****       cellInfo_ht* cellList,
1174:openstack/02b-MAChigh/sixtop.c ****       open_addr_t* neighbor
1175:openstack/02b-MAChigh/sixtop.c ****    ){
 2723              		.loc 1 1175 0
 2724              		.cfi_startproc
 2725              		@ args = 4, pretend = 0, frame = 32
 2726              		@ frame_needed = 1, uses_anonymous_args = 0
 2727 11c0 80B5     		push	{r7, lr}
 2728              	.LCFI67:
 2729              		.cfi_def_cfa_offset 8
 2730              		.cfi_offset 7, -8
 2731              		.cfi_offset 14, -4
 2732 11c2 88B0     		sub	sp, sp, #32
 2733              	.LCFI68:
 2734              		.cfi_def_cfa_offset 40
 2735 11c4 00AF     		add	r7, sp, #0
 2736              	.LCFI69:
 2737              		.cfi_def_cfa_register 7
 2738 11c6 F860     		str	r0, [r7, #12]
 2739 11c8 B960     		str	r1, [r7, #8]
 2740 11ca 7A60     		str	r2, [r7, #4]
 2741 11cc 3B60     		str	r3, [r7, #0]
1176:openstack/02b-MAChigh/sixtop.c ****    uint8_t              i;
1177:openstack/02b-MAChigh/sixtop.c ****    uint8_t              numCandCells;
1178:openstack/02b-MAChigh/sixtop.c ****    slotinfo_element_t   info;
1179:openstack/02b-MAChigh/sixtop.c ****    
1180:openstack/02b-MAChigh/sixtop.c ****    *type           = 1;
 2742              		.loc 1 1180 0
 2743 11ce FB68     		ldr	r3, [r7, #12]
 2744 11d0 4FF00102 		mov	r2, #1
 2745 11d4 1A70     		strb	r2, [r3, #0]
1181:openstack/02b-MAChigh/sixtop.c ****    *frameID        = SCHEDULE_MINIMAL_6TISCH_DEFAULT_SLOTFRAME_HANDLE;
 2746              		.loc 1 1181 0
 2747 11d6 BB68     		ldr	r3, [r7, #8]
 2748 11d8 4FF00102 		mov	r2, #1
 2749 11dc 1A70     		strb	r2, [r3, #0]
1182:openstack/02b-MAChigh/sixtop.c ****    *flag           = 1;
 2750              		.loc 1 1182 0
 2751 11de 7B68     		ldr	r3, [r7, #4]
 2752 11e0 4FF00102 		mov	r2, #1
 2753 11e4 1A70     		strb	r2, [r3, #0]
1183:openstack/02b-MAChigh/sixtop.c ****   
1184:openstack/02b-MAChigh/sixtop.c ****    numCandCells    = 0;
 2754              		.loc 1 1184 0
 2755 11e6 4FF00003 		mov	r3, #0
 2756 11ea BB77     		strb	r3, [r7, #30]
1185:openstack/02b-MAChigh/sixtop.c ****    for(i=0;i<MAXACTIVESLOTS;i++){
 2757              		.loc 1 1185 0
 2758 11ec 4FF00003 		mov	r3, #0
 2759 11f0 FB77     		strb	r3, [r7, #31]
 2760 11f2 31E0     		b	.L137
 2761              	.L140:
1186:openstack/02b-MAChigh/sixtop.c ****       schedule_getSlotInfo(i,neighbor,&info);
 2762              		.loc 1 1186 0
 2763 11f4 FB7F     		ldrb	r3, [r7, #31]	@ zero_extendqisi2
 2764 11f6 9AB2     		uxth	r2, r3
 2765 11f8 07F11003 		add	r3, r7, #16
 2766 11fc 1046     		mov	r0, r2
 2767 11fe B96A     		ldr	r1, [r7, #40]
 2768 1200 1A46     		mov	r2, r3
 2769 1202 FFF7FEFF 		bl	schedule_getSlotInfo
1187:openstack/02b-MAChigh/sixtop.c ****       if(info.link_type == CELLTYPE_TX){
 2770              		.loc 1 1187 0
 2771 1206 3B7E     		ldrb	r3, [r7, #24]	@ zero_extendqisi2
 2772 1208 022B     		cmp	r3, #2
 2773 120a 21D1     		bne	.L138
1188:openstack/02b-MAChigh/sixtop.c ****          cellList[numCandCells].tsNum       = i;
 2774              		.loc 1 1188 0
 2775 120c BA7F     		ldrb	r2, [r7, #30]	@ zero_extendqisi2
 2776 120e 1346     		mov	r3, r2
 2777 1210 4FEA8303 		lsl	r3, r3, #2
 2778 1214 9B18     		adds	r3, r3, r2
 2779 1216 3A68     		ldr	r2, [r7, #0]
 2780 1218 D318     		adds	r3, r2, r3
 2781 121a FA7F     		ldrb	r2, [r7, #31]	@ zero_extendqisi2
 2782 121c 92B2     		uxth	r2, r2
 2783 121e 1A80     		strh	r2, [r3, #0]	@ unaligned
1189:openstack/02b-MAChigh/sixtop.c ****          cellList[numCandCells].choffset    = info.channelOffset;
 2784              		.loc 1 1189 0
 2785 1220 BA7F     		ldrb	r2, [r7, #30]	@ zero_extendqisi2
 2786 1222 1346     		mov	r3, r2
 2787 1224 4FEA8303 		lsl	r3, r3, #2
 2788 1228 9B18     		adds	r3, r3, r2
 2789 122a 3A68     		ldr	r2, [r7, #0]
 2790 122c D318     		adds	r3, r2, r3
 2791 122e 3A7F     		ldrb	r2, [r7, #28]	@ zero_extendqisi2
 2792 1230 5A80     		strh	r2, [r3, #2]	@ unaligned
1190:openstack/02b-MAChigh/sixtop.c ****          cellList[numCandCells].linkoptions = CELLTYPE_TX;
 2793              		.loc 1 1190 0
 2794 1232 BA7F     		ldrb	r2, [r7, #30]	@ zero_extendqisi2
 2795 1234 1346     		mov	r3, r2
 2796 1236 4FEA8303 		lsl	r3, r3, #2
 2797 123a 9B18     		adds	r3, r3, r2
 2798 123c 3A68     		ldr	r2, [r7, #0]
 2799 123e D318     		adds	r3, r2, r3
 2800 1240 4FF00202 		mov	r2, #2
 2801 1244 1A71     		strb	r2, [r3, #4]
1191:openstack/02b-MAChigh/sixtop.c ****          numCandCells++;
 2802              		.loc 1 1191 0
 2803 1246 BB7F     		ldrb	r3, [r7, #30]
 2804 1248 03F10103 		add	r3, r3, #1
 2805 124c BB77     		strb	r3, [r7, #30]
1192:openstack/02b-MAChigh/sixtop.c ****          break; // only delete one cell
 2806              		.loc 1 1192 0
 2807 124e 06E0     		b	.L139
 2808              	.L138:
1185:openstack/02b-MAChigh/sixtop.c ****    for(i=0;i<MAXACTIVESLOTS;i++){
 2809              		.loc 1 1185 0
 2810 1250 FB7F     		ldrb	r3, [r7, #31]
 2811 1252 03F10103 		add	r3, r3, #1
 2812 1256 FB77     		strb	r3, [r7, #31]
 2813              	.L137:
1185:openstack/02b-MAChigh/sixtop.c ****    for(i=0;i<MAXACTIVESLOTS;i++){
 2814              		.loc 1 1185 0 is_stmt 0 discriminator 1
 2815 1258 FB7F     		ldrb	r3, [r7, #31]	@ zero_extendqisi2
 2816 125a 082B     		cmp	r3, #8
 2817 125c CAD9     		bls	.L140
 2818              	.L139:
1193:openstack/02b-MAChigh/sixtop.c ****       }
1194:openstack/02b-MAChigh/sixtop.c ****    }
1195:openstack/02b-MAChigh/sixtop.c ****    
1196:openstack/02b-MAChigh/sixtop.c ****    if(numCandCells==0){
 2819              		.loc 1 1196 0 is_stmt 1
 2820 125e BB7F     		ldrb	r3, [r7, #30]	@ zero_extendqisi2
 2821 1260 002B     		cmp	r3, #0
 2822 1262 02D1     		bne	.L141
1197:openstack/02b-MAChigh/sixtop.c ****       return FALSE;
 2823              		.loc 1 1197 0
 2824 1264 4FF00003 		mov	r3, #0
 2825 1268 01E0     		b	.L143
 2826              	.L141:
1198:openstack/02b-MAChigh/sixtop.c ****    }else{
1199:openstack/02b-MAChigh/sixtop.c ****       return TRUE;
 2827              		.loc 1 1199 0
 2828 126a 4FF00103 		mov	r3, #1
 2829              	.L143:
1200:openstack/02b-MAChigh/sixtop.c ****    }
1201:openstack/02b-MAChigh/sixtop.c **** }
 2830              		.loc 1 1201 0
 2831 126e 1846     		mov	r0, r3
 2832 1270 07F12007 		add	r7, r7, #32
 2833 1274 BD46     		mov	sp, r7
 2834 1276 80BD     		pop	{r7, pc}
 2835              		.cfi_endproc
 2836              	.LFE24:
 2838              		.align	2
 2839              		.global	sixtop_addCellsByState
 2840              		.thumb
 2841              		.thumb_func
 2843              	sixtop_addCellsByState:
 2844              	.LFB25:
1202:openstack/02b-MAChigh/sixtop.c **** 
1203:openstack/02b-MAChigh/sixtop.c **** void sixtop_addCellsByState(
1204:openstack/02b-MAChigh/sixtop.c ****       uint8_t      slotframeID,
1205:openstack/02b-MAChigh/sixtop.c ****       uint8_t      numOfLinks,
1206:openstack/02b-MAChigh/sixtop.c ****       cellInfo_ht* cellList,
1207:openstack/02b-MAChigh/sixtop.c ****       open_addr_t* previousHop,
1208:openstack/02b-MAChigh/sixtop.c ****       uint8_t      state
1209:openstack/02b-MAChigh/sixtop.c ****    ){
 2845              		.loc 1 1209 0
 2846              		.cfi_startproc
 2847              		@ args = 4, pretend = 0, frame = 40
 2848              		@ frame_needed = 1, uses_anonymous_args = 0
 2849 1278 B0B5     		push	{r4, r5, r7, lr}
 2850              	.LCFI70:
 2851              		.cfi_def_cfa_offset 16
 2852              		.cfi_offset 4, -16
 2853              		.cfi_offset 5, -12
 2854              		.cfi_offset 7, -8
 2855              		.cfi_offset 14, -4
 2856 127a 8CB0     		sub	sp, sp, #48
 2857              	.LCFI71:
 2858              		.cfi_def_cfa_offset 64
 2859 127c 02AF     		add	r7, sp, #8
 2860              	.LCFI72:
 2861              		.cfi_def_cfa 7, 56
 2862 127e BA60     		str	r2, [r7, #8]
 2863 1280 7B60     		str	r3, [r7, #4]
 2864 1282 0346     		mov	r3, r0
 2865 1284 FB73     		strb	r3, [r7, #15]
 2866 1286 0B46     		mov	r3, r1
 2867 1288 BB73     		strb	r3, [r7, #14]
1210:openstack/02b-MAChigh/sixtop.c ****    uint8_t     i;
1211:openstack/02b-MAChigh/sixtop.c ****    uint8_t     j;
1212:openstack/02b-MAChigh/sixtop.c ****    open_addr_t temp_neighbor;
1213:openstack/02b-MAChigh/sixtop.c ****   
1214:openstack/02b-MAChigh/sixtop.c ****    //set schedule according links
1215:openstack/02b-MAChigh/sixtop.c ****    
1216:openstack/02b-MAChigh/sixtop.c ****    j=0;
 2868              		.loc 1 1216 0
 2869 128a 4FF00003 		mov	r3, #0
 2870 128e 87F82630 		strb	r3, [r7, #38]
1217:openstack/02b-MAChigh/sixtop.c ****    for(i = 0;i<SCHEDULEIEMAXNUMCELLS;i++){
 2871              		.loc 1 1217 0
 2872 1292 4FF00003 		mov	r3, #0
 2873 1296 87F82730 		strb	r3, [r7, #39]
 2874 129a 78E0     		b	.L145
 2875              	.L152:
1218:openstack/02b-MAChigh/sixtop.c ****       //only schedule when the request side wants to schedule a tx cell
1219:openstack/02b-MAChigh/sixtop.c ****       if(cellList[i].linkoptions == CELLTYPE_TX){
 2876              		.loc 1 1219 0
 2877 129c 97F82720 		ldrb	r2, [r7, #39]	@ zero_extendqisi2
 2878 12a0 1346     		mov	r3, r2
 2879 12a2 4FEA8303 		lsl	r3, r3, #2
 2880 12a6 9B18     		adds	r3, r3, r2
 2881 12a8 BA68     		ldr	r2, [r7, #8]
 2882 12aa D318     		adds	r3, r2, r3
 2883 12ac 1B79     		ldrb	r3, [r3, #4]	@ zero_extendqisi2
 2884 12ae 022B     		cmp	r3, #2
 2885 12b0 67D1     		bne	.L146
1220:openstack/02b-MAChigh/sixtop.c ****          switch(state) {
 2886              		.loc 1 1220 0
 2887 12b2 97F83830 		ldrb	r3, [r7, #56]	@ zero_extendqisi2
 2888 12b6 042B     		cmp	r3, #4
 2889 12b8 2CD0     		beq	.L148
 2890 12ba 052B     		cmp	r3, #5
 2891 12bc 55D1     		bne	.L153
 2892              	.L149:
1221:openstack/02b-MAChigh/sixtop.c ****             case SIX_ADDREQUEST_RECEIVED:
1222:openstack/02b-MAChigh/sixtop.c ****                memcpy(&temp_neighbor,previousHop,sizeof(open_addr_t));
 2893              		.loc 1 1222 0
 2894 12be 7B68     		ldr	r3, [r7, #4]
 2895 12c0 07F11404 		add	r4, r7, #20
 2896 12c4 1D46     		mov	r5, r3
 2897 12c6 2868     		ldr	r0, [r5, #0]	@ unaligned
 2898 12c8 6968     		ldr	r1, [r5, #4]	@ unaligned
 2899 12ca AA68     		ldr	r2, [r5, #8]	@ unaligned
 2900 12cc EB68     		ldr	r3, [r5, #12]	@ unaligned
 2901 12ce 0FC4     		stmia	r4!, {r0, r1, r2, r3}
 2902 12d0 2B7C     		ldrb	r3, [r5, #16]
 2903 12d2 2370     		strb	r3, [r4, #0]
1223:openstack/02b-MAChigh/sixtop.c ****                
1224:openstack/02b-MAChigh/sixtop.c ****                //add a RX link
1225:openstack/02b-MAChigh/sixtop.c ****                schedule_addActiveSlot(
1226:openstack/02b-MAChigh/sixtop.c ****                   cellList[i].tsNum,
 2904              		.loc 1 1226 0
 2905 12d4 97F82720 		ldrb	r2, [r7, #39]	@ zero_extendqisi2
 2906 12d8 1346     		mov	r3, r2
 2907 12da 4FEA8303 		lsl	r3, r3, #2
 2908 12de 9B18     		adds	r3, r3, r2
 2909 12e0 BA68     		ldr	r2, [r7, #8]
 2910 12e2 D318     		adds	r3, r2, r3
1225:openstack/02b-MAChigh/sixtop.c ****                schedule_addActiveSlot(
 2911              		.loc 1 1225 0
 2912 12e4 1B88     		ldrh	r3, [r3, #0]	@ unaligned
 2913 12e6 99B2     		uxth	r1, r3
1227:openstack/02b-MAChigh/sixtop.c ****                   CELLTYPE_RX,
1228:openstack/02b-MAChigh/sixtop.c ****                   FALSE,
1229:openstack/02b-MAChigh/sixtop.c ****                   cellList[i].choffset,
 2914              		.loc 1 1229 0
 2915 12e8 97F82720 		ldrb	r2, [r7, #39]	@ zero_extendqisi2
 2916 12ec 1346     		mov	r3, r2
 2917 12ee 4FEA8303 		lsl	r3, r3, #2
 2918 12f2 9B18     		adds	r3, r3, r2
 2919 12f4 BA68     		ldr	r2, [r7, #8]
 2920 12f6 D318     		adds	r3, r2, r3
 2921 12f8 5B88     		ldrh	r3, [r3, #2]	@ unaligned
 2922 12fa 9BB2     		uxth	r3, r3
1225:openstack/02b-MAChigh/sixtop.c ****                schedule_addActiveSlot(
 2923              		.loc 1 1225 0
 2924 12fc DBB2     		uxtb	r3, r3
 2925 12fe 07F11402 		add	r2, r7, #20
 2926 1302 0092     		str	r2, [sp, #0]
 2927 1304 0846     		mov	r0, r1
 2928 1306 4FF00301 		mov	r1, #3
 2929 130a 4FF00002 		mov	r2, #0
 2930 130e FFF7FEFF 		bl	schedule_addActiveSlot
1230:openstack/02b-MAChigh/sixtop.c ****                   &temp_neighbor
1231:openstack/02b-MAChigh/sixtop.c ****                );
1232:openstack/02b-MAChigh/sixtop.c ****                
1233:openstack/02b-MAChigh/sixtop.c ****                break;
 2931              		.loc 1 1233 0
 2932 1312 2BE0     		b	.L150
 2933              	.L148:
1234:openstack/02b-MAChigh/sixtop.c ****             case SIX_ADDRESPONSE_RECEIVED:
1235:openstack/02b-MAChigh/sixtop.c ****                memcpy(&temp_neighbor,previousHop,sizeof(open_addr_t));
 2934              		.loc 1 1235 0
 2935 1314 7B68     		ldr	r3, [r7, #4]
 2936 1316 07F11404 		add	r4, r7, #20
 2937 131a 1D46     		mov	r5, r3
 2938 131c 2868     		ldr	r0, [r5, #0]	@ unaligned
 2939 131e 6968     		ldr	r1, [r5, #4]	@ unaligned
 2940 1320 AA68     		ldr	r2, [r5, #8]	@ unaligned
 2941 1322 EB68     		ldr	r3, [r5, #12]	@ unaligned
 2942 1324 0FC4     		stmia	r4!, {r0, r1, r2, r3}
 2943 1326 2B7C     		ldrb	r3, [r5, #16]
 2944 1328 2370     		strb	r3, [r4, #0]
1236:openstack/02b-MAChigh/sixtop.c ****                //add a TX link
1237:openstack/02b-MAChigh/sixtop.c ****                schedule_addActiveSlot(
1238:openstack/02b-MAChigh/sixtop.c ****                   cellList[i].tsNum,
 2945              		.loc 1 1238 0
 2946 132a 97F82720 		ldrb	r2, [r7, #39]	@ zero_extendqisi2
 2947 132e 1346     		mov	r3, r2
 2948 1330 4FEA8303 		lsl	r3, r3, #2
 2949 1334 9B18     		adds	r3, r3, r2
 2950 1336 BA68     		ldr	r2, [r7, #8]
 2951 1338 D318     		adds	r3, r2, r3
1237:openstack/02b-MAChigh/sixtop.c ****                schedule_addActiveSlot(
 2952              		.loc 1 1237 0
 2953 133a 1B88     		ldrh	r3, [r3, #0]	@ unaligned
 2954 133c 99B2     		uxth	r1, r3
1239:openstack/02b-MAChigh/sixtop.c ****                   CELLTYPE_TX,
1240:openstack/02b-MAChigh/sixtop.c ****                   FALSE,
1241:openstack/02b-MAChigh/sixtop.c ****                   cellList[i].choffset,
 2955              		.loc 1 1241 0
 2956 133e 97F82720 		ldrb	r2, [r7, #39]	@ zero_extendqisi2
 2957 1342 1346     		mov	r3, r2
 2958 1344 4FEA8303 		lsl	r3, r3, #2
 2959 1348 9B18     		adds	r3, r3, r2
 2960 134a BA68     		ldr	r2, [r7, #8]
 2961 134c D318     		adds	r3, r2, r3
 2962 134e 5B88     		ldrh	r3, [r3, #2]	@ unaligned
 2963 1350 9BB2     		uxth	r3, r3
1237:openstack/02b-MAChigh/sixtop.c ****                schedule_addActiveSlot(
 2964              		.loc 1 1237 0
 2965 1352 DBB2     		uxtb	r3, r3
 2966 1354 07F11402 		add	r2, r7, #20
 2967 1358 0092     		str	r2, [sp, #0]
 2968 135a 0846     		mov	r0, r1
 2969 135c 4FF00201 		mov	r1, #2
 2970 1360 4FF00002 		mov	r2, #0
 2971 1364 FFF7FEFF 		bl	schedule_addActiveSlot
1242:openstack/02b-MAChigh/sixtop.c ****                   &temp_neighbor
1243:openstack/02b-MAChigh/sixtop.c ****                );
1244:openstack/02b-MAChigh/sixtop.c ****                break;
 2972              		.loc 1 1244 0
 2973 1368 00E0     		b	.L150
 2974              	.L153:
1245:openstack/02b-MAChigh/sixtop.c ****             default:
1246:openstack/02b-MAChigh/sixtop.c ****                //log error
1247:openstack/02b-MAChigh/sixtop.c ****                break;
 2975              		.loc 1 1247 0
 2976 136a 00BF     		nop
 2977              	.L150:
1248:openstack/02b-MAChigh/sixtop.c ****          }
1249:openstack/02b-MAChigh/sixtop.c ****          j++;
 2978              		.loc 1 1249 0
 2979 136c 97F82630 		ldrb	r3, [r7, #38]
 2980 1370 03F10103 		add	r3, r3, #1
 2981 1374 87F82630 		strb	r3, [r7, #38]
1250:openstack/02b-MAChigh/sixtop.c ****          if(j==numOfLinks){
 2982              		.loc 1 1250 0
 2983 1378 97F82620 		ldrb	r2, [r7, #38]	@ zero_extendqisi2
 2984 137c BB7B     		ldrb	r3, [r7, #14]	@ zero_extendqisi2
 2985 137e 9A42     		cmp	r2, r3
 2986 1380 0AD0     		beq	.L154
 2987              	.L146:
1217:openstack/02b-MAChigh/sixtop.c ****    for(i = 0;i<SCHEDULEIEMAXNUMCELLS;i++){
 2988              		.loc 1 1217 0
 2989 1382 97F82730 		ldrb	r3, [r7, #39]
 2990 1386 03F10103 		add	r3, r3, #1
 2991 138a 87F82730 		strb	r3, [r7, #39]
 2992              	.L145:
1217:openstack/02b-MAChigh/sixtop.c ****    for(i = 0;i<SCHEDULEIEMAXNUMCELLS;i++){
 2993              		.loc 1 1217 0 is_stmt 0 discriminator 1
 2994 138e 97F82730 		ldrb	r3, [r7, #39]	@ zero_extendqisi2
 2995 1392 022B     		cmp	r3, #2
 2996 1394 82D9     		bls	.L152
 2997 1396 00E0     		b	.L144
 2998              	.L154:
1251:openstack/02b-MAChigh/sixtop.c ****             break;
 2999              		.loc 1 1251 0 is_stmt 1
 3000 1398 00BF     		nop
 3001              	.L144:
1252:openstack/02b-MAChigh/sixtop.c ****          }
1253:openstack/02b-MAChigh/sixtop.c ****       }
1254:openstack/02b-MAChigh/sixtop.c ****    }
1255:openstack/02b-MAChigh/sixtop.c **** }
 3002              		.loc 1 1255 0
 3003 139a 07F12807 		add	r7, r7, #40
 3004 139e BD46     		mov	sp, r7
 3005 13a0 B0BD     		pop	{r4, r5, r7, pc}
 3006              		.cfi_endproc
 3007              	.LFE25:
 3009 13a2 00BF     		.align	2
 3010              		.global	sixtop_removeCellsByState
 3011              		.thumb
 3012              		.thumb_func
 3014              	sixtop_removeCellsByState:
 3015              	.LFB26:
1256:openstack/02b-MAChigh/sixtop.c **** 
1257:openstack/02b-MAChigh/sixtop.c **** void sixtop_removeCellsByState(
1258:openstack/02b-MAChigh/sixtop.c ****       uint8_t      slotframeID,
1259:openstack/02b-MAChigh/sixtop.c ****       uint8_t      numOfLink,
1260:openstack/02b-MAChigh/sixtop.c ****       cellInfo_ht* cellList,
1261:openstack/02b-MAChigh/sixtop.c ****       open_addr_t* previousHop
1262:openstack/02b-MAChigh/sixtop.c ****    ){
 3016              		.loc 1 1262 0
 3017              		.cfi_startproc
 3018              		@ args = 0, pretend = 0, frame = 24
 3019              		@ frame_needed = 1, uses_anonymous_args = 0
 3020 13a4 80B5     		push	{r7, lr}
 3021              	.LCFI73:
 3022              		.cfi_def_cfa_offset 8
 3023              		.cfi_offset 7, -8
 3024              		.cfi_offset 14, -4
 3025 13a6 86B0     		sub	sp, sp, #24
 3026              	.LCFI74:
 3027              		.cfi_def_cfa_offset 32
 3028 13a8 00AF     		add	r7, sp, #0
 3029              	.LCFI75:
 3030              		.cfi_def_cfa_register 7
 3031 13aa BA60     		str	r2, [r7, #8]
 3032 13ac 7B60     		str	r3, [r7, #4]
 3033 13ae 0346     		mov	r3, r0
 3034 13b0 FB73     		strb	r3, [r7, #15]
 3035 13b2 0B46     		mov	r3, r1
 3036 13b4 BB73     		strb	r3, [r7, #14]
1263:openstack/02b-MAChigh/sixtop.c ****    uint8_t i;
1264:openstack/02b-MAChigh/sixtop.c ****    
1265:openstack/02b-MAChigh/sixtop.c ****    for(i=0;i<numOfLink;i++){   
 3037              		.loc 1 1265 0
 3038 13b6 4FF00003 		mov	r3, #0
 3039 13ba FB75     		strb	r3, [r7, #23]
 3040 13bc 1AE0     		b	.L156
 3041              	.L158:
1266:openstack/02b-MAChigh/sixtop.c ****       if(cellList[i].linkoptions == CELLTYPE_TX){
 3042              		.loc 1 1266 0
 3043 13be FA7D     		ldrb	r2, [r7, #23]	@ zero_extendqisi2
 3044 13c0 1346     		mov	r3, r2
 3045 13c2 4FEA8303 		lsl	r3, r3, #2
 3046 13c6 9B18     		adds	r3, r3, r2
 3047 13c8 BA68     		ldr	r2, [r7, #8]
 3048 13ca D318     		adds	r3, r2, r3
 3049 13cc 1B79     		ldrb	r3, [r3, #4]	@ zero_extendqisi2
 3050 13ce 022B     		cmp	r3, #2
 3051 13d0 0CD1     		bne	.L157
1267:openstack/02b-MAChigh/sixtop.c ****          schedule_removeActiveSlot(
1268:openstack/02b-MAChigh/sixtop.c ****             cellList[i].tsNum,
 3052              		.loc 1 1268 0
 3053 13d2 FA7D     		ldrb	r2, [r7, #23]	@ zero_extendqisi2
 3054 13d4 1346     		mov	r3, r2
 3055 13d6 4FEA8303 		lsl	r3, r3, #2
 3056 13da 9B18     		adds	r3, r3, r2
 3057 13dc BA68     		ldr	r2, [r7, #8]
 3058 13de D318     		adds	r3, r2, r3
1267:openstack/02b-MAChigh/sixtop.c ****          schedule_removeActiveSlot(
 3059              		.loc 1 1267 0
 3060 13e0 1B88     		ldrh	r3, [r3, #0]	@ unaligned
 3061 13e2 9BB2     		uxth	r3, r3
 3062 13e4 1846     		mov	r0, r3
 3063 13e6 7968     		ldr	r1, [r7, #4]
 3064 13e8 FFF7FEFF 		bl	schedule_removeActiveSlot
 3065              	.L157:
1265:openstack/02b-MAChigh/sixtop.c ****    for(i=0;i<numOfLink;i++){   
 3066              		.loc 1 1265 0
 3067 13ec FB7D     		ldrb	r3, [r7, #23]
 3068 13ee 03F10103 		add	r3, r3, #1
 3069 13f2 FB75     		strb	r3, [r7, #23]
 3070              	.L156:
1265:openstack/02b-MAChigh/sixtop.c ****    for(i=0;i<numOfLink;i++){   
 3071              		.loc 1 1265 0 is_stmt 0 discriminator 1
 3072 13f4 FA7D     		ldrb	r2, [r7, #23]	@ zero_extendqisi2
 3073 13f6 BB7B     		ldrb	r3, [r7, #14]	@ zero_extendqisi2
 3074 13f8 9A42     		cmp	r2, r3
 3075 13fa E0D3     		bcc	.L158
1269:openstack/02b-MAChigh/sixtop.c ****             previousHop
1270:openstack/02b-MAChigh/sixtop.c ****          );
1271:openstack/02b-MAChigh/sixtop.c ****       }
1272:openstack/02b-MAChigh/sixtop.c ****    }
1273:openstack/02b-MAChigh/sixtop.c **** }
 3076              		.loc 1 1273 0 is_stmt 1
 3077 13fc 07F11807 		add	r7, r7, #24
 3078 1400 BD46     		mov	sp, r7
 3079 1402 80BD     		pop	{r7, pc}
 3080              		.cfi_endproc
 3081              	.LFE26:
 3083              		.align	2
 3084              		.global	sixtop_areAvailableCellsToBeScheduled
 3085              		.thumb
 3086              		.thumb_func
 3088              	sixtop_areAvailableCellsToBeScheduled:
 3089              	.LFB27:
1274:openstack/02b-MAChigh/sixtop.c **** 
1275:openstack/02b-MAChigh/sixtop.c **** bool sixtop_areAvailableCellsToBeScheduled(
1276:openstack/02b-MAChigh/sixtop.c ****       uint8_t      frameID, 
1277:openstack/02b-MAChigh/sixtop.c ****       uint8_t      numOfCells, 
1278:openstack/02b-MAChigh/sixtop.c ****       cellInfo_ht* cellList, 
1279:openstack/02b-MAChigh/sixtop.c ****       uint8_t      bandwidth
1280:openstack/02b-MAChigh/sixtop.c ****    ){
 3090              		.loc 1 1280 0
 3091              		.cfi_startproc
 3092              		@ args = 0, pretend = 0, frame = 16
 3093              		@ frame_needed = 1, uses_anonymous_args = 0
 3094 1404 80B5     		push	{r7, lr}
 3095              	.LCFI76:
 3096              		.cfi_def_cfa_offset 8
 3097              		.cfi_offset 7, -8
 3098              		.cfi_offset 14, -4
 3099 1406 84B0     		sub	sp, sp, #16
 3100              	.LCFI77:
 3101              		.cfi_def_cfa_offset 24
 3102 1408 00AF     		add	r7, sp, #0
 3103              	.LCFI78:
 3104              		.cfi_def_cfa_register 7
 3105 140a 3A60     		str	r2, [r7, #0]
 3106 140c 0246     		mov	r2, r0
 3107 140e FA71     		strb	r2, [r7, #7]
 3108 1410 0A46     		mov	r2, r1
 3109 1412 BA71     		strb	r2, [r7, #6]
 3110 1414 7B71     		strb	r3, [r7, #5]
1281:openstack/02b-MAChigh/sixtop.c ****    uint8_t i;
1282:openstack/02b-MAChigh/sixtop.c ****    uint8_t bw;
1283:openstack/02b-MAChigh/sixtop.c ****    bool    available;
1284:openstack/02b-MAChigh/sixtop.c ****    
1285:openstack/02b-MAChigh/sixtop.c ****    i          = 0;
 3111              		.loc 1 1285 0
 3112 1416 4FF00003 		mov	r3, #0
 3113 141a FB73     		strb	r3, [r7, #15]
1286:openstack/02b-MAChigh/sixtop.c ****    bw         = bandwidth;
 3114              		.loc 1 1286 0
 3115 141c 7B79     		ldrb	r3, [r7, #5]
 3116 141e BB73     		strb	r3, [r7, #14]
1287:openstack/02b-MAChigh/sixtop.c ****    available  = FALSE;
 3117              		.loc 1 1287 0
 3118 1420 4FF00003 		mov	r3, #0
 3119 1424 7B73     		strb	r3, [r7, #13]
1288:openstack/02b-MAChigh/sixtop.c ****   
1289:openstack/02b-MAChigh/sixtop.c ****    if(bw == 0 || bw>SCHEDULEIEMAXNUMCELLS || numOfCells>SCHEDULEIEMAXNUMCELLS){
 3120              		.loc 1 1289 0
 3121 1426 BB7B     		ldrb	r3, [r7, #14]	@ zero_extendqisi2
 3122 1428 002B     		cmp	r3, #0
 3123 142a 05D0     		beq	.L160
 3124              		.loc 1 1289 0 is_stmt 0 discriminator 1
 3125 142c BB7B     		ldrb	r3, [r7, #14]	@ zero_extendqisi2
 3126 142e 032B     		cmp	r3, #3
 3127 1430 02D8     		bhi	.L160
 3128 1432 BB79     		ldrb	r3, [r7, #6]	@ zero_extendqisi2
 3129 1434 032B     		cmp	r3, #3
 3130 1436 03D9     		bls	.L161
 3131              	.L160:
1290:openstack/02b-MAChigh/sixtop.c ****       // log wrong parameter error TODO
1291:openstack/02b-MAChigh/sixtop.c ****     
1292:openstack/02b-MAChigh/sixtop.c ****       available = FALSE;
 3132              		.loc 1 1292 0 is_stmt 1
 3133 1438 4FF00003 		mov	r3, #0
 3134 143c 7B73     		strb	r3, [r7, #13]
 3135 143e 45E0     		b	.L162
 3136              	.L161:
1293:openstack/02b-MAChigh/sixtop.c ****    } else {
1294:openstack/02b-MAChigh/sixtop.c ****       do {
1295:openstack/02b-MAChigh/sixtop.c ****          if(schedule_isSlotOffsetAvailable(cellList[i].tsNum) == TRUE){
 3137              		.loc 1 1295 0
 3138 1440 FA7B     		ldrb	r2, [r7, #15]	@ zero_extendqisi2
 3139 1442 1346     		mov	r3, r2
 3140 1444 4FEA8303 		lsl	r3, r3, #2
 3141 1448 9B18     		adds	r3, r3, r2
 3142 144a 3A68     		ldr	r2, [r7, #0]
 3143 144c D318     		adds	r3, r2, r3
 3144 144e 1B88     		ldrh	r3, [r3, #0]	@ unaligned
 3145 1450 9BB2     		uxth	r3, r3
 3146 1452 1846     		mov	r0, r3
 3147 1454 FFF7FEFF 		bl	schedule_isSlotOffsetAvailable
 3148 1458 0346     		mov	r3, r0
 3149 145a 002B     		cmp	r3, #0
 3150 145c 04D0     		beq	.L163
1296:openstack/02b-MAChigh/sixtop.c ****             bw--;
 3151              		.loc 1 1296 0
 3152 145e BB7B     		ldrb	r3, [r7, #14]
 3153 1460 03F1FF33 		add	r3, r3, #-1
 3154 1464 BB73     		strb	r3, [r7, #14]
 3155 1466 09E0     		b	.L164
 3156              	.L163:
1297:openstack/02b-MAChigh/sixtop.c ****          } else {
1298:openstack/02b-MAChigh/sixtop.c ****             cellList[i].linkoptions = CELLTYPE_OFF;
 3157              		.loc 1 1298 0
 3158 1468 FA7B     		ldrb	r2, [r7, #15]	@ zero_extendqisi2
 3159 146a 1346     		mov	r3, r2
 3160 146c 4FEA8303 		lsl	r3, r3, #2
 3161 1470 9B18     		adds	r3, r3, r2
 3162 1472 3A68     		ldr	r2, [r7, #0]
 3163 1474 D318     		adds	r3, r2, r3
 3164 1476 4FF00002 		mov	r2, #0
 3165 147a 1A71     		strb	r2, [r3, #4]
 3166              	.L164:
1299:openstack/02b-MAChigh/sixtop.c ****          }
1300:openstack/02b-MAChigh/sixtop.c ****          i++;
 3167              		.loc 1 1300 0
 3168 147c FB7B     		ldrb	r3, [r7, #15]
 3169 147e 03F10103 		add	r3, r3, #1
 3170 1482 FB73     		strb	r3, [r7, #15]
1301:openstack/02b-MAChigh/sixtop.c ****       }while(i<numOfCells && bw>0);
 3171              		.loc 1 1301 0
 3172 1484 FA7B     		ldrb	r2, [r7, #15]	@ zero_extendqisi2
 3173 1486 BB79     		ldrb	r3, [r7, #6]	@ zero_extendqisi2
 3174 1488 9A42     		cmp	r2, r3
 3175 148a 02D2     		bcs	.L165
 3176              		.loc 1 1301 0 is_stmt 0 discriminator 1
 3177 148c BB7B     		ldrb	r3, [r7, #14]	@ zero_extendqisi2
 3178 148e 002B     		cmp	r3, #0
 3179 1490 D6D1     		bne	.L161
 3180              	.L165:
1302:openstack/02b-MAChigh/sixtop.c ****       
1303:openstack/02b-MAChigh/sixtop.c ****       if(bw==0){
 3181              		.loc 1 1303 0 is_stmt 1
 3182 1492 BB7B     		ldrb	r3, [r7, #14]	@ zero_extendqisi2
 3183 1494 002B     		cmp	r3, #0
 3184 1496 16D1     		bne	.L166
1304:openstack/02b-MAChigh/sixtop.c ****          //the rest link will not be scheduled, mark them as off type
1305:openstack/02b-MAChigh/sixtop.c ****          while(i<numOfCells){
 3185              		.loc 1 1305 0
 3186 1498 0DE0     		b	.L167
 3187              	.L168:
1306:openstack/02b-MAChigh/sixtop.c ****             cellList[i].linkoptions = CELLTYPE_OFF;
 3188              		.loc 1 1306 0
 3189 149a FA7B     		ldrb	r2, [r7, #15]	@ zero_extendqisi2
 3190 149c 1346     		mov	r3, r2
 3191 149e 4FEA8303 		lsl	r3, r3, #2
 3192 14a2 9B18     		adds	r3, r3, r2
 3193 14a4 3A68     		ldr	r2, [r7, #0]
 3194 14a6 D318     		adds	r3, r2, r3
 3195 14a8 4FF00002 		mov	r2, #0
 3196 14ac 1A71     		strb	r2, [r3, #4]
1307:openstack/02b-MAChigh/sixtop.c ****             i++;
 3197              		.loc 1 1307 0
 3198 14ae FB7B     		ldrb	r3, [r7, #15]
 3199 14b0 03F10103 		add	r3, r3, #1
 3200 14b4 FB73     		strb	r3, [r7, #15]
 3201              	.L167:
1305:openstack/02b-MAChigh/sixtop.c ****          while(i<numOfCells){
 3202              		.loc 1 1305 0 discriminator 1
 3203 14b6 FA7B     		ldrb	r2, [r7, #15]	@ zero_extendqisi2
 3204 14b8 BB79     		ldrb	r3, [r7, #6]	@ zero_extendqisi2
 3205 14ba 9A42     		cmp	r2, r3
 3206 14bc EDD3     		bcc	.L168
1308:openstack/02b-MAChigh/sixtop.c ****          }
1309:openstack/02b-MAChigh/sixtop.c ****          // local schedule can statisfy the bandwidth of cell request. 
1310:openstack/02b-MAChigh/sixtop.c ****          available = TRUE;
 3207              		.loc 1 1310 0
 3208 14be 4FF00103 		mov	r3, #1
 3209 14c2 7B73     		strb	r3, [r7, #13]
 3210 14c4 02E0     		b	.L162
 3211              	.L166:
1311:openstack/02b-MAChigh/sixtop.c ****       } else {
1312:openstack/02b-MAChigh/sixtop.c ****          // local schedule can't statisfy the bandwidth of cell request
1313:openstack/02b-MAChigh/sixtop.c ****          available = FALSE;
 3212              		.loc 1 1313 0
 3213 14c6 4FF00003 		mov	r3, #0
 3214 14ca 7B73     		strb	r3, [r7, #13]
 3215              	.L162:
1314:openstack/02b-MAChigh/sixtop.c ****       }
1315:openstack/02b-MAChigh/sixtop.c ****    }
1316:openstack/02b-MAChigh/sixtop.c ****    
1317:openstack/02b-MAChigh/sixtop.c ****    return available;
 3216              		.loc 1 1317 0
 3217 14cc 7B7B     		ldrb	r3, [r7, #13]	@ zero_extendqisi2
1318:openstack/02b-MAChigh/sixtop.c **** }
 3218              		.loc 1 1318 0
 3219 14ce 1846     		mov	r0, r3
 3220 14d0 07F11007 		add	r7, r7, #16
 3221 14d4 BD46     		mov	sp, r7
 3222 14d6 80BD     		pop	{r7, pc}
 3223              		.cfi_endproc
 3224              	.LFE27:
 3226              	.Letext0:
 3227              		.file 2 "/opt/gcc-arm-none-eabi-4_7-2013q3/bin/../lib/gcc/arm-none-eabi/4.7.4/../../../../arm-none
 3228              		.file 3 "inc/opendefs.h"
 3229              		.file 4 "drivers/common/opentimers.h"
 3230              		.file 5 "openstack/02b-MAChigh/sixtop.h"
 3231              		.file 6 "openstack/02b-MAChigh/schedule.h"
 3232              		.file 7 "openstack/02b-MAChigh/processIE.h"
 3233              		.file 8 "openstack/02a-MAClow/IEEE802154.h"
 3234              		.file 9 "kernel/scheduler.h"
 3235              		.file 10 "bsp/boards/OpenMote-CC2538/board_info.h"
 3236              		.file 11 "openstack/03b-IPv6/icmpv6rpl.h"