   1              		.syntax unified
   2              		.cpu cortex-m3
   3              		.fpu softvfp
   4              		.eabi_attribute 20, 1
   5              		.eabi_attribute 21, 1
   6              		.eabi_attribute 23, 3
   7              		.eabi_attribute 24, 1
   8              		.eabi_attribute 25, 1
   9              		.eabi_attribute 26, 1
  10              		.eabi_attribute 30, 6
  11              		.eabi_attribute 34, 1
  12              		.eabi_attribute 18, 4
  13              		.thumb
  14              		.file	"IEEE802154Ecsl.c"
  15              		.text
  16              	.Ltext0:
  17              		.cfi_sections	.debug_frame
  18              		.section	.rodata
  19              		.align	2
  22              	rreg_uriquery:
  23 0000 683D7563 		.ascii	"h=ucb\000"
  23      6200
  24 0006 0000     		.align	2
  27              	infoBoardname:
  28 0008 43433235 		.ascii	"CC2538\000"
  28      333800
  29 000f 00       		.align	2
  32              	infouCName:
  33 0010 43433235 		.ascii	"CC2538\000"
  33      333800
  34 0017 00       		.align	2
  37              	infoRadioName:
  38 0018 43433235 		.ascii	"CC2538 SoC\000"
  38      33382053 
  38      6F4300
  39 0023 00       		.align	2
  42              	infoStackName:
  43 0024 4F70656E 		.ascii	"OpenWSN \000"
  43      57534E20 
  43      00
  44 002d 000000   		.align	2
  47              	all_routers_multicast:
  48 0030 FF       		.byte	-1
  49 0031 02       		.byte	2
  50 0032 00       		.byte	0
  51 0033 00       		.byte	0
  52 0034 00       		.byte	0
  53 0035 00       		.byte	0
  54 0036 00       		.byte	0
  55 0037 00       		.byte	0
  56 0038 00       		.byte	0
  57 0039 00       		.byte	0
  58 003a 00       		.byte	0
  59 003b 00       		.byte	0
  60 003c 00       		.byte	0
  61 003d 00       		.byte	0
  62 003e 00       		.byte	0
  63 003f 02       		.byte	2
  64              		.comm	ieee154e_vars,76,4
  65              		.comm	ieee154e_stats,15,4
  66              		.comm	ieee154e_dbg,20,4
  67              		.text
  68              		.align	2
  69              		.global	ieee154e_init
  70              		.thumb
  71              		.thumb_func
  73              	ieee154e_init:
  74              	.LFB0:
  75              		.file 1 "openstack/02a-MAClow/IEEE802154Ecsl.c"
   1:openstack/02a-MAClow/IEEE802154Ecsl.c **** #include "IEEE802154Ecsl.h"
   2:openstack/02a-MAClow/IEEE802154Ecsl.c **** 
   3:openstack/02a-MAClow/IEEE802154Ecsl.c **** #include "opendefs.h"
   4:openstack/02a-MAClow/IEEE802154Ecsl.c **** #include "radio.h"
   5:openstack/02a-MAClow/IEEE802154Ecsl.c **** #include "radiotimer.h"
   6:openstack/02a-MAClow/IEEE802154Ecsl.c **** #include "IEEE802154.h"
   7:openstack/02a-MAClow/IEEE802154Ecsl.c **** #include "openqueue.h"
   8:openstack/02a-MAClow/IEEE802154Ecsl.c **** #include "idmanager.h"
   9:openstack/02a-MAClow/IEEE802154Ecsl.c **** #include "openserial.h"
  10:openstack/02a-MAClow/IEEE802154Ecsl.c **** #include "schedule.h"
  11:openstack/02a-MAClow/IEEE802154Ecsl.c **** #include "packetfunctions.h"
  12:openstack/02a-MAClow/IEEE802154Ecsl.c **** #include "scheduler.h"
  13:openstack/02a-MAClow/IEEE802154Ecsl.c **** #include "leds.h"
  14:openstack/02a-MAClow/IEEE802154Ecsl.c **** #include "neighbors.h"
  15:openstack/02a-MAClow/IEEE802154Ecsl.c **** #include "debugpins.h"
  16:openstack/02a-MAClow/IEEE802154Ecsl.c **** #include "sixtop.h"
  17:openstack/02a-MAClow/IEEE802154Ecsl.c **** #include "adaptive_sync.h"
  18:openstack/02a-MAClow/IEEE802154Ecsl.c **** #include "processIE.h"
  19:openstack/02a-MAClow/IEEE802154Ecsl.c **** 
  20:openstack/02a-MAClow/IEEE802154Ecsl.c **** //======================================================================
  21:openstack/02a-MAClow/IEEE802154Ecsl.c **** //=========================== VARIABLES ================================
  22:openstack/02a-MAClow/IEEE802154Ecsl.c **** //======================================================================
  23:openstack/02a-MAClow/IEEE802154Ecsl.c **** 
  24:openstack/02a-MAClow/IEEE802154Ecsl.c **** ieee154e_vars_t	   ieee154e_vars;
  25:openstack/02a-MAClow/IEEE802154Ecsl.c **** ieee154e_stats_t   ieee154e_stats;
  26:openstack/02a-MAClow/IEEE802154Ecsl.c **** ieee154e_dbg_t     ieee154e_dbg;
  27:openstack/02a-MAClow/IEEE802154Ecsl.c **** 
  28:openstack/02a-MAClow/IEEE802154Ecsl.c **** //======================================================================
  29:openstack/02a-MAClow/IEEE802154Ecsl.c **** //========================== PROTOTYPES ================================
  30:openstack/02a-MAClow/IEEE802154Ecsl.c **** //======================================================================
  31:openstack/02a-MAClow/IEEE802154Ecsl.c **** 
  32:openstack/02a-MAClow/IEEE802154Ecsl.c **** // [CSL]: FSM activities prototypes.
  33:openstack/02a-MAClow/IEEE802154Ecsl.c **** 
  34:openstack/02a-MAClow/IEEE802154Ecsl.c **** // TX-MODE: CSL Frame sending activities prototypes
  35:openstack/02a-MAClow/IEEE802154Ecsl.c **** void    activity_csl_wakeup_ti1(void);
  36:openstack/02a-MAClow/IEEE802154Ecsl.c **** void    activity_csl_wakeup_ti2(void);
  37:openstack/02a-MAClow/IEEE802154Ecsl.c **** void    activity_csl_wakeup_tie1(void);
  38:openstack/02a-MAClow/IEEE802154Ecsl.c **** void    activity_csl_wakeup_ti3(void);
  39:openstack/02a-MAClow/IEEE802154Ecsl.c **** void    activity_csl_wakeup_tie2(void);
  40:openstack/02a-MAClow/IEEE802154Ecsl.c **** void    activity_csl_wakeup_ti4(PORT_RADIOTIMER_WIDTH capturedTime);
  41:openstack/02a-MAClow/IEEE802154Ecsl.c **** void    activity_csl_wakeup_tie3(void);
  42:openstack/02a-MAClow/IEEE802154Ecsl.c **** void    activity_csl_wakeup_ti5(PORT_RADIOTIMER_WIDTH capturedTime);
  43:openstack/02a-MAClow/IEEE802154Ecsl.c **** 
  44:openstack/02a-MAClow/IEEE802154Ecsl.c **** void    activity_csl_data_ti1(void);
  45:openstack/02a-MAClow/IEEE802154Ecsl.c **** void    activity_csl_data_ti2(void);
  46:openstack/02a-MAClow/IEEE802154Ecsl.c **** void    activity_csl_data_tie1(void);
  47:openstack/02a-MAClow/IEEE802154Ecsl.c **** void    activity_csl_data_ti3(void);
  48:openstack/02a-MAClow/IEEE802154Ecsl.c **** void    activity_csl_data_tie2(void);
  49:openstack/02a-MAClow/IEEE802154Ecsl.c **** void    activity_csl_data_ti4(PORT_RADIOTIMER_WIDTH capturedTime);
  50:openstack/02a-MAClow/IEEE802154Ecsl.c **** void	activity_csl_data_tie3(void);
  51:openstack/02a-MAClow/IEEE802154Ecsl.c **** void    activity_csl_data_ti5(PORT_RADIOTIMER_WIDTH capturedTime);
  52:openstack/02a-MAClow/IEEE802154Ecsl.c **** void    activity_csl_data_ti6(void);
  53:openstack/02a-MAClow/IEEE802154Ecsl.c **** void    activity_csl_data_tie4(void);
  54:openstack/02a-MAClow/IEEE802154Ecsl.c **** void	activity_csl_data_ti7(void);
  55:openstack/02a-MAClow/IEEE802154Ecsl.c **** void    activity_csl_data_tie5(void);
  56:openstack/02a-MAClow/IEEE802154Ecsl.c **** void    activity_csl_data_ti8(PORT_RADIOTIMER_WIDTH capturedTime);
  57:openstack/02a-MAClow/IEEE802154Ecsl.c **** void    activity_csl_data_tie6(void);
  58:openstack/02a-MAClow/IEEE802154Ecsl.c **** void    activity_csl_data_ti9(PORT_RADIOTIMER_WIDTH capturedTime);
  59:openstack/02a-MAClow/IEEE802154Ecsl.c **** 
  60:openstack/02a-MAClow/IEEE802154Ecsl.c **** // RX-MODE: CSL Sampling activities prototypes
  61:openstack/02a-MAClow/IEEE802154Ecsl.c **** void 	activity_csl_wakeup_ri1(void);
  62:openstack/02a-MAClow/IEEE802154Ecsl.c **** void 	activity_csl_wakeup_ri2(void);
  63:openstack/02a-MAClow/IEEE802154Ecsl.c **** void    activity_csl_wakeup_rie1(void);
  64:openstack/02a-MAClow/IEEE802154Ecsl.c **** void    activity_csl_wakeup_ri3(void);
  65:openstack/02a-MAClow/IEEE802154Ecsl.c **** void    activity_csl_wakeup_rie2(void);
  66:openstack/02a-MAClow/IEEE802154Ecsl.c **** void    activity_csl_wakeup_ri4(PORT_RADIOTIMER_WIDTH capturedTime);
  67:openstack/02a-MAClow/IEEE802154Ecsl.c **** void    activity_csl_wakeup_rie3(void);
  68:openstack/02a-MAClow/IEEE802154Ecsl.c **** void    activity_csl_wakeup_ri5(PORT_RADIOTIMER_WIDTH capturedTime);
  69:openstack/02a-MAClow/IEEE802154Ecsl.c **** void    activity_csl_wakeup_rie4(void);
  70:openstack/02a-MAClow/IEEE802154Ecsl.c **** 
  71:openstack/02a-MAClow/IEEE802154Ecsl.c **** void    activity_csl_data_ri2(void);
  72:openstack/02a-MAClow/IEEE802154Ecsl.c **** void    activity_csl_data_rie1(void);
  73:openstack/02a-MAClow/IEEE802154Ecsl.c **** void    activity_csl_data_ri3(void);
  74:openstack/02a-MAClow/IEEE802154Ecsl.c **** void    activity_csl_data_rie2(void);
  75:openstack/02a-MAClow/IEEE802154Ecsl.c **** void    activity_csl_data_ri4(PORT_RADIOTIMER_WIDTH capturedTime);
  76:openstack/02a-MAClow/IEEE802154Ecsl.c **** void	activity_csl_data_rie3(void);
  77:openstack/02a-MAClow/IEEE802154Ecsl.c **** void    activity_csl_data_ri5(PORT_RADIOTIMER_WIDTH capturedTime);
  78:openstack/02a-MAClow/IEEE802154Ecsl.c **** void    activity_csl_data_ri6(void);
  79:openstack/02a-MAClow/IEEE802154Ecsl.c **** void    activity_csl_data_rie4(void);
  80:openstack/02a-MAClow/IEEE802154Ecsl.c **** void	activity_csl_data_ri7(void);
  81:openstack/02a-MAClow/IEEE802154Ecsl.c **** void    activity_csl_data_rie5(void);
  82:openstack/02a-MAClow/IEEE802154Ecsl.c **** void    activity_csl_data_ri8(PORT_RADIOTIMER_WIDTH capturedTime);
  83:openstack/02a-MAClow/IEEE802154Ecsl.c **** void    activity_csl_data_rie6(void);
  84:openstack/02a-MAClow/IEEE802154Ecsl.c **** void    activity_csl_data_ri9(PORT_RADIOTIMER_WIDTH capturedTime);
  85:openstack/02a-MAClow/IEEE802154Ecsl.c **** 
  86:openstack/02a-MAClow/IEEE802154Ecsl.c **** // frame validity check
  87:openstack/02a-MAClow/IEEE802154Ecsl.c **** bool     isValidRxFrame(ieee802154_header_iht* ieee802514_header);
  88:openstack/02a-MAClow/IEEE802154Ecsl.c **** bool     isValidAck(ieee802154_header_iht*     ieee802514_header,
  89:openstack/02a-MAClow/IEEE802154Ecsl.c ****                     OpenQueueEntry_t*          packetSent);
  90:openstack/02a-MAClow/IEEE802154Ecsl.c **** void     changeIsSync(bool newIsSync);
  91:openstack/02a-MAClow/IEEE802154Ecsl.c **** 
  92:openstack/02a-MAClow/IEEE802154Ecsl.c **** // statistics
  93:openstack/02a-MAClow/IEEE802154Ecsl.c **** void     resetStats(void);
  94:openstack/02a-MAClow/IEEE802154Ecsl.c **** void     updateStats(PORT_SIGNED_INT_WIDTH timeCorrection);
  95:openstack/02a-MAClow/IEEE802154Ecsl.c **** 
  96:openstack/02a-MAClow/IEEE802154Ecsl.c **** // notifying upper layer
  97:openstack/02a-MAClow/IEEE802154Ecsl.c **** void     notif_sendDone(OpenQueueEntry_t* packetSent, owerror_t error);
  98:openstack/02a-MAClow/IEEE802154Ecsl.c **** void     notif_receive(OpenQueueEntry_t* packetReceived, uint8_t action);
  99:openstack/02a-MAClow/IEEE802154Ecsl.c **** 
 100:openstack/02a-MAClow/IEEE802154Ecsl.c **** // IEs Handling
 101:openstack/02a-MAClow/IEEE802154Ecsl.c **** bool     ieee154e_processIEs(OpenQueueEntry_t* pkt, uint16_t* lenIE);
 102:openstack/02a-MAClow/IEEE802154Ecsl.c **** 
 103:openstack/02a-MAClow/IEEE802154Ecsl.c **** // ASN handling
 104:openstack/02a-MAClow/IEEE802154Ecsl.c **** void     incrementAsnOffset(void);
 105:openstack/02a-MAClow/IEEE802154Ecsl.c **** void     asnStoreFromAdv(uint8_t* asn);
 106:openstack/02a-MAClow/IEEE802154Ecsl.c **** void     joinPriorityStoreFromAdv(uint8_t jp);
 107:openstack/02a-MAClow/IEEE802154Ecsl.c **** 
 108:openstack/02a-MAClow/IEEE802154Ecsl.c **** // misc
 109:openstack/02a-MAClow/IEEE802154Ecsl.c **** void     changeState(ieee154e_state_t newstate);
 110:openstack/02a-MAClow/IEEE802154Ecsl.c **** void     endOps(void);
 111:openstack/02a-MAClow/IEEE802154Ecsl.c **** bool     debugPrint_asn(void);
 112:openstack/02a-MAClow/IEEE802154Ecsl.c **** bool     debugPrint_isSync(void);
 113:openstack/02a-MAClow/IEEE802154Ecsl.c **** 
 114:openstack/02a-MAClow/IEEE802154Ecsl.c **** // CSL Sampling interrupts
 115:openstack/02a-MAClow/IEEE802154Ecsl.c **** void     isr_ieee154ecsl_newChannelSample(void);
 116:openstack/02a-MAClow/IEEE802154Ecsl.c **** void     isr_ieee154ecsl_timer(void);
 117:openstack/02a-MAClow/IEEE802154Ecsl.c **** 
 118:openstack/02a-MAClow/IEEE802154Ecsl.c **** // [CSL]: queue checking for local transmissions
 119:openstack/02a-MAClow/IEEE802154Ecsl.c **** void 	 isr_ieee154ecsl_txtimer_cb(void);
 120:openstack/02a-MAClow/IEEE802154Ecsl.c **** 
 121:openstack/02a-MAClow/IEEE802154Ecsl.c **** // [CSL-TEST]: Testing callback to put a packet on queue for testing CSL Tx mode.
 122:openstack/02a-MAClow/IEEE802154Ecsl.c **** void     isr_ieee154ecsl_addPacketToQueueForTestingCslTx_cb (void);
 123:openstack/02a-MAClow/IEEE802154Ecsl.c **** 
 124:openstack/02a-MAClow/IEEE802154Ecsl.c **** // [CSL]: Wake-up frames prototypes (create and retrieve methods).
 125:openstack/02a-MAClow/IEEE802154Ecsl.c **** void 	ieee802154_retrieveWakeUpFrame(OpenQueueEntry_t* msg, ieee802154_header_iht* ieee802514_heade
 126:openstack/02a-MAClow/IEEE802154Ecsl.c **** void    ieee802154_createWakeUpFrame(OpenQueueEntry_t* msg, uint8_t sequenceNumber, open_addr_t* ne
 127:openstack/02a-MAClow/IEEE802154Ecsl.c **** 
 128:openstack/02a-MAClow/IEEE802154Ecsl.c **** 
 129:openstack/02a-MAClow/IEEE802154Ecsl.c **** //======================================================================
 130:openstack/02a-MAClow/IEEE802154Ecsl.c **** //========================== INITIALIZATION ============================
 131:openstack/02a-MAClow/IEEE802154Ecsl.c **** //======================================================================
 132:openstack/02a-MAClow/IEEE802154Ecsl.c **** 
 133:openstack/02a-MAClow/IEEE802154Ecsl.c **** /**
 134:openstack/02a-MAClow/IEEE802154Ecsl.c ****   \brief This function initializes this module.
 135:openstack/02a-MAClow/IEEE802154Ecsl.c **** 
 136:openstack/02a-MAClow/IEEE802154Ecsl.c ****   Call this function once before any other function in this module, possibly during boot-up.
 137:openstack/02a-MAClow/IEEE802154Ecsl.c **** */
 138:openstack/02a-MAClow/IEEE802154Ecsl.c **** // [CSL]: Modificaciones sobre método inicial referidas a los temporizadores y al estado inicial.
 139:openstack/02a-MAClow/IEEE802154Ecsl.c **** void ieee154e_init() {
  76              		.loc 1 139 0
  77              		.cfi_startproc
  78              		@ args = 0, pretend = 0, frame = 0
  79              		@ frame_needed = 1, uses_anonymous_args = 0
  80 0000 80B5     		push	{r7, lr}
  81              	.LCFI0:
  82              		.cfi_def_cfa_offset 8
  83              		.cfi_offset 7, -8
  84              		.cfi_offset 14, -4
  85 0002 00AF     		add	r7, sp, #0
  86              	.LCFI1:
  87              		.cfi_def_cfa_register 7
 140:openstack/02a-MAClow/IEEE802154Ecsl.c ****    
 141:openstack/02a-MAClow/IEEE802154Ecsl.c ****    // initialize variables
 142:openstack/02a-MAClow/IEEE802154Ecsl.c ****    memset(&ieee154e_vars,0,sizeof(ieee154e_vars_t));
  88              		.loc 1 142 0
  89 0004 40F20000 		movw	r0, #:lower16:ieee154e_vars
  90 0008 C0F20000 		movt	r0, #:upper16:ieee154e_vars
  91 000c 4FF00001 		mov	r1, #0
  92 0010 4FF04C02 		mov	r2, #76
  93 0014 FFF7FEFF 		bl	memset
 143:openstack/02a-MAClow/IEEE802154Ecsl.c ****    memset(&ieee154e_dbg,0,sizeof(ieee154e_dbg_t));
  94              		.loc 1 143 0
  95 0018 40F20000 		movw	r0, #:lower16:ieee154e_dbg
  96 001c C0F20000 		movt	r0, #:upper16:ieee154e_dbg
  97 0020 4FF00001 		mov	r1, #0
  98 0024 4FF01402 		mov	r2, #20
  99 0028 FFF7FEFF 		bl	memset
 144:openstack/02a-MAClow/IEEE802154Ecsl.c ****    
 145:openstack/02a-MAClow/IEEE802154Ecsl.c ****    if (idmanager_getIsDAGroot()==TRUE) {
 100              		.loc 1 145 0
 101 002c FFF7FEFF 		bl	idmanager_getIsDAGroot
 102 0030 0346     		mov	r3, r0
 103 0032 002B     		cmp	r3, #0
 104 0034 04D0     		beq	.L2
 146:openstack/02a-MAClow/IEEE802154Ecsl.c ****       changeIsSync(TRUE);
 105              		.loc 1 146 0
 106 0036 4FF00100 		mov	r0, #1
 107 003a FFF7FEFF 		bl	changeIsSync
 108 003e 03E0     		b	.L3
 109              	.L2:
 147:openstack/02a-MAClow/IEEE802154Ecsl.c ****    } else {
 148:openstack/02a-MAClow/IEEE802154Ecsl.c ****       changeIsSync(FALSE);
 110              		.loc 1 148 0
 111 0040 4FF00000 		mov	r0, #0
 112 0044 FFF7FEFF 		bl	changeIsSync
 113              	.L3:
 149:openstack/02a-MAClow/IEEE802154Ecsl.c ****    }
 150:openstack/02a-MAClow/IEEE802154Ecsl.c ****    
 151:openstack/02a-MAClow/IEEE802154Ecsl.c ****    resetStats();
 114              		.loc 1 151 0
 115 0048 FFF7FEFF 		bl	resetStats
 152:openstack/02a-MAClow/IEEE802154Ecsl.c ****    ieee154e_stats.numDeSync                 = 0;
 116              		.loc 1 152 0
 117 004c 40F20003 		movw	r3, #:lower16:ieee154e_stats
 118 0050 C0F20003 		movt	r3, #:upper16:ieee154e_stats
 119 0054 4FF00002 		mov	r2, #0
 120 0058 9A71     		strb	r2, [r3, #6]
 153:openstack/02a-MAClow/IEEE802154Ecsl.c ****    
 154:openstack/02a-MAClow/IEEE802154Ecsl.c ****    // [CSL]: update CSL Mode to SLEEP in order to allow RX o TX.
 155:openstack/02a-MAClow/IEEE802154Ecsl.c ****    ieee154e_vars.cslMode = CSL_SLEEP_MODE;
 121              		.loc 1 155 0
 122 005a 40F20003 		movw	r3, #:lower16:ieee154e_vars
 123 005e C0F20003 		movt	r3, #:upper16:ieee154e_vars
 124 0062 4FF00002 		mov	r2, #0
 125 0066 83F84520 		strb	r2, [r3, #69]
 156:openstack/02a-MAClow/IEEE802154Ecsl.c ****    // [CSL]: Set initial DSN counter for wake-up sequence frames.
 157:openstack/02a-MAClow/IEEE802154Ecsl.c ****    ieee154e_vars.cslDSN	 = 0;
 126              		.loc 1 157 0
 127 006a 40F20003 		movw	r3, #:lower16:ieee154e_vars
 128 006e C0F20003 		movt	r3, #:upper16:ieee154e_vars
 129 0072 4FF00002 		mov	r2, #0
 130 0076 83F84420 		strb	r2, [r3, #68]
 158:openstack/02a-MAClow/IEEE802154Ecsl.c **** 
 159:openstack/02a-MAClow/IEEE802154Ecsl.c ****    // switch radio on - Does this function really do anything?. Its contents are commented...
 160:openstack/02a-MAClow/IEEE802154Ecsl.c ****    radio_rfOn();
 131              		.loc 1 160 0
 132 007a FFF7FEFF 		bl	radio_rfOn
 161:openstack/02a-MAClow/IEEE802154Ecsl.c ****    
 162:openstack/02a-MAClow/IEEE802154Ecsl.c ****    // set callback functions for the radio
 163:openstack/02a-MAClow/IEEE802154Ecsl.c ****    radio_setOverflowCb(isr_ieee154ecsl_newChannelSample); // CSL - Fires every macCSLPeriod for sam
 133              		.loc 1 163 0
 134 007e 40F20000 		movw	r0, #:lower16:isr_ieee154ecsl_newChannelSample
 135 0082 C0F20000 		movt	r0, #:upper16:isr_ieee154ecsl_newChannelSample
 136 0086 FFF7FEFF 		bl	radio_setOverflowCb
 164:openstack/02a-MAClow/IEEE802154Ecsl.c ****    radio_setCompareCb(isr_ieee154ecsl_timer);             // CSL - Fires for FSM state changing.
 137              		.loc 1 164 0
 138 008a 40F20000 		movw	r0, #:lower16:isr_ieee154ecsl_timer
 139 008e C0F20000 		movt	r0, #:upper16:isr_ieee154ecsl_timer
 140 0092 FFF7FEFF 		bl	radio_setCompareCb
 165:openstack/02a-MAClow/IEEE802154Ecsl.c ****    radio_setStartFrameCb(ieee154ecsl_startOfFrame);       // CSL – Fires on start of frame detect
 141              		.loc 1 165 0
 142 0096 40F20000 		movw	r0, #:lower16:ieee154ecsl_startOfFrame
 143 009a C0F20000 		movt	r0, #:upper16:ieee154ecsl_startOfFrame
 144 009e FFF7FEFF 		bl	radio_setStartFrameCb
 166:openstack/02a-MAClow/IEEE802154Ecsl.c ****    radio_setEndFrameCb(ieee154ecsl_endOfFrame);           // CSL – Fires on end of frame detected
 145              		.loc 1 166 0
 146 00a2 40F20000 		movw	r0, #:lower16:ieee154ecsl_endOfFrame
 147 00a6 C0F20000 		movt	r0, #:upper16:ieee154ecsl_endOfFrame
 148 00aa FFF7FEFF 		bl	radio_setEndFrameCb
 167:openstack/02a-MAClow/IEEE802154Ecsl.c **** 
 168:openstack/02a-MAClow/IEEE802154Ecsl.c ****    // [CSL]: set timer for checking frames on local queue to transmit.
 169:openstack/02a-MAClow/IEEE802154Ecsl.c ****    ieee154e_vars.txTimer = opentimers_start(macCSLTxChkFreq, TIMER_PERIODIC, TIME_TICS, isr_ieee154
 149              		.loc 1 169 0
 150 00ae 40F2AE70 		movw	r0, #1966
 151 00b2 4FF00001 		mov	r1, #0
 152 00b6 4FF00102 		mov	r2, #1
 153 00ba 40F20003 		movw	r3, #:lower16:isr_ieee154ecsl_txtimer_cb
 154 00be C0F20003 		movt	r3, #:upper16:isr_ieee154ecsl_txtimer_cb
 155 00c2 FFF7FEFF 		bl	opentimers_start
 156 00c6 0346     		mov	r3, r0
 157 00c8 1A46     		mov	r2, r3
 158 00ca 40F20003 		movw	r3, #:lower16:ieee154e_vars
 159 00ce C0F20003 		movt	r3, #:upper16:ieee154e_vars
 160 00d2 83F84620 		strb	r2, [r3, #70]
 170:openstack/02a-MAClow/IEEE802154Ecsl.c **** 
 171:openstack/02a-MAClow/IEEE802154Ecsl.c ****    // [CSL-TEST]: set timer for callback to add packet to queue for testing CSL TX (every 5 seconds
 172:openstack/02a-MAClow/IEEE802154Ecsl.c ****    ieee154e_vars.cslTxTestTimer = opentimers_start(2000, TIMER_PERIODIC, TIME_MS, isr_ieee154ecsl_a
 161              		.loc 1 172 0
 162 00d6 4FF4FA60 		mov	r0, #2000
 163 00da 4FF00001 		mov	r1, #0
 164 00de 4FF00002 		mov	r2, #0
 165 00e2 40F20003 		movw	r3, #:lower16:isr_ieee154ecsl_addPacketToQueueForTestingCslTx_cb
 166 00e6 C0F20003 		movt	r3, #:upper16:isr_ieee154ecsl_addPacketToQueueForTestingCslTx_cb
 167 00ea FFF7FEFF 		bl	opentimers_start
 168 00ee 0346     		mov	r3, r0
 169 00f0 1A46     		mov	r2, r3
 170 00f2 40F20003 		movw	r3, #:lower16:ieee154e_vars
 171 00f6 C0F20003 		movt	r3, #:upper16:ieee154e_vars
 172 00fa 83F84720 		strb	r2, [r3, #71]
 173:openstack/02a-MAClow/IEEE802154Ecsl.c **** 
 174:openstack/02a-MAClow/IEEE802154Ecsl.c ****    // [CSL]: have the radio start its timer for channel sampling (macCSLPeriod)
 175:openstack/02a-MAClow/IEEE802154Ecsl.c ****    radio_startTimer(macCSLPeriod);
 173              		.loc 1 175 0
 174 00fe 41F69A10 		movw	r0, #6554
 175 0102 FFF7FEFF 		bl	radio_startTimer
 176:openstack/02a-MAClow/IEEE802154Ecsl.c **** }
 176              		.loc 1 176 0
 177 0106 80BD     		pop	{r7, pc}
 178              		.cfi_endproc
 179              	.LFE0:
 181              		.align	2
 182              		.global	isr_ieee154ecsl_newChannelSample
 183              		.thumb
 184              		.thumb_func
 186              	isr_ieee154ecsl_newChannelSample:
 187              	.LFB1:
 177:openstack/02a-MAClow/IEEE802154Ecsl.c **** 
 178:openstack/02a-MAClow/IEEE802154Ecsl.c **** //=========================== public ==========================================
 179:openstack/02a-MAClow/IEEE802154Ecsl.c **** 
 180:openstack/02a-MAClow/IEEE802154Ecsl.c **** //======================================================================
 181:openstack/02a-MAClow/IEEE802154Ecsl.c **** //======================  EVENTS & CALLBACKS ===========================
 182:openstack/02a-MAClow/IEEE802154Ecsl.c **** //======================================================================
 183:openstack/02a-MAClow/IEEE802154Ecsl.c **** 
 184:openstack/02a-MAClow/IEEE802154Ecsl.c **** /**
 185:openstack/02a-MAClow/IEEE802154Ecsl.c **** \brief Indicates a new CSL Channel Sample has just started.
 186:openstack/02a-MAClow/IEEE802154Ecsl.c **** 
 187:openstack/02a-MAClow/IEEE802154Ecsl.c **** This function executes in ISR mode, when the new CSÑ Channel Sample timer fires.
 188:openstack/02a-MAClow/IEEE802154Ecsl.c **** */
 189:openstack/02a-MAClow/IEEE802154Ecsl.c **** // [CSL]: Callback indicating the start of a new CSL channel sample.
 190:openstack/02a-MAClow/IEEE802154Ecsl.c **** void isr_ieee154ecsl_newChannelSample() {
 188              		.loc 1 190 0
 189              		.cfi_startproc
 190              		@ args = 0, pretend = 0, frame = 0
 191              		@ frame_needed = 1, uses_anonymous_args = 0
 192 0108 80B5     		push	{r7, lr}
 193              	.LCFI2:
 194              		.cfi_def_cfa_offset 8
 195              		.cfi_offset 7, -8
 196              		.cfi_offset 14, -4
 197 010a 00AF     		add	r7, sp, #0
 198              	.LCFI3:
 199              		.cfi_def_cfa_register 7
 191:openstack/02a-MAClow/IEEE802154Ecsl.c ****    // Establish the new timer for the next channel sample
 192:openstack/02a-MAClow/IEEE802154Ecsl.c ****    radio_setTimerPeriod(macCSLPeriod);
 200              		.loc 1 192 0
 201 010c 41F69A10 		movw	r0, #6554
 202 0110 FFF7FEFF 		bl	radio_setTimerPeriod
 193:openstack/02a-MAClow/IEEE802154Ecsl.c **** 
 194:openstack/02a-MAClow/IEEE802154Ecsl.c ****    // Verificamos que no estamos ya en un proceso de TX o RX previo.
 195:openstack/02a-MAClow/IEEE802154Ecsl.c ****    if(ieee154e_vars.cslMode == CSL_SLEEP_MODE) {
 203              		.loc 1 195 0
 204 0114 40F20003 		movw	r3, #:lower16:ieee154e_vars
 205 0118 C0F20003 		movt	r3, #:upper16:ieee154e_vars
 206 011c 93F84530 		ldrb	r3, [r3, #69]	@ zero_extendqisi2
 207 0120 002B     		cmp	r3, #0
 208 0122 02D1     		bne	.L5
 196:openstack/02a-MAClow/IEEE802154Ecsl.c **** 	  // We call the first activity on FSM for channel sampling (CSL FSM RX mode)
 197:openstack/02a-MAClow/IEEE802154Ecsl.c **** 	  activity_csl_wakeup_ri1();
 209              		.loc 1 197 0
 210 0124 FFF7FEFF 		bl	activity_csl_wakeup_ri1
 211 0128 12E0     		b	.L6
 212              	.L5:
 198:openstack/02a-MAClow/IEEE802154Ecsl.c ****    } else {
 199:openstack/02a-MAClow/IEEE802154Ecsl.c **** 	  // log the info about a operation in progress
 200:openstack/02a-MAClow/IEEE802154Ecsl.c **** 	  openserial_printInfo(COMPONENT_IEEE802154E,ERR_MAC_OPERATION_IN_PROGRESS,
 201:openstack/02a-MAClow/IEEE802154Ecsl.c **** 						  (errorparameter_t)ieee154e_vars.cslMode, (errorparameter_t)ieee154e_dbg.num_cslSamples);
 213              		.loc 1 201 0
 214 012a 40F20003 		movw	r3, #:lower16:ieee154e_vars
 215 012e C0F20003 		movt	r3, #:upper16:ieee154e_vars
 216 0132 93F84530 		ldrb	r3, [r3, #69]	@ zero_extendqisi2
 200:openstack/02a-MAClow/IEEE802154Ecsl.c **** 	  openserial_printInfo(COMPONENT_IEEE802154E,ERR_MAC_OPERATION_IN_PROGRESS,
 217              		.loc 1 200 0
 218 0136 1A46     		mov	r2, r3
 219              		.loc 1 201 0
 220 0138 40F20003 		movw	r3, #:lower16:ieee154e_dbg
 221 013c C0F20003 		movt	r3, #:upper16:ieee154e_dbg
 222 0140 1B69     		ldr	r3, [r3, #16]
 200:openstack/02a-MAClow/IEEE802154Ecsl.c **** 	  openserial_printInfo(COMPONENT_IEEE802154E,ERR_MAC_OPERATION_IN_PROGRESS,
 223              		.loc 1 200 0
 224 0142 9BB2     		uxth	r3, r3
 225 0144 4FF00900 		mov	r0, #9
 226 0148 4FF04001 		mov	r1, #64
 227 014c FFF7FEFF 		bl	openserial_printInfo
 228              	.L6:
 202:openstack/02a-MAClow/IEEE802154Ecsl.c ****    }
 203:openstack/02a-MAClow/IEEE802154Ecsl.c **** 
 204:openstack/02a-MAClow/IEEE802154Ecsl.c ****    // Increment the number of cslSamples.
 205:openstack/02a-MAClow/IEEE802154Ecsl.c ****    ieee154e_dbg.num_cslSamples++;
 229              		.loc 1 205 0
 230 0150 40F20003 		movw	r3, #:lower16:ieee154e_dbg
 231 0154 C0F20003 		movt	r3, #:upper16:ieee154e_dbg
 232 0158 1B69     		ldr	r3, [r3, #16]
 233 015a 03F10102 		add	r2, r3, #1
 234 015e 40F20003 		movw	r3, #:lower16:ieee154e_dbg
 235 0162 C0F20003 		movt	r3, #:upper16:ieee154e_dbg
 236 0166 1A61     		str	r2, [r3, #16]
 206:openstack/02a-MAClow/IEEE802154Ecsl.c **** }
 237              		.loc 1 206 0
 238 0168 80BD     		pop	{r7, pc}
 239              		.cfi_endproc
 240              	.LFE1:
 242 016a 00BF     		.align	2
 243              		.global	isr_ieee154ecsl_timer
 244              		.thumb
 245              		.thumb_func
 247              	isr_ieee154ecsl_timer:
 248              	.LFB2:
 207:openstack/02a-MAClow/IEEE802154Ecsl.c **** 
 208:openstack/02a-MAClow/IEEE802154Ecsl.c **** /**
 209:openstack/02a-MAClow/IEEE802154Ecsl.c **** \brief Indicates the FSM timer has fired.
 210:openstack/02a-MAClow/IEEE802154Ecsl.c **** 
 211:openstack/02a-MAClow/IEEE802154Ecsl.c **** This function executes in ISR mode, when the FSM timer fires.
 212:openstack/02a-MAClow/IEEE802154Ecsl.c **** */
 213:openstack/02a-MAClow/IEEE802154Ecsl.c **** // [CSL]: Callback to select the next FSM action.
 214:openstack/02a-MAClow/IEEE802154Ecsl.c **** void isr_ieee154ecsl_timer() {
 249              		.loc 1 214 0
 250              		.cfi_startproc
 251              		@ args = 0, pretend = 0, frame = 0
 252              		@ frame_needed = 1, uses_anonymous_args = 0
 253 016c 80B5     		push	{r7, lr}
 254              	.LCFI4:
 255              		.cfi_def_cfa_offset 8
 256              		.cfi_offset 7, -8
 257              		.cfi_offset 14, -4
 258 016e 00AF     		add	r7, sp, #0
 259              	.LCFI5:
 260              		.cfi_def_cfa_register 7
 215:openstack/02a-MAClow/IEEE802154Ecsl.c ****    if (ieee154e_vars.cslMode == CSL_RX_MODE)  { // Current CSL operation mode is channel sampling a
 261              		.loc 1 215 0
 262 0170 40F20003 		movw	r3, #:lower16:ieee154e_vars
 263 0174 C0F20003 		movt	r3, #:upper16:ieee154e_vars
 264 0178 93F84530 		ldrb	r3, [r3, #69]	@ zero_extendqisi2
 265 017c 012B     		cmp	r3, #1
 266 017e 71D1     		bne	.L8
 216:openstack/02a-MAClow/IEEE802154Ecsl.c **** 	   switch (ieee154e_vars.state) {
 267              		.loc 1 216 0
 268 0180 40F20003 		movw	r3, #:lower16:ieee154e_vars
 269 0184 C0F20003 		movt	r3, #:upper16:ieee154e_vars
 270 0188 5B7C     		ldrb	r3, [r3, #17]	@ zero_extendqisi2
 271 018a A3F12B03 		sub	r3, r3, #43
 272 018e 0F2B     		cmp	r3, #15
 273 0190 53D8     		bhi	.L9
 274 0192 01A2     		adr	r2, .L26
 275 0194 52F823F0 		ldr	pc, [r2, r3, lsl #2]
 276              		.align	2
 277              	.L26:
 278 0198 D9010000 		.word	.L10+1
 279 019c DF010000 		.word	.L11+1
 280 01a0 E5010000 		.word	.L12+1
 281 01a4 EB010000 		.word	.L13+1
 282 01a8 F1010000 		.word	.L14+1
 283 01ac F7010000 		.word	.L15+1
 284 01b0 FD010000 		.word	.L16+1
 285 01b4 03020000 		.word	.L17+1
 286 01b8 09020000 		.word	.L18+1
 287 01bc 0F020000 		.word	.L19+1
 288 01c0 15020000 		.word	.L20+1
 289 01c4 1B020000 		.word	.L21+1
 290 01c8 21020000 		.word	.L22+1
 291 01cc 27020000 		.word	.L23+1
 292 01d0 2D020000 		.word	.L24+1
 293 01d4 33020000 		.word	.L25+1
 294              	.L10:
 217:openstack/02a-MAClow/IEEE802154Ecsl.c **** 	      // RX-MODE
 218:openstack/02a-MAClow/IEEE802154Ecsl.c **** 		  case S_CSLRXWAKEUPOFFSET:      activity_csl_wakeup_ri2();  break;
 295              		.loc 1 218 0
 296 01d8 FFF7FEFF 		bl	activity_csl_wakeup_ri2
 297 01dc BBE0     		b	.L28
 298              	.L11:
 219:openstack/02a-MAClow/IEEE802154Ecsl.c **** 		  case S_CSLRXWAKEUPPREPARE:     activity_csl_wakeup_rie1(); break;
 299              		.loc 1 219 0
 300 01de FFF7FEFF 		bl	activity_csl_wakeup_rie1
 301 01e2 B8E0     		b	.L28
 302              	.L12:
 220:openstack/02a-MAClow/IEEE802154Ecsl.c **** 		  case S_CSLRXWAKEUPREADY:       activity_csl_wakeup_ri3();  break;
 303              		.loc 1 220 0
 304 01e4 FFF7FEFF 		bl	activity_csl_wakeup_ri3
 305 01e8 B5E0     		b	.L28
 306              	.L13:
 221:openstack/02a-MAClow/IEEE802154Ecsl.c **** 		  case S_CSLRXWAKEUPLISTEN:      activity_csl_wakeup_rie2(); break;
 307              		.loc 1 221 0
 308 01ea FFF7FEFF 		bl	activity_csl_wakeup_rie2
 309 01ee B2E0     		b	.L28
 310              	.L14:
 222:openstack/02a-MAClow/IEEE802154Ecsl.c **** 		  case S_CSLRXWAKEUP:			 activity_csl_wakeup_rie3(); break;
 311              		.loc 1 222 0
 312 01f0 FFF7FEFF 		bl	activity_csl_wakeup_rie3
 313 01f4 AFE0     		b	.L28
 314              	.L15:
 223:openstack/02a-MAClow/IEEE802154Ecsl.c **** 		  case S_CSLRXWAKEUPVALIDATE: 	 activity_csl_wakeup_rie4(); break;
 315              		.loc 1 223 0
 316 01f6 FFF7FEFF 		bl	activity_csl_wakeup_rie4
 317 01fa ACE0     		b	.L28
 318              	.L16:
 224:openstack/02a-MAClow/IEEE802154Ecsl.c **** 
 225:openstack/02a-MAClow/IEEE802154Ecsl.c **** 		  case S_CSLRXDATAOFFSET:    	 activity_csl_data_ri2();    break;
 319              		.loc 1 225 0
 320 01fc FFF7FEFF 		bl	activity_csl_data_ri2
 321 0200 A9E0     		b	.L28
 322              	.L17:
 226:openstack/02a-MAClow/IEEE802154Ecsl.c **** 		  case S_CSLRXDATAPREPARE:       activity_csl_data_rie1();   break;
 323              		.loc 1 226 0
 324 0202 FFF7FEFF 		bl	activity_csl_data_rie1
 325 0206 A6E0     		b	.L28
 326              	.L18:
 227:openstack/02a-MAClow/IEEE802154Ecsl.c **** 		  case S_CSLRXDATAREADY:         activity_csl_data_ri3();    break;
 327              		.loc 1 227 0
 328 0208 FFF7FEFF 		bl	activity_csl_data_ri3
 329 020c A3E0     		b	.L28
 330              	.L19:
 228:openstack/02a-MAClow/IEEE802154Ecsl.c **** 		  case S_CSLRXDATALISTEN:        activity_csl_data_rie2();   break;
 331              		.loc 1 228 0
 332 020e FFF7FEFF 		bl	activity_csl_data_rie2
 333 0212 A0E0     		b	.L28
 334              	.L20:
 229:openstack/02a-MAClow/IEEE802154Ecsl.c **** 		  case S_CSLRXDATA:			     activity_csl_data_rie3();   break;
 335              		.loc 1 229 0
 336 0214 FFF7FEFF 		bl	activity_csl_data_rie3
 337 0218 9DE0     		b	.L28
 338              	.L21:
 230:openstack/02a-MAClow/IEEE802154Ecsl.c **** 
 231:openstack/02a-MAClow/IEEE802154Ecsl.c **** 		  case S_CSLTXACKOFFSET: 	     activity_csl_data_ri6();    break;
 339              		.loc 1 231 0
 340 021a FFF7FEFF 		bl	activity_csl_data_ri6
 341 021e 9AE0     		b	.L28
 342              	.L22:
 232:openstack/02a-MAClow/IEEE802154Ecsl.c **** 		  case S_CSLTXACKPREPARE:        activity_csl_data_rie4();   break;
 343              		.loc 1 232 0
 344 0220 FFF7FEFF 		bl	activity_csl_data_rie4
 345 0224 97E0     		b	.L28
 346              	.L23:
 233:openstack/02a-MAClow/IEEE802154Ecsl.c **** 		  case S_CSLTXACKREADY:          activity_csl_data_ri7();    break;
 347              		.loc 1 233 0
 348 0226 FFF7FEFF 		bl	activity_csl_data_ri7
 349 022a 94E0     		b	.L28
 350              	.L24:
 234:openstack/02a-MAClow/IEEE802154Ecsl.c **** 		  case S_CSLTXACKDELAY:          activity_csl_data_rie5();   break;
 351              		.loc 1 234 0
 352 022c FFF7FEFF 		bl	activity_csl_data_rie5
 353 0230 91E0     		b	.L28
 354              	.L25:
 235:openstack/02a-MAClow/IEEE802154Ecsl.c **** 		  case S_CSLTXACK:               activity_csl_data_rie6();   break;
 355              		.loc 1 235 0
 356 0232 FFF7FEFF 		bl	activity_csl_data_rie6
 357 0236 00BF     		nop
 358 0238 8DE0     		b	.L28
 359              	.L9:
 236:openstack/02a-MAClow/IEEE802154Ecsl.c **** 		  default:
 237:openstack/02a-MAClow/IEEE802154Ecsl.c **** 			 // log the error
 238:openstack/02a-MAClow/IEEE802154Ecsl.c **** 			 openserial_printError(COMPONENT_IEEE802154E,ERR_WRONG_STATE_IN_CSL_TIMERFIRES,
 239:openstack/02a-MAClow/IEEE802154Ecsl.c **** 								   (errorparameter_t)ieee154e_vars.state, (errorparameter_t)ieee154e_dbg.num_cslSamples);
 360              		.loc 1 239 0
 361 023a 40F20003 		movw	r3, #:lower16:ieee154e_vars
 362 023e C0F20003 		movt	r3, #:upper16:ieee154e_vars
 363 0242 5B7C     		ldrb	r3, [r3, #17]	@ zero_extendqisi2
 238:openstack/02a-MAClow/IEEE802154Ecsl.c **** 			 openserial_printError(COMPONENT_IEEE802154E,ERR_WRONG_STATE_IN_CSL_TIMERFIRES,
 364              		.loc 1 238 0
 365 0244 1A46     		mov	r2, r3
 366              		.loc 1 239 0
 367 0246 40F20003 		movw	r3, #:lower16:ieee154e_dbg
 368 024a C0F20003 		movt	r3, #:upper16:ieee154e_dbg
 369 024e 1B69     		ldr	r3, [r3, #16]
 238:openstack/02a-MAClow/IEEE802154Ecsl.c **** 			 openserial_printError(COMPONENT_IEEE802154E,ERR_WRONG_STATE_IN_CSL_TIMERFIRES,
 370              		.loc 1 238 0
 371 0250 9BB2     		uxth	r3, r3
 372 0252 4FF00900 		mov	r0, #9
 373 0256 4FF03B01 		mov	r1, #59
 374 025a FFF7FEFF 		bl	openserial_printError
 240:openstack/02a-MAClow/IEEE802154Ecsl.c **** 			 // abort
 241:openstack/02a-MAClow/IEEE802154Ecsl.c **** 			 endOps();
 375              		.loc 1 241 0
 376 025e FFF7FEFF 		bl	endOps
 242:openstack/02a-MAClow/IEEE802154Ecsl.c **** 			 break;
 377              		.loc 1 242 0
 378 0262 78E0     		b	.L28
 379              	.L8:
 243:openstack/02a-MAClow/IEEE802154Ecsl.c **** 	   }
 244:openstack/02a-MAClow/IEEE802154Ecsl.c ****    } else if (ieee154e_vars.cslMode == CSL_TX_MODE)  { // Current CSL operation mode is frame TX.
 380              		.loc 1 244 0
 381 0264 40F20003 		movw	r3, #:lower16:ieee154e_vars
 382 0268 C0F20003 		movt	r3, #:upper16:ieee154e_vars
 383 026c 93F84530 		ldrb	r3, [r3, #69]	@ zero_extendqisi2
 384 0270 022B     		cmp	r3, #2
 385 0272 70D1     		bne	.L28
 245:openstack/02a-MAClow/IEEE802154Ecsl.c **** 	   switch (ieee154e_vars.state) {
 386              		.loc 1 245 0
 387 0274 40F20003 		movw	r3, #:lower16:ieee154e_vars
 388 0278 C0F20003 		movt	r3, #:upper16:ieee154e_vars
 389 027c 5B7C     		ldrb	r3, [r3, #17]	@ zero_extendqisi2
 390 027e A3F11A03 		sub	r3, r3, #26
 391 0282 0F2B     		cmp	r3, #15
 392 0284 52D8     		bhi	.L29
 393 0286 01A2     		adr	r2, .L46
 394 0288 52F823F0 		ldr	pc, [r2, r3, lsl #2]
 395              		.align	2
 396              	.L46:
 397 028c CD020000 		.word	.L30+1
 398 0290 D3020000 		.word	.L31+1
 399 0294 D9020000 		.word	.L32+1
 400 0298 DF020000 		.word	.L33+1
 401 029c E5020000 		.word	.L34+1
 402 02a0 EB020000 		.word	.L35+1
 403 02a4 F1020000 		.word	.L36+1
 404 02a8 F7020000 		.word	.L37+1
 405 02ac FD020000 		.word	.L38+1
 406 02b0 03030000 		.word	.L39+1
 407 02b4 09030000 		.word	.L40+1
 408 02b8 0F030000 		.word	.L41+1
 409 02bc 15030000 		.word	.L42+1
 410 02c0 1B030000 		.word	.L43+1
 411 02c4 21030000 		.word	.L44+1
 412 02c8 27030000 		.word	.L45+1
 413              	.L30:
 246:openstack/02a-MAClow/IEEE802154Ecsl.c **** 	      // TX-MODE
 247:openstack/02a-MAClow/IEEE802154Ecsl.c **** 	      case S_CSLTXWAKEUPOFFSET:		 activity_csl_wakeup_ti2();  break;
 414              		.loc 1 247 0
 415 02cc FFF7FEFF 		bl	activity_csl_wakeup_ti2
 416 02d0 41E0     		b	.L28
 417              	.L31:
 248:openstack/02a-MAClow/IEEE802154Ecsl.c **** 	      case S_CSLTXWAKEUPPREPARE:	 activity_csl_wakeup_tie1(); break;
 418              		.loc 1 248 0
 419 02d2 FFF7FEFF 		bl	activity_csl_wakeup_tie1
 420 02d6 3EE0     		b	.L28
 421              	.L32:
 249:openstack/02a-MAClow/IEEE802154Ecsl.c **** 	      case S_CSLTXWAKEUPREADY:	     activity_csl_wakeup_ti3();  break;
 422              		.loc 1 249 0
 423 02d8 FFF7FEFF 		bl	activity_csl_wakeup_ti3
 424 02dc 3BE0     		b	.L28
 425              	.L33:
 250:openstack/02a-MAClow/IEEE802154Ecsl.c **** 	      case S_CSLTXWAKEUPDELAY:	     activity_csl_wakeup_tie2(); break;
 426              		.loc 1 250 0
 427 02de FFF7FEFF 		bl	activity_csl_wakeup_tie2
 428 02e2 38E0     		b	.L28
 429              	.L34:
 251:openstack/02a-MAClow/IEEE802154Ecsl.c **** 	      case S_CSLTXWAKEUP: 	         activity_csl_wakeup_tie3(); break;
 430              		.loc 1 251 0
 431 02e4 FFF7FEFF 		bl	activity_csl_wakeup_tie3
 432 02e8 35E0     		b	.L28
 433              	.L35:
 252:openstack/02a-MAClow/IEEE802154Ecsl.c **** 
 253:openstack/02a-MAClow/IEEE802154Ecsl.c **** 	      case S_CSLTXDATAPREOFFSET:	 activity_csl_data_ti1();	 break;
 434              		.loc 1 253 0
 435 02ea FFF7FEFF 		bl	activity_csl_data_ti1
 436 02ee 32E0     		b	.L28
 437              	.L36:
 254:openstack/02a-MAClow/IEEE802154Ecsl.c **** 	      case S_CSLTXDATAOFFSET:        activity_csl_data_ti2();    break;
 438              		.loc 1 254 0
 439 02f0 FFF7FEFF 		bl	activity_csl_data_ti2
 440 02f4 2FE0     		b	.L28
 441              	.L37:
 255:openstack/02a-MAClow/IEEE802154Ecsl.c **** 	      case S_CSLTXDATAPREPARE:	     activity_csl_data_tie1(); 	 break;
 442              		.loc 1 255 0
 443 02f6 FFF7FEFF 		bl	activity_csl_data_tie1
 444 02fa 2CE0     		b	.L28
 445              	.L38:
 256:openstack/02a-MAClow/IEEE802154Ecsl.c **** 	      case S_CSLTXDATAREADY:	     activity_csl_data_ti3(); 	 break;
 446              		.loc 1 256 0
 447 02fc FFF7FEFF 		bl	activity_csl_data_ti3
 448 0300 29E0     		b	.L28
 449              	.L39:
 257:openstack/02a-MAClow/IEEE802154Ecsl.c **** 	      case S_CSLTXDATADELAY:	     activity_csl_data_tie2(); 	 break;
 450              		.loc 1 257 0
 451 0302 FFF7FEFF 		bl	activity_csl_data_tie2
 452 0306 26E0     		b	.L28
 453              	.L40:
 258:openstack/02a-MAClow/IEEE802154Ecsl.c **** 	      case S_CSLTXDATA: 	         activity_csl_data_tie3();	 break;
 454              		.loc 1 258 0
 455 0308 FFF7FEFF 		bl	activity_csl_data_tie3
 456 030c 23E0     		b	.L28
 457              	.L41:
 259:openstack/02a-MAClow/IEEE802154Ecsl.c **** 
 260:openstack/02a-MAClow/IEEE802154Ecsl.c **** 	      case S_CSLRXACKOFFSET: 	     activity_csl_data_ti6();	 break;
 458              		.loc 1 260 0
 459 030e FFF7FEFF 		bl	activity_csl_data_ti6
 460 0312 20E0     		b	.L28
 461              	.L42:
 261:openstack/02a-MAClow/IEEE802154Ecsl.c **** 	      case S_CSLRXACKPREPARE:	     activity_csl_data_tie4(); 	 break;
 462              		.loc 1 261 0
 463 0314 FFF7FEFF 		bl	activity_csl_data_tie4
 464 0318 1DE0     		b	.L28
 465              	.L43:
 262:openstack/02a-MAClow/IEEE802154Ecsl.c **** 	      case S_CSLRXACKREADY: 	     activity_csl_data_ti7(); 	 break;
 466              		.loc 1 262 0
 467 031a FFF7FEFF 		bl	activity_csl_data_ti7
 468 031e 1AE0     		b	.L28
 469              	.L44:
 263:openstack/02a-MAClow/IEEE802154Ecsl.c **** 	      case S_CSLRXACKLISTEN: 	     activity_csl_data_tie5(); 	 break;
 470              		.loc 1 263 0
 471 0320 FFF7FEFF 		bl	activity_csl_data_tie5
 472 0324 17E0     		b	.L28
 473              	.L45:
 264:openstack/02a-MAClow/IEEE802154Ecsl.c **** 	      case S_CSLRXACK:     	         activity_csl_data_tie6(); 	 break;
 474              		.loc 1 264 0
 475 0326 FFF7FEFF 		bl	activity_csl_data_tie6
 476 032a 14E0     		b	.L28
 477              	.L29:
 265:openstack/02a-MAClow/IEEE802154Ecsl.c **** 
 266:openstack/02a-MAClow/IEEE802154Ecsl.c **** 		  default:
 267:openstack/02a-MAClow/IEEE802154Ecsl.c **** 			 // log the error
 268:openstack/02a-MAClow/IEEE802154Ecsl.c **** 			 openserial_printError(COMPONENT_IEEE802154E,ERR_WRONG_STATE_IN_CSL_TIMERFIRES,
 269:openstack/02a-MAClow/IEEE802154Ecsl.c **** 								   (errorparameter_t)ieee154e_vars.state, (errorparameter_t)ieee154e_dbg.num_cslSamples);
 478              		.loc 1 269 0
 479 032c 40F20003 		movw	r3, #:lower16:ieee154e_vars
 480 0330 C0F20003 		movt	r3, #:upper16:ieee154e_vars
 481 0334 5B7C     		ldrb	r3, [r3, #17]	@ zero_extendqisi2
 268:openstack/02a-MAClow/IEEE802154Ecsl.c **** 			 openserial_printError(COMPONENT_IEEE802154E,ERR_WRONG_STATE_IN_CSL_TIMERFIRES,
 482              		.loc 1 268 0
 483 0336 1A46     		mov	r2, r3
 484              		.loc 1 269 0
 485 0338 40F20003 		movw	r3, #:lower16:ieee154e_dbg
 486 033c C0F20003 		movt	r3, #:upper16:ieee154e_dbg
 487 0340 1B69     		ldr	r3, [r3, #16]
 268:openstack/02a-MAClow/IEEE802154Ecsl.c **** 			 openserial_printError(COMPONENT_IEEE802154E,ERR_WRONG_STATE_IN_CSL_TIMERFIRES,
 488              		.loc 1 268 0
 489 0342 9BB2     		uxth	r3, r3
 490 0344 4FF00900 		mov	r0, #9
 491 0348 4FF03B01 		mov	r1, #59
 492 034c FFF7FEFF 		bl	openserial_printError
 270:openstack/02a-MAClow/IEEE802154Ecsl.c **** 			 // abort
 271:openstack/02a-MAClow/IEEE802154Ecsl.c **** 			 endOps();
 493              		.loc 1 271 0
 494 0350 FFF7FEFF 		bl	endOps
 272:openstack/02a-MAClow/IEEE802154Ecsl.c **** 			 break;
 495              		.loc 1 272 0
 496 0354 00BF     		nop
 497              	.L28:
 273:openstack/02a-MAClow/IEEE802154Ecsl.c **** 	   }
 274:openstack/02a-MAClow/IEEE802154Ecsl.c ****    }
 275:openstack/02a-MAClow/IEEE802154Ecsl.c ****    ieee154e_dbg.num_timer++;
 498              		.loc 1 275 0
 499 0356 40F20003 		movw	r3, #:lower16:ieee154e_dbg
 500 035a C0F20003 		movt	r3, #:upper16:ieee154e_dbg
 501 035e 5B68     		ldr	r3, [r3, #4]
 502 0360 03F10102 		add	r2, r3, #1
 503 0364 40F20003 		movw	r3, #:lower16:ieee154e_dbg
 504 0368 C0F20003 		movt	r3, #:upper16:ieee154e_dbg
 505 036c 5A60     		str	r2, [r3, #4]
 276:openstack/02a-MAClow/IEEE802154Ecsl.c **** }
 506              		.loc 1 276 0
 507 036e 80BD     		pop	{r7, pc}
 508              		.cfi_endproc
 509              	.LFE2:
 511              		.align	2
 512              		.global	ieee154ecsl_startOfFrame
 513              		.thumb
 514              		.thumb_func
 516              	ieee154ecsl_startOfFrame:
 517              	.LFB3:
 277:openstack/02a-MAClow/IEEE802154Ecsl.c **** 
 278:openstack/02a-MAClow/IEEE802154Ecsl.c **** // [CSL] – Callback fired after receive a start of frame on radio.
 279:openstack/02a-MAClow/IEEE802154Ecsl.c **** void ieee154ecsl_startOfFrame(PORT_RADIOTIMER_WIDTH capturedTime) {
 518              		.loc 1 279 0
 519              		.cfi_startproc
 520              		@ args = 0, pretend = 0, frame = 8
 521              		@ frame_needed = 1, uses_anonymous_args = 0
 522 0370 80B5     		push	{r7, lr}
 523              	.LCFI6:
 524              		.cfi_def_cfa_offset 8
 525              		.cfi_offset 7, -8
 526              		.cfi_offset 14, -4
 527 0372 82B0     		sub	sp, sp, #8
 528              	.LCFI7:
 529              		.cfi_def_cfa_offset 16
 530 0374 00AF     		add	r7, sp, #0
 531              	.LCFI8:
 532              		.cfi_def_cfa_register 7
 533 0376 7860     		str	r0, [r7, #4]
 280:openstack/02a-MAClow/IEEE802154Ecsl.c **** 	if(ieee154e_vars.cslMode == CSL_RX_MODE)  { // Current CSL operation mode is channel sampling and 
 534              		.loc 1 280 0
 535 0378 40F20003 		movw	r3, #:lower16:ieee154e_vars
 536 037c C0F20003 		movt	r3, #:upper16:ieee154e_vars
 537 0380 93F84530 		ldrb	r3, [r3, #69]	@ zero_extendqisi2
 538 0384 012B     		cmp	r3, #1
 539 0386 33D1     		bne	.L48
 281:openstack/02a-MAClow/IEEE802154Ecsl.c **** 	   switch (ieee154e_vars.state) {
 540              		.loc 1 281 0
 541 0388 40F20003 		movw	r3, #:lower16:ieee154e_vars
 542 038c C0F20003 		movt	r3, #:upper16:ieee154e_vars
 543 0390 5B7C     		ldrb	r3, [r3, #17]	@ zero_extendqisi2
 544 0392 A3F12E03 		sub	r3, r3, #46
 545 0396 0B2B     		cmp	r3, #11
 546 0398 27D8     		bhi	.L49
 547 039a 01A2     		adr	r2, .L53
 548 039c 52F823F0 		ldr	pc, [r2, r3, lsl #2]
 549              		.align	2
 550              	.L53:
 551 03a0 D1030000 		.word	.L50+1
 552 03a4 D1030000 		.word	.L50+1
 553 03a8 EB030000 		.word	.L49+1
 554 03ac EB030000 		.word	.L49+1
 555 03b0 EB030000 		.word	.L49+1
 556 03b4 D9030000 		.word	.L51+1
 557 03b8 D9030000 		.word	.L51+1
 558 03bc EB030000 		.word	.L49+1
 559 03c0 EB030000 		.word	.L49+1
 560 03c4 EB030000 		.word	.L49+1
 561 03c8 EB030000 		.word	.L49+1
 562 03cc E1030000 		.word	.L52+1
 563              	.L50:
 282:openstack/02a-MAClow/IEEE802154Ecsl.c **** 		  // RX MODE
 283:openstack/02a-MAClow/IEEE802154Ecsl.c ****           /*
 284:openstack/02a-MAClow/IEEE802154Ecsl.c **** 		   It is possible to receive in this state for radio where there is no way of differentiated betw
 285:openstack/02a-MAClow/IEEE802154Ecsl.c **** 		   (e.g. CC2420). We must therefore expect to the start of a packet in this "ready" state.
 286:openstack/02a-MAClow/IEEE802154Ecsl.c **** 		  */
 287:openstack/02a-MAClow/IEEE802154Ecsl.c **** 		  case S_CSLRXWAKEUP:    			 // no break!
 288:openstack/02a-MAClow/IEEE802154Ecsl.c **** 		  case S_CSLRXWAKEUPLISTEN:	 	     activity_csl_wakeup_ri4(capturedTime); break;
 564              		.loc 1 288 0
 565 03d0 7868     		ldr	r0, [r7, #4]
 566 03d2 FFF7FEFF 		bl	activity_csl_wakeup_ri4
 567 03d6 58E0     		b	.L55
 568              	.L51:
 289:openstack/02a-MAClow/IEEE802154Ecsl.c **** 
 290:openstack/02a-MAClow/IEEE802154Ecsl.c **** 		  case S_CSLRXDATAREADY:		     // no break!
 291:openstack/02a-MAClow/IEEE802154Ecsl.c **** 		  case S_CSLRXDATALISTEN:            activity_csl_data_ri4(capturedTime);   break;
 569              		.loc 1 291 0
 570 03d8 7868     		ldr	r0, [r7, #4]
 571 03da FFF7FEFF 		bl	activity_csl_data_ri4
 572 03de 54E0     		b	.L55
 573              	.L52:
 292:openstack/02a-MAClow/IEEE802154Ecsl.c **** 
 293:openstack/02a-MAClow/IEEE802154Ecsl.c **** 		  case S_CSLTXACKDELAY:              activity_csl_data_ri8(capturedTime);   break;
 574              		.loc 1 293 0
 575 03e0 7868     		ldr	r0, [r7, #4]
 576 03e2 FFF7FEFF 		bl	activity_csl_data_ri8
 577 03e6 00BF     		nop
 578 03e8 4FE0     		b	.L55
 579              	.L49:
 294:openstack/02a-MAClow/IEEE802154Ecsl.c **** 		  default:
 295:openstack/02a-MAClow/IEEE802154Ecsl.c **** 			// log the error
 296:openstack/02a-MAClow/IEEE802154Ecsl.c **** 			//openserial_printError(COMPONENT_IEEE802154E,ERR_WRONG_STATE_IN_CSL_SAMPLE,
 297:openstack/02a-MAClow/IEEE802154Ecsl.c **** 			//					  (errorparameter_t)ieee154e_vars.state, (errorparameter_t)ieee154e_dbg.num_cslSamples);
 298:openstack/02a-MAClow/IEEE802154Ecsl.c **** 			// abort
 299:openstack/02a-MAClow/IEEE802154Ecsl.c **** 			endOps();
 580              		.loc 1 299 0
 581 03ea FFF7FEFF 		bl	endOps
 300:openstack/02a-MAClow/IEEE802154Ecsl.c **** 			break;
 582              		.loc 1 300 0
 583 03ee 4CE0     		b	.L55
 584              	.L48:
 301:openstack/02a-MAClow/IEEE802154Ecsl.c **** 		}
 302:openstack/02a-MAClow/IEEE802154Ecsl.c **** 	} else if (ieee154e_vars.cslMode == CSL_TX_MODE)  { // Current CSL operation mode is frame TX.
 585              		.loc 1 302 0
 586 03f0 40F20003 		movw	r3, #:lower16:ieee154e_vars
 587 03f4 C0F20003 		movt	r3, #:upper16:ieee154e_vars
 588 03f8 93F84530 		ldrb	r3, [r3, #69]	@ zero_extendqisi2
 589 03fc 022B     		cmp	r3, #2
 590 03fe 44D1     		bne	.L55
 303:openstack/02a-MAClow/IEEE802154Ecsl.c **** 	   switch (ieee154e_vars.state) {
 591              		.loc 1 303 0
 592 0400 40F20003 		movw	r3, #:lower16:ieee154e_vars
 593 0404 C0F20003 		movt	r3, #:upper16:ieee154e_vars
 594 0408 5B7C     		ldrb	r3, [r3, #17]	@ zero_extendqisi2
 595 040a A3F11D03 		sub	r3, r3, #29
 596 040e 0B2B     		cmp	r3, #11
 597 0410 26D8     		bhi	.L56
 598 0412 01A2     		adr	r2, .L60
 599 0414 52F823F0 		ldr	pc, [r2, r3, lsl #2]
 600              		.align	2
 601              	.L60:
 602 0418 51040000 		.word	.L57+1
 603 041c 61040000 		.word	.L56+1
 604 0420 61040000 		.word	.L56+1
 605 0424 61040000 		.word	.L56+1
 606 0428 61040000 		.word	.L56+1
 607 042c 61040000 		.word	.L56+1
 608 0430 59040000 		.word	.L58+1
 609 0434 61040000 		.word	.L56+1
 610 0438 61040000 		.word	.L56+1
 611 043c 61040000 		.word	.L56+1
 612 0440 49040000 		.word	.L59+1
 613 0444 49040000 		.word	.L59+1
 614              	.L59:
 304:openstack/02a-MAClow/IEEE802154Ecsl.c **** 		  // TX MODE
 305:openstack/02a-MAClow/IEEE802154Ecsl.c **** 
 306:openstack/02a-MAClow/IEEE802154Ecsl.c ****           /*
 307:openstack/02a-MAClow/IEEE802154Ecsl.c ****           It is possible to receive in this state for radio where there is no way of differentiated
 308:openstack/02a-MAClow/IEEE802154Ecsl.c ****           (e.g. CC2420). We must therefore expect to the start of a packet in this "ready" state.
 309:openstack/02a-MAClow/IEEE802154Ecsl.c ****           */
 310:openstack/02a-MAClow/IEEE802154Ecsl.c **** 	      case S_CSLRXACKREADY:               // no break!
 311:openstack/02a-MAClow/IEEE802154Ecsl.c **** 	      case S_CSLRXACKLISTEN:              activity_csl_data_ti8(capturedTime);  break;
 615              		.loc 1 311 0
 616 0448 7868     		ldr	r0, [r7, #4]
 617 044a FFF7FEFF 		bl	activity_csl_data_ti8
 618 044e 1CE0     		b	.L55
 619              	.L57:
 312:openstack/02a-MAClow/IEEE802154Ecsl.c **** 
 313:openstack/02a-MAClow/IEEE802154Ecsl.c **** 	      case S_CSLTXWAKEUPDELAY:            activity_csl_wakeup_ti4(capturedTime); break;
 620              		.loc 1 313 0
 621 0450 7868     		ldr	r0, [r7, #4]
 622 0452 FFF7FEFF 		bl	activity_csl_wakeup_ti4
 623 0456 18E0     		b	.L55
 624              	.L58:
 314:openstack/02a-MAClow/IEEE802154Ecsl.c **** 	      case S_CSLTXDATADELAY:              activity_csl_data_ti4(capturedTime);   break;
 625              		.loc 1 314 0
 626 0458 7868     		ldr	r0, [r7, #4]
 627 045a FFF7FEFF 		bl	activity_csl_data_ti4
 628 045e 14E0     		b	.L55
 629              	.L56:
 315:openstack/02a-MAClow/IEEE802154Ecsl.c **** 
 316:openstack/02a-MAClow/IEEE802154Ecsl.c ****           default:
 317:openstack/02a-MAClow/IEEE802154Ecsl.c ****    			// log the error
 318:openstack/02a-MAClow/IEEE802154Ecsl.c ****    			openserial_printError(COMPONENT_IEEE802154E,ERR_WRONG_STATE_IN_CSL_SAMPLE,
 319:openstack/02a-MAClow/IEEE802154Ecsl.c ****    								  (errorparameter_t)ieee154e_vars.state, (errorparameter_t)ieee154e_dbg.num_cslSamples);
 630              		.loc 1 319 0
 631 0460 40F20003 		movw	r3, #:lower16:ieee154e_vars
 632 0464 C0F20003 		movt	r3, #:upper16:ieee154e_vars
 633 0468 5B7C     		ldrb	r3, [r3, #17]	@ zero_extendqisi2
 318:openstack/02a-MAClow/IEEE802154Ecsl.c ****    			openserial_printError(COMPONENT_IEEE802154E,ERR_WRONG_STATE_IN_CSL_SAMPLE,
 634              		.loc 1 318 0
 635 046a 1A46     		mov	r2, r3
 636              		.loc 1 319 0
 637 046c 40F20003 		movw	r3, #:lower16:ieee154e_dbg
 638 0470 C0F20003 		movt	r3, #:upper16:ieee154e_dbg
 639 0474 1B69     		ldr	r3, [r3, #16]
 318:openstack/02a-MAClow/IEEE802154Ecsl.c ****    			openserial_printError(COMPONENT_IEEE802154E,ERR_WRONG_STATE_IN_CSL_SAMPLE,
 640              		.loc 1 318 0
 641 0476 9BB2     		uxth	r3, r3
 642 0478 4FF00900 		mov	r0, #9
 643 047c 4FF03E01 		mov	r1, #62
 644 0480 FFF7FEFF 		bl	openserial_printError
 320:openstack/02a-MAClow/IEEE802154Ecsl.c ****    			// abort
 321:openstack/02a-MAClow/IEEE802154Ecsl.c ****    			endOps();
 645              		.loc 1 321 0
 646 0484 FFF7FEFF 		bl	endOps
 322:openstack/02a-MAClow/IEEE802154Ecsl.c ****    			break;
 647              		.loc 1 322 0
 648 0488 00BF     		nop
 649              	.L55:
 323:openstack/02a-MAClow/IEEE802154Ecsl.c ****    		}
 324:openstack/02a-MAClow/IEEE802154Ecsl.c **** 	}
 325:openstack/02a-MAClow/IEEE802154Ecsl.c ****   ieee154e_dbg.num_startOfFrame++;
 650              		.loc 1 325 0
 651 048a 40F20003 		movw	r3, #:lower16:ieee154e_dbg
 652 048e C0F20003 		movt	r3, #:upper16:ieee154e_dbg
 653 0492 9B68     		ldr	r3, [r3, #8]
 654 0494 03F10102 		add	r2, r3, #1
 655 0498 40F20003 		movw	r3, #:lower16:ieee154e_dbg
 656 049c C0F20003 		movt	r3, #:upper16:ieee154e_dbg
 657 04a0 9A60     		str	r2, [r3, #8]
 326:openstack/02a-MAClow/IEEE802154Ecsl.c **** }
 658              		.loc 1 326 0
 659 04a2 07F10807 		add	r7, r7, #8
 660 04a6 BD46     		mov	sp, r7
 661 04a8 80BD     		pop	{r7, pc}
 662              		.cfi_endproc
 663              	.LFE3:
 665 04aa 00BF     		.align	2
 666              		.global	ieee154ecsl_endOfFrame
 667              		.thumb
 668              		.thumb_func
 670              	ieee154ecsl_endOfFrame:
 671              	.LFB4:
 327:openstack/02a-MAClow/IEEE802154Ecsl.c **** 
 328:openstack/02a-MAClow/IEEE802154Ecsl.c **** // [CSL] – Callback fired after receive a end of frame on radio.
 329:openstack/02a-MAClow/IEEE802154Ecsl.c **** void ieee154ecsl_endOfFrame(PORT_RADIOTIMER_WIDTH capturedTime) {
 672              		.loc 1 329 0
 673              		.cfi_startproc
 674              		@ args = 0, pretend = 0, frame = 8
 675              		@ frame_needed = 1, uses_anonymous_args = 0
 676 04ac 80B5     		push	{r7, lr}
 677              	.LCFI9:
 678              		.cfi_def_cfa_offset 8
 679              		.cfi_offset 7, -8
 680              		.cfi_offset 14, -4
 681 04ae 82B0     		sub	sp, sp, #8
 682              	.LCFI10:
 683              		.cfi_def_cfa_offset 16
 684 04b0 00AF     		add	r7, sp, #0
 685              	.LCFI11:
 686              		.cfi_def_cfa_register 7
 687 04b2 7860     		str	r0, [r7, #4]
 330:openstack/02a-MAClow/IEEE802154Ecsl.c **** 	if(ieee154e_vars.cslMode == CSL_RX_MODE)  { // Current CSL operation mode is channel sampling and 
 688              		.loc 1 330 0
 689 04b4 40F20003 		movw	r3, #:lower16:ieee154e_vars
 690 04b8 C0F20003 		movt	r3, #:upper16:ieee154e_vars
 691 04bc 93F84530 		ldrb	r3, [r3, #69]	@ zero_extendqisi2
 692 04c0 012B     		cmp	r3, #1
 693 04c2 2CD1     		bne	.L62
 331:openstack/02a-MAClow/IEEE802154Ecsl.c **** 	   switch (ieee154e_vars.state) {
 694              		.loc 1 331 0
 695 04c4 40F20003 		movw	r3, #:lower16:ieee154e_vars
 696 04c8 C0F20003 		movt	r3, #:upper16:ieee154e_vars
 697 04cc 5B7C     		ldrb	r3, [r3, #17]	@ zero_extendqisi2
 698 04ce 352B     		cmp	r3, #53
 699 04d0 07D0     		beq	.L65
 700 04d2 3A2B     		cmp	r3, #58
 701 04d4 09D0     		beq	.L66
 702 04d6 2F2B     		cmp	r3, #47
 703 04d8 0CD1     		bne	.L73
 704              	.L64:
 332:openstack/02a-MAClow/IEEE802154Ecsl.c **** 		 // RX MODE
 333:openstack/02a-MAClow/IEEE802154Ecsl.c **** 		 case S_CSLRXWAKEUP:           activity_csl_wakeup_ri5(capturedTime);  break;
 705              		.loc 1 333 0
 706 04da 7868     		ldr	r0, [r7, #4]
 707 04dc FFF7FEFF 		bl	activity_csl_wakeup_ri5
 708 04e0 51E0     		b	.L68
 709              	.L65:
 334:openstack/02a-MAClow/IEEE802154Ecsl.c **** 		 case S_CSLRXDATA:             activity_csl_data_ri5(capturedTime);    break;
 710              		.loc 1 334 0
 711 04e2 7868     		ldr	r0, [r7, #4]
 712 04e4 FFF7FEFF 		bl	activity_csl_data_ri5
 713 04e8 4DE0     		b	.L68
 714              	.L66:
 335:openstack/02a-MAClow/IEEE802154Ecsl.c **** 		 case S_CSLTXACK:              activity_csl_data_ri9(capturedTime);    break;
 715              		.loc 1 335 0
 716 04ea 7868     		ldr	r0, [r7, #4]
 717 04ec FFF7FEFF 		bl	activity_csl_data_ri9
 718 04f0 00BF     		nop
 719 04f2 48E0     		b	.L68
 720              	.L73:
 336:openstack/02a-MAClow/IEEE802154Ecsl.c **** 		 default:
 337:openstack/02a-MAClow/IEEE802154Ecsl.c **** 			// log the error
 338:openstack/02a-MAClow/IEEE802154Ecsl.c **** 			openserial_printError(COMPONENT_IEEE802154E,ERR_WRONG_STATE_IN_CSL_ENDOFFRAME,
 339:openstack/02a-MAClow/IEEE802154Ecsl.c **** 								  (errorparameter_t)ieee154e_vars.state, (errorparameter_t)ieee154e_dbg.num_cslSamples);
 721              		.loc 1 339 0
 722 04f4 40F20003 		movw	r3, #:lower16:ieee154e_vars
 723 04f8 C0F20003 		movt	r3, #:upper16:ieee154e_vars
 724 04fc 5B7C     		ldrb	r3, [r3, #17]	@ zero_extendqisi2
 338:openstack/02a-MAClow/IEEE802154Ecsl.c **** 			openserial_printError(COMPONENT_IEEE802154E,ERR_WRONG_STATE_IN_CSL_ENDOFFRAME,
 725              		.loc 1 338 0
 726 04fe 1A46     		mov	r2, r3
 727              		.loc 1 339 0
 728 0500 40F20003 		movw	r3, #:lower16:ieee154e_dbg
 729 0504 C0F20003 		movt	r3, #:upper16:ieee154e_dbg
 730 0508 1B69     		ldr	r3, [r3, #16]
 338:openstack/02a-MAClow/IEEE802154Ecsl.c **** 			openserial_printError(COMPONENT_IEEE802154E,ERR_WRONG_STATE_IN_CSL_ENDOFFRAME,
 731              		.loc 1 338 0
 732 050a 9BB2     		uxth	r3, r3
 733 050c 4FF00900 		mov	r0, #9
 734 0510 4FF03F01 		mov	r1, #63
 735 0514 FFF7FEFF 		bl	openserial_printError
 340:openstack/02a-MAClow/IEEE802154Ecsl.c **** 			// abort
 341:openstack/02a-MAClow/IEEE802154Ecsl.c **** 			endOps();
 736              		.loc 1 341 0
 737 0518 FFF7FEFF 		bl	endOps
 342:openstack/02a-MAClow/IEEE802154Ecsl.c **** 			break;
 738              		.loc 1 342 0
 739 051c 33E0     		b	.L68
 740              	.L62:
 343:openstack/02a-MAClow/IEEE802154Ecsl.c **** 	   }
 344:openstack/02a-MAClow/IEEE802154Ecsl.c **** 	} else if (ieee154e_vars.cslMode == CSL_TX_MODE)  { // Current CSL operation mode is frame TX.
 741              		.loc 1 344 0
 742 051e 40F20003 		movw	r3, #:lower16:ieee154e_vars
 743 0522 C0F20003 		movt	r3, #:upper16:ieee154e_vars
 744 0526 93F84530 		ldrb	r3, [r3, #69]	@ zero_extendqisi2
 745 052a 022B     		cmp	r3, #2
 746 052c 2BD1     		bne	.L68
 345:openstack/02a-MAClow/IEEE802154Ecsl.c **** 	  switch (ieee154e_vars.state) {
 747              		.loc 1 345 0
 748 052e 40F20003 		movw	r3, #:lower16:ieee154e_vars
 749 0532 C0F20003 		movt	r3, #:upper16:ieee154e_vars
 750 0536 5B7C     		ldrb	r3, [r3, #17]	@ zero_extendqisi2
 751 0538 242B     		cmp	r3, #36
 752 053a 07D0     		beq	.L71
 753 053c 292B     		cmp	r3, #41
 754 053e 09D0     		beq	.L72
 755 0540 1E2B     		cmp	r3, #30
 756 0542 0BD1     		bne	.L74
 757              	.L70:
 346:openstack/02a-MAClow/IEEE802154Ecsl.c ****         // TX MODE
 347:openstack/02a-MAClow/IEEE802154Ecsl.c **** 	    case S_CSLTXWAKEUP:            activity_csl_wakeup_ti5(capturedTime); break;
 758              		.loc 1 347 0
 759 0544 7868     		ldr	r0, [r7, #4]
 760 0546 FFF7FEFF 		bl	activity_csl_wakeup_ti5
 761 054a 1CE0     		b	.L68
 762              	.L71:
 348:openstack/02a-MAClow/IEEE802154Ecsl.c ****         case S_CSLTXDATA:              activity_csl_data_ti5(capturedTime);   break;
 763              		.loc 1 348 0
 764 054c 7868     		ldr	r0, [r7, #4]
 765 054e FFF7FEFF 		bl	activity_csl_data_ti5
 766 0552 18E0     		b	.L68
 767              	.L72:
 349:openstack/02a-MAClow/IEEE802154Ecsl.c **** 	    case S_CSLRXACK:               activity_csl_data_ti9(capturedTime);   break;
 768              		.loc 1 349 0
 769 0554 7868     		ldr	r0, [r7, #4]
 770 0556 FFF7FEFF 		bl	activity_csl_data_ti9
 771 055a 14E0     		b	.L68
 772              	.L74:
 350:openstack/02a-MAClow/IEEE802154Ecsl.c **** 	    default:
 351:openstack/02a-MAClow/IEEE802154Ecsl.c ****            // log the error
 352:openstack/02a-MAClow/IEEE802154Ecsl.c **** 		   openserial_printError(COMPONENT_IEEE802154E,ERR_WRONG_STATE_IN_CSL_ENDOFFRAME,
 353:openstack/02a-MAClow/IEEE802154Ecsl.c **** 			   				    (errorparameter_t)ieee154e_vars.state, (errorparameter_t)ieee154e_dbg.num_cslSamples)
 773              		.loc 1 353 0
 774 055c 40F20003 		movw	r3, #:lower16:ieee154e_vars
 775 0560 C0F20003 		movt	r3, #:upper16:ieee154e_vars
 776 0564 5B7C     		ldrb	r3, [r3, #17]	@ zero_extendqisi2
 352:openstack/02a-MAClow/IEEE802154Ecsl.c **** 		   openserial_printError(COMPONENT_IEEE802154E,ERR_WRONG_STATE_IN_CSL_ENDOFFRAME,
 777              		.loc 1 352 0
 778 0566 1A46     		mov	r2, r3
 779              		.loc 1 353 0
 780 0568 40F20003 		movw	r3, #:lower16:ieee154e_dbg
 781 056c C0F20003 		movt	r3, #:upper16:ieee154e_dbg
 782 0570 1B69     		ldr	r3, [r3, #16]
 352:openstack/02a-MAClow/IEEE802154Ecsl.c **** 		   openserial_printError(COMPONENT_IEEE802154E,ERR_WRONG_STATE_IN_CSL_ENDOFFRAME,
 783              		.loc 1 352 0
 784 0572 9BB2     		uxth	r3, r3
 785 0574 4FF00900 		mov	r0, #9
 786 0578 4FF03F01 		mov	r1, #63
 787 057c FFF7FEFF 		bl	openserial_printError
 354:openstack/02a-MAClow/IEEE802154Ecsl.c ****     	   // abort
 355:openstack/02a-MAClow/IEEE802154Ecsl.c **** 		   endOps();
 788              		.loc 1 355 0
 789 0580 FFF7FEFF 		bl	endOps
 356:openstack/02a-MAClow/IEEE802154Ecsl.c **** 		   break;
 790              		.loc 1 356 0
 791 0584 00BF     		nop
 792              	.L68:
 357:openstack/02a-MAClow/IEEE802154Ecsl.c **** 	  }
 358:openstack/02a-MAClow/IEEE802154Ecsl.c **** 	}
 359:openstack/02a-MAClow/IEEE802154Ecsl.c ****    ieee154e_dbg.num_endOfFrame++;
 793              		.loc 1 359 0
 794 0586 40F20003 		movw	r3, #:lower16:ieee154e_dbg
 795 058a C0F20003 		movt	r3, #:upper16:ieee154e_dbg
 796 058e DB68     		ldr	r3, [r3, #12]
 797 0590 03F10102 		add	r2, r3, #1
 798 0594 40F20003 		movw	r3, #:lower16:ieee154e_dbg
 799 0598 C0F20003 		movt	r3, #:upper16:ieee154e_dbg
 800 059c DA60     		str	r2, [r3, #12]
 360:openstack/02a-MAClow/IEEE802154Ecsl.c **** }
 801              		.loc 1 360 0
 802 059e 07F10807 		add	r7, r7, #8
 803 05a2 BD46     		mov	sp, r7
 804 05a4 80BD     		pop	{r7, pc}
 805              		.cfi_endproc
 806              	.LFE4:
 808 05a6 00BF     		.align	2
 809              		.global	isr_ieee154ecsl_txtimer_cb
 810              		.thumb
 811              		.thumb_func
 813              	isr_ieee154ecsl_txtimer_cb:
 814              	.LFB5:
 361:openstack/02a-MAClow/IEEE802154Ecsl.c **** 
 362:openstack/02a-MAClow/IEEE802154Ecsl.c **** // tx timer interrupt callbacks
 363:openstack/02a-MAClow/IEEE802154Ecsl.c **** 
 364:openstack/02a-MAClow/IEEE802154Ecsl.c **** // [CSL]: Callback to check pending data to be sent.
 365:openstack/02a-MAClow/IEEE802154Ecsl.c **** void isr_ieee154ecsl_txtimer_cb() {
 815              		.loc 1 365 0
 816              		.cfi_startproc
 817              		@ args = 0, pretend = 0, frame = 0
 818              		@ frame_needed = 1, uses_anonymous_args = 0
 819 05a8 80B5     		push	{r7, lr}
 820              	.LCFI12:
 821              		.cfi_def_cfa_offset 8
 822              		.cfi_offset 7, -8
 823              		.cfi_offset 14, -4
 824 05aa 00AF     		add	r7, sp, #0
 825              	.LCFI13:
 826              		.cfi_def_cfa_register 7
 366:openstack/02a-MAClow/IEEE802154Ecsl.c **** 
 367:openstack/02a-MAClow/IEEE802154Ecsl.c **** 	// Verificamos que no estamos ya en un proceso de TX o RX previo.
 368:openstack/02a-MAClow/IEEE802154Ecsl.c ****    if(ieee154e_vars.cslMode == CSL_SLEEP_MODE) {
 827              		.loc 1 368 0
 828 05ac 40F20003 		movw	r3, #:lower16:ieee154e_vars
 829 05b0 C0F20003 		movt	r3, #:upper16:ieee154e_vars
 830 05b4 93F84530 		ldrb	r3, [r3, #69]	@ zero_extendqisi2
 831 05b8 002B     		cmp	r3, #0
 832 05ba 02D1     		bne	.L76
 369:openstack/02a-MAClow/IEEE802154Ecsl.c **** 	  // We call the first activity on FSM for channel sampling (CSL FSM RX mode)
 370:openstack/02a-MAClow/IEEE802154Ecsl.c ****       activity_csl_wakeup_ti1();
 833              		.loc 1 370 0
 834 05bc FFF7FEFF 		bl	activity_csl_wakeup_ti1
 835 05c0 12E0     		b	.L75
 836              	.L76:
 371:openstack/02a-MAClow/IEEE802154Ecsl.c ****    }
 372:openstack/02a-MAClow/IEEE802154Ecsl.c ****    else {
 373:openstack/02a-MAClow/IEEE802154Ecsl.c **** 	  // log the info about a operation in progress
 374:openstack/02a-MAClow/IEEE802154Ecsl.c **** 	  openserial_printInfo(COMPONENT_IEEE802154E,ERR_MAC_OPERATION_IN_PROGRESS,
 375:openstack/02a-MAClow/IEEE802154Ecsl.c **** 						  (errorparameter_t)ieee154e_vars.cslMode, (errorparameter_t)ieee154e_dbg.num_cslSamples);
 837              		.loc 1 375 0
 838 05c2 40F20003 		movw	r3, #:lower16:ieee154e_vars
 839 05c6 C0F20003 		movt	r3, #:upper16:ieee154e_vars
 840 05ca 93F84530 		ldrb	r3, [r3, #69]	@ zero_extendqisi2
 374:openstack/02a-MAClow/IEEE802154Ecsl.c **** 	  openserial_printInfo(COMPONENT_IEEE802154E,ERR_MAC_OPERATION_IN_PROGRESS,
 841              		.loc 1 374 0
 842 05ce 1A46     		mov	r2, r3
 843              		.loc 1 375 0
 844 05d0 40F20003 		movw	r3, #:lower16:ieee154e_dbg
 845 05d4 C0F20003 		movt	r3, #:upper16:ieee154e_dbg
 846 05d8 1B69     		ldr	r3, [r3, #16]
 374:openstack/02a-MAClow/IEEE802154Ecsl.c **** 	  openserial_printInfo(COMPONENT_IEEE802154E,ERR_MAC_OPERATION_IN_PROGRESS,
 847              		.loc 1 374 0
 848 05da 9BB2     		uxth	r3, r3
 849 05dc 4FF00900 		mov	r0, #9
 850 05e0 4FF04001 		mov	r1, #64
 851 05e4 FFF7FEFF 		bl	openserial_printInfo
 852              	.L75:
 376:openstack/02a-MAClow/IEEE802154Ecsl.c ****    }
 377:openstack/02a-MAClow/IEEE802154Ecsl.c **** }
 853              		.loc 1 377 0
 854 05e8 80BD     		pop	{r7, pc}
 855              		.cfi_endproc
 856              	.LFE5:
 858 05ea 00BF     		.align	2
 859              		.global	isr_ieee154ecsl_addPacketToQueueForTestingCslTx_cb
 860              		.thumb
 861              		.thumb_func
 863              	isr_ieee154ecsl_addPacketToQueueForTestingCslTx_cb:
 864              	.LFB6:
 378:openstack/02a-MAClow/IEEE802154Ecsl.c **** 
 379:openstack/02a-MAClow/IEEE802154Ecsl.c **** // test timer interrupt callback to put a new packet on queue for testing CSL TX mode.
 380:openstack/02a-MAClow/IEEE802154Ecsl.c **** 
 381:openstack/02a-MAClow/IEEE802154Ecsl.c **** void isr_ieee154ecsl_addPacketToQueueForTestingCslTx_cb () {
 865              		.loc 1 381 0
 866              		.cfi_startproc
 867              		@ args = 0, pretend = 0, frame = 24
 868              		@ frame_needed = 1, uses_anonymous_args = 0
 869 05ec B0B5     		push	{r4, r5, r7, lr}
 870              	.LCFI14:
 871              		.cfi_def_cfa_offset 16
 872              		.cfi_offset 4, -16
 873              		.cfi_offset 5, -12
 874              		.cfi_offset 7, -8
 875              		.cfi_offset 14, -4
 876 05ee 8AB0     		sub	sp, sp, #40
 877              	.LCFI15:
 878              		.cfi_def_cfa_offset 56
 879 05f0 04AF     		add	r7, sp, #16
 880              	.LCFI16:
 881              		.cfi_def_cfa 7, 40
 382:openstack/02a-MAClow/IEEE802154Ecsl.c **** 
 383:openstack/02a-MAClow/IEEE802154Ecsl.c ****   OpenQueueEntry_t* pkt;
 384:openstack/02a-MAClow/IEEE802154Ecsl.c ****   open_addr_t neighbor;
 385:openstack/02a-MAClow/IEEE802154Ecsl.c **** 
 386:openstack/02a-MAClow/IEEE802154Ecsl.c ****   // Simulate a ficticious address for CSL testing.
 387:openstack/02a-MAClow/IEEE802154Ecsl.c ****   neighbor.addr_64b[0]=0x00;
 882              		.loc 1 387 0
 883 05f2 4FF00003 		mov	r3, #0
 884 05f6 7B70     		strb	r3, [r7, #1]
 388:openstack/02a-MAClow/IEEE802154Ecsl.c ****   neighbor.addr_64b[1]=0x11;
 885              		.loc 1 388 0
 886 05f8 4FF01103 		mov	r3, #17
 887 05fc BB70     		strb	r3, [r7, #2]
 389:openstack/02a-MAClow/IEEE802154Ecsl.c ****   neighbor.addr_64b[2]=0x22;
 888              		.loc 1 389 0
 889 05fe 4FF02203 		mov	r3, #34
 890 0602 FB70     		strb	r3, [r7, #3]
 390:openstack/02a-MAClow/IEEE802154Ecsl.c ****   neighbor.addr_64b[3]=0x33;
 891              		.loc 1 390 0
 892 0604 4FF03303 		mov	r3, #51
 893 0608 3B71     		strb	r3, [r7, #4]
 391:openstack/02a-MAClow/IEEE802154Ecsl.c ****   neighbor.addr_64b[4]=0x44;
 894              		.loc 1 391 0
 895 060a 4FF04403 		mov	r3, #68
 896 060e 7B71     		strb	r3, [r7, #5]
 392:openstack/02a-MAClow/IEEE802154Ecsl.c ****   neighbor.addr_64b[5]=0x55;
 897              		.loc 1 392 0
 898 0610 4FF05503 		mov	r3, #85
 899 0614 BB71     		strb	r3, [r7, #6]
 393:openstack/02a-MAClow/IEEE802154Ecsl.c ****   neighbor.addr_64b[6]=0x66;
 900              		.loc 1 393 0
 901 0616 4FF06603 		mov	r3, #102
 902 061a FB71     		strb	r3, [r7, #7]
 394:openstack/02a-MAClow/IEEE802154Ecsl.c ****   neighbor.addr_64b[7]=0x77;
 903              		.loc 1 394 0
 904 061c 4FF07703 		mov	r3, #119
 905 0620 3B72     		strb	r3, [r7, #8]
 395:openstack/02a-MAClow/IEEE802154Ecsl.c **** 
 396:openstack/02a-MAClow/IEEE802154Ecsl.c ****   neighbor.type=ADDR_64B;
 906              		.loc 1 396 0
 907 0622 4FF00203 		mov	r3, #2
 908 0626 3B70     		strb	r3, [r7, #0]
 397:openstack/02a-MAClow/IEEE802154Ecsl.c **** 
 398:openstack/02a-MAClow/IEEE802154Ecsl.c ****   // Switch off all the leds.
 399:openstack/02a-MAClow/IEEE802154Ecsl.c ****   leds_all_off();
 909              		.loc 1 399 0
 910 0628 FFF7FEFF 		bl	leds_all_off
 400:openstack/02a-MAClow/IEEE802154Ecsl.c **** 
 401:openstack/02a-MAClow/IEEE802154Ecsl.c ****   // CREATE DATA PACKET ONLY IF NOT ALREADY EXISTS ON QUEUE.
 402:openstack/02a-MAClow/IEEE802154Ecsl.c **** 
 403:openstack/02a-MAClow/IEEE802154Ecsl.c ****   if (openqueue_macGetDataPacket(&neighbor) == NULL) {
 911              		.loc 1 403 0
 912 062c 3B46     		mov	r3, r7
 913 062e 1846     		mov	r0, r3
 914 0630 FFF7FEFF 		bl	openqueue_macGetDataPacket
 915 0634 0346     		mov	r3, r0
 916 0636 002B     		cmp	r3, #0
 917 0638 6FD1     		bne	.L78
 404:openstack/02a-MAClow/IEEE802154Ecsl.c **** 
 405:openstack/02a-MAClow/IEEE802154Ecsl.c **** 	  // get freebuffer.
 406:openstack/02a-MAClow/IEEE802154Ecsl.c **** 	  pkt = openqueue_getFreePacketBuffer(COMPONENT_IEEE802154E);
 918              		.loc 1 406 0
 919 063a 4FF00900 		mov	r0, #9
 920 063e FFF7FEFF 		bl	openqueue_getFreePacketBuffer
 921 0642 7861     		str	r0, [r7, #20]
 407:openstack/02a-MAClow/IEEE802154Ecsl.c **** 	  if(pkt==NULL) {
 922              		.loc 1 407 0
 923 0644 7B69     		ldr	r3, [r7, #20]
 924 0646 002B     		cmp	r3, #0
 925 0648 0CD1     		bne	.L80
 408:openstack/02a-MAClow/IEEE802154Ecsl.c **** 		// registro del error & fin de operaciones.
 409:openstack/02a-MAClow/IEEE802154Ecsl.c **** 		openserial_printError(COMPONENT_IEEE802154E,ERR_NO_FREE_PACKET_BUFFER, (errorparameter_t)0, (erro
 926              		.loc 1 409 0
 927 064a 4FF00900 		mov	r0, #9
 928 064e 4FF02C01 		mov	r1, #44
 929 0652 4FF00002 		mov	r2, #0
 930 0656 4FF00003 		mov	r3, #0
 931 065a FFF7FEFF 		bl	openserial_printError
 410:openstack/02a-MAClow/IEEE802154Ecsl.c **** 		endOps();
 932              		.loc 1 410 0
 933 065e FFF7FEFF 		bl	endOps
 934 0662 5AE0     		b	.L78
 935              	.L80:
 411:openstack/02a-MAClow/IEEE802154Ecsl.c **** 		return;
 412:openstack/02a-MAClow/IEEE802154Ecsl.c **** 	  }
 413:openstack/02a-MAClow/IEEE802154Ecsl.c **** 
 414:openstack/02a-MAClow/IEEE802154Ecsl.c **** 	  // Declaración de propiedad sobre el paquete.
 415:openstack/02a-MAClow/IEEE802154Ecsl.c **** 	  pkt->creator = COMPONENT_SIXTOP_TO_IEEE802154E;
 936              		.loc 1 415 0
 937 0664 7B69     		ldr	r3, [r7, #20]
 938 0666 4FF00A02 		mov	r2, #10
 939 066a 1A70     		strb	r2, [r3, #0]
 416:openstack/02a-MAClow/IEEE802154Ecsl.c **** 	  pkt->owner   = COMPONENT_SIXTOP_TO_IEEE802154E;
 940              		.loc 1 416 0
 941 066c 7B69     		ldr	r3, [r7, #20]
 942 066e 4FF00A02 		mov	r2, #10
 943 0672 5A70     		strb	r2, [r3, #1]
 417:openstack/02a-MAClow/IEEE802154Ecsl.c **** 
 418:openstack/02a-MAClow/IEEE802154Ecsl.c **** 	  // Frame type (data frame).
 419:openstack/02a-MAClow/IEEE802154Ecsl.c **** 	  pkt->l2_frameType=IEEE154_TYPE_DATA;
 944              		.loc 1 419 0
 945 0674 7B69     		ldr	r3, [r7, #20]
 946 0676 4FF00102 		mov	r2, #1
 947 067a 83F84920 		strb	r2, [r3, #73]
 420:openstack/02a-MAClow/IEEE802154Ecsl.c **** 
 421:openstack/02a-MAClow/IEEE802154Ecsl.c **** 	  // Flag created only to discriminate and toggle led indicator (only for TESTING)
 422:openstack/02a-MAClow/IEEE802154Ecsl.c **** 	  pkt->cslFlag=123;
 948              		.loc 1 422 0
 949 067e 7B69     		ldr	r3, [r7, #20]
 950 0680 4FF07B02 		mov	r2, #123
 951 0684 83F8ED20 		strb	r2, [r3, #237]
 423:openstack/02a-MAClow/IEEE802154Ecsl.c **** 
 424:openstack/02a-MAClow/IEEE802154Ecsl.c **** 	  // Neighbor address.
 425:openstack/02a-MAClow/IEEE802154Ecsl.c **** 	  memcpy(&(pkt->l2_nextORpreviousHop),&neighbor,sizeof(open_addr_t));
 952              		.loc 1 425 0
 953 0688 7B69     		ldr	r3, [r7, #20]
 954 068a 03F13803 		add	r3, r3, #56
 955 068e 1D46     		mov	r5, r3
 956 0690 3C46     		mov	r4, r7
 957 0692 0FCC     		ldmia	r4!, {r0, r1, r2, r3}
 958 0694 2860     		str	r0, [r5, #0]	@ unaligned
 959 0696 6960     		str	r1, [r5, #4]	@ unaligned
 960 0698 AA60     		str	r2, [r5, #8]	@ unaligned
 961 069a EB60     		str	r3, [r5, #12]	@ unaligned
 962 069c 2378     		ldrb	r3, [r4, #0]
 963 069e 2B74     		strb	r3, [r5, #16]
 426:openstack/02a-MAClow/IEEE802154Ecsl.c **** 
 427:openstack/02a-MAClow/IEEE802154Ecsl.c **** 	  // TX retries
 428:openstack/02a-MAClow/IEEE802154Ecsl.c **** 	  pkt->l2_retriesLeft = TXRETRIES;
 964              		.loc 1 428 0
 965 06a0 7B69     		ldr	r3, [r7, #20]
 966 06a2 4FF00302 		mov	r2, #3
 967 06a6 83F84B20 		strb	r2, [r3, #75]
 429:openstack/02a-MAClow/IEEE802154Ecsl.c **** 
 430:openstack/02a-MAClow/IEEE802154Ecsl.c **** 	  // record this packet's dsn (for matching the ACK)
 431:openstack/02a-MAClow/IEEE802154Ecsl.c **** 	  pkt->l2_dsn = ieee154e_vars.cslDSN++;
 968              		.loc 1 431 0
 969 06aa 40F20003 		movw	r3, #:lower16:ieee154e_vars
 970 06ae C0F20003 		movt	r3, #:upper16:ieee154e_vars
 971 06b2 93F84430 		ldrb	r3, [r3, #68]	@ zero_extendqisi2
 972 06b6 7A69     		ldr	r2, [r7, #20]
 973 06b8 1946     		mov	r1, r3
 974 06ba 82F84A10 		strb	r1, [r2, #74]
 975 06be 03F10103 		add	r3, r3, #1
 976 06c2 DAB2     		uxtb	r2, r3
 977 06c4 40F20003 		movw	r3, #:lower16:ieee154e_vars
 978 06c8 C0F20003 		movt	r3, #:upper16:ieee154e_vars
 979 06cc 83F84420 		strb	r2, [r3, #68]
 432:openstack/02a-MAClow/IEEE802154Ecsl.c **** 
 433:openstack/02a-MAClow/IEEE802154Ecsl.c **** 	  // this is a new packet which I never attempted to send
 434:openstack/02a-MAClow/IEEE802154Ecsl.c **** 	  pkt->l2_numTxAttempts = 0;
 980              		.loc 1 434 0
 981 06d0 7B69     		ldr	r3, [r7, #20]
 982 06d2 4FF00002 		mov	r2, #0
 983 06d6 83F84C20 		strb	r2, [r3, #76]
 435:openstack/02a-MAClow/IEEE802154Ecsl.c **** 
 436:openstack/02a-MAClow/IEEE802154Ecsl.c **** 	  // transmit with the default TX power
 437:openstack/02a-MAClow/IEEE802154Ecsl.c **** 	  pkt->l1_txPower = TX_POWER;
 984              		.loc 1 437 0
 985 06da 7B69     		ldr	r3, [r7, #20]
 986 06dc 4FF01F02 		mov	r2, #31
 987 06e0 83F86720 		strb	r2, [r3, #103]
 438:openstack/02a-MAClow/IEEE802154Ecsl.c **** 
 439:openstack/02a-MAClow/IEEE802154Ecsl.c **** 	  // add a IEEE802.15.4 header
 440:openstack/02a-MAClow/IEEE802154Ecsl.c **** 	  ieee802154_prependHeader(pkt,
 441:openstack/02a-MAClow/IEEE802154Ecsl.c **** 							   pkt->l2_frameType,
 988              		.loc 1 441 0
 989 06e4 7B69     		ldr	r3, [r7, #20]
 440:openstack/02a-MAClow/IEEE802154Ecsl.c **** 	  ieee802154_prependHeader(pkt,
 990              		.loc 1 440 0
 991 06e6 93F84930 		ldrb	r3, [r3, #73]	@ zero_extendqisi2
 442:openstack/02a-MAClow/IEEE802154Ecsl.c **** 							   IEEE154_IELIST_NO,
 443:openstack/02a-MAClow/IEEE802154Ecsl.c **** 							   IEEE154_FRAMEVERSION,
 444:openstack/02a-MAClow/IEEE802154Ecsl.c **** 							   IEEE154_SEC_NO_SECURITY,
 445:openstack/02a-MAClow/IEEE802154Ecsl.c **** 							   pkt->l2_dsn,
 992              		.loc 1 445 0
 993 06ea 7A69     		ldr	r2, [r7, #20]
 440:openstack/02a-MAClow/IEEE802154Ecsl.c **** 	  ieee802154_prependHeader(pkt,
 994              		.loc 1 440 0
 995 06ec 92F84A10 		ldrb	r1, [r2, #74]	@ zero_extendqisi2
 996 06f0 7A69     		ldr	r2, [r7, #20]
 997 06f2 02F13802 		add	r2, r2, #56
 998 06f6 4FF00000 		mov	r0, #0
 999 06fa 0090     		str	r0, [sp, #0]
 1000 06fc 0191     		str	r1, [sp, #4]
 1001 06fe 0292     		str	r2, [sp, #8]
 1002 0700 7869     		ldr	r0, [r7, #20]
 1003 0702 1946     		mov	r1, r3
 1004 0704 4FF00002 		mov	r2, #0
 1005 0708 4FF00203 		mov	r3, #2
 1006 070c FFF7FEFF 		bl	ieee802154_prependHeader
 446:openstack/02a-MAClow/IEEE802154Ecsl.c **** 							   &(pkt->l2_nextORpreviousHop)
 447:openstack/02a-MAClow/IEEE802154Ecsl.c **** 							   );
 448:openstack/02a-MAClow/IEEE802154Ecsl.c **** 
 449:openstack/02a-MAClow/IEEE802154Ecsl.c **** 	  // reserve space for 2-byte CRC
 450:openstack/02a-MAClow/IEEE802154Ecsl.c **** 	  packetfunctions_reserveFooterSize(pkt,2);
 1007              		.loc 1 450 0
 1008 0710 7869     		ldr	r0, [r7, #20]
 1009 0712 4FF00201 		mov	r1, #2
 1010 0716 FFF7FEFF 		bl	packetfunctions_reserveFooterSize
 1011              	.L78:
 451:openstack/02a-MAClow/IEEE802154Ecsl.c ****   }
 452:openstack/02a-MAClow/IEEE802154Ecsl.c **** 
 453:openstack/02a-MAClow/IEEE802154Ecsl.c ****   return;
 454:openstack/02a-MAClow/IEEE802154Ecsl.c **** }
 1012              		.loc 1 454 0
 1013 071a 07F11807 		add	r7, r7, #24
 1014 071e BD46     		mov	sp, r7
 1015 0720 B0BD     		pop	{r4, r5, r7, pc}
 1016              		.cfi_endproc
 1017              	.LFE6:
 1019 0722 00BF     		.align	2
 1020              		.global	activity_csl_wakeup_ti1
 1021              		.thumb
 1022              		.thumb_func
 1024              	activity_csl_wakeup_ti1:
 1025              	.LFB7:
 455:openstack/02a-MAClow/IEEE802154Ecsl.c **** 
 456:openstack/02a-MAClow/IEEE802154Ecsl.c **** 
 457:openstack/02a-MAClow/IEEE802154Ecsl.c **** //======================================================================
 458:openstack/02a-MAClow/IEEE802154Ecsl.c **** //========================== CSL TX MODE ===============================
 459:openstack/02a-MAClow/IEEE802154Ecsl.c **** //======================================================================
 460:openstack/02a-MAClow/IEEE802154Ecsl.c **** 
 461:openstack/02a-MAClow/IEEE802154Ecsl.c **** /**
 462:openstack/02a-MAClow/IEEE802154Ecsl.c ****  \brief Activity for CSL TX stage [wake-up ti1].
 463:openstack/02a-MAClow/IEEE802154Ecsl.c **** 
 464:openstack/02a-MAClow/IEEE802154Ecsl.c ****  This method is invoked in ISR-mode from "isr_ieee154ecsl_txtimer_cb" function when TX Timer is fir
 465:openstack/02a-MAClow/IEEE802154Ecsl.c **** 
 466:openstack/02a-MAClow/IEEE802154Ecsl.c **** */
 467:openstack/02a-MAClow/IEEE802154Ecsl.c **** port_INLINE void activity_csl_wakeup_ti1() {
 1026              		.loc 1 467 0
 1027              		.cfi_startproc
 1028              		@ args = 0, pretend = 0, frame = 24
 1029              		@ frame_needed = 1, uses_anonymous_args = 0
 1030 0724 80B5     		push	{r7, lr}
 1031              	.LCFI17:
 1032              		.cfi_def_cfa_offset 8
 1033              		.cfi_offset 7, -8
 1034              		.cfi_offset 14, -4
 1035 0726 86B0     		sub	sp, sp, #24
 1036              	.LCFI18:
 1037              		.cfi_def_cfa_offset 32
 1038 0728 00AF     		add	r7, sp, #0
 1039              	.LCFI19:
 1040              		.cfi_def_cfa_register 7
 468:openstack/02a-MAClow/IEEE802154Ecsl.c **** 	   cellType_t  cellType;
 469:openstack/02a-MAClow/IEEE802154Ecsl.c **** 	   open_addr_t neighbor;
 470:openstack/02a-MAClow/IEEE802154Ecsl.c **** 
 471:openstack/02a-MAClow/IEEE802154Ecsl.c **** 	   // update CSL Mode to TX in order to avoid problems in FSM.
 472:openstack/02a-MAClow/IEEE802154Ecsl.c **** 	   ieee154e_vars.cslMode = CSL_TX_MODE;
 1041              		.loc 1 472 0
 1042 072a 40F20003 		movw	r3, #:lower16:ieee154e_vars
 1043 072e C0F20003 		movt	r3, #:upper16:ieee154e_vars
 1044 0732 4FF00202 		mov	r2, #2
 1045 0736 83F84520 		strb	r2, [r3, #69]
 473:openstack/02a-MAClow/IEEE802154Ecsl.c **** 
 474:openstack/02a-MAClow/IEEE802154Ecsl.c **** 	   // Las acciones que realizaremos son las siguientes:
 475:openstack/02a-MAClow/IEEE802154Ecsl.c **** 	   //  - Avanzar el schedule para posicionar la siguiente posición en éste, el cual marcará la 
 476:openstack/02a-MAClow/IEEE802154Ecsl.c **** 	   //  - Verificar el estado actual dentro de la FSM para comprobar que efectivamente nos encontra
 477:openstack/02a-MAClow/IEEE802154Ecsl.c **** 	   //  - Si no hay problema en ambos, verificamos el tipo de slot en el schedule y preparamos un p
 478:openstack/02a-MAClow/IEEE802154Ecsl.c **** 	   //    destino asociado a dicho slot.
 479:openstack/02a-MAClow/IEEE802154Ecsl.c **** 
 480:openstack/02a-MAClow/IEEE802154Ecsl.c **** 	   // increment ASN (do this first so debug pins are in sync)
 481:openstack/02a-MAClow/IEEE802154Ecsl.c **** 	   incrementAsnOffset();
 1046              		.loc 1 481 0
 1047 073a FFF7FEFF 		bl	incrementAsnOffset
 482:openstack/02a-MAClow/IEEE802154Ecsl.c **** 
 483:openstack/02a-MAClow/IEEE802154Ecsl.c **** 	   // wiggle debug pins
 484:openstack/02a-MAClow/IEEE802154Ecsl.c **** 	   debugpins_slot_toggle();
 1048              		.loc 1 484 0
 1049 073e FFF7FEFF 		bl	debugpins_slot_toggle
 485:openstack/02a-MAClow/IEEE802154Ecsl.c **** 	   if (ieee154e_vars.slotOffset==0) {
 1050              		.loc 1 485 0
 1051 0742 40F20003 		movw	r3, #:lower16:ieee154e_vars
 1052 0746 C0F20003 		movt	r3, #:upper16:ieee154e_vars
 1053 074a DB88     		ldrh	r3, [r3, #6]
 1054 074c 002B     		cmp	r3, #0
 1055 074e 01D1     		bne	.L83
 486:openstack/02a-MAClow/IEEE802154Ecsl.c **** 	      debugpins_frame_toggle();
 1056              		.loc 1 486 0
 1057 0750 FFF7FEFF 		bl	debugpins_frame_toggle
 1058              	.L83:
 487:openstack/02a-MAClow/IEEE802154Ecsl.c **** 	   }
 488:openstack/02a-MAClow/IEEE802154Ecsl.c **** 
 489:openstack/02a-MAClow/IEEE802154Ecsl.c ****        // if the previous slot took too long, we will not be in the right state
 490:openstack/02a-MAClow/IEEE802154Ecsl.c **** 	   if (ieee154e_vars.state!=S_SLEEP) {
 1059              		.loc 1 490 0
 1060 0754 40F20003 		movw	r3, #:lower16:ieee154e_vars
 1061 0758 C0F20003 		movt	r3, #:upper16:ieee154e_vars
 1062 075c 5B7C     		ldrb	r3, [r3, #17]	@ zero_extendqisi2
 1063 075e 002B     		cmp	r3, #0
 1064 0760 14D0     		beq	.L84
 491:openstack/02a-MAClow/IEEE802154Ecsl.c **** 	      // log the error
 492:openstack/02a-MAClow/IEEE802154Ecsl.c **** 	      openserial_printError(COMPONENT_IEEE802154E,ERR_WRONG_STATE_IN_STARTSLOT,
 493:openstack/02a-MAClow/IEEE802154Ecsl.c **** 	                            (errorparameter_t)ieee154e_vars.state, (errorparameter_t)ieee154e_dbg.
 1065              		.loc 1 493 0
 1066 0762 40F20003 		movw	r3, #:lower16:ieee154e_vars
 1067 0766 C0F20003 		movt	r3, #:upper16:ieee154e_vars
 1068 076a 5B7C     		ldrb	r3, [r3, #17]	@ zero_extendqisi2
 492:openstack/02a-MAClow/IEEE802154Ecsl.c **** 	      openserial_printError(COMPONENT_IEEE802154E,ERR_WRONG_STATE_IN_STARTSLOT,
 1069              		.loc 1 492 0
 1070 076c 1A46     		mov	r2, r3
 1071              		.loc 1 493 0
 1072 076e 40F20003 		movw	r3, #:lower16:ieee154e_dbg
 1073 0772 C0F20003 		movt	r3, #:upper16:ieee154e_dbg
 1074 0776 1B69     		ldr	r3, [r3, #16]
 492:openstack/02a-MAClow/IEEE802154Ecsl.c **** 	      openserial_printError(COMPONENT_IEEE802154E,ERR_WRONG_STATE_IN_STARTSLOT,
 1075              		.loc 1 492 0
 1076 0778 9BB2     		uxth	r3, r3
 1077 077a 4FF00900 		mov	r0, #9
 1078 077e 4FF01E01 		mov	r1, #30
 1079 0782 FFF7FEFF 		bl	openserial_printError
 494:openstack/02a-MAClow/IEEE802154Ecsl.c **** 	      // abort
 495:openstack/02a-MAClow/IEEE802154Ecsl.c **** 	      endOps();
 1080              		.loc 1 495 0
 1081 0786 FFF7FEFF 		bl	endOps
 1082 078a 51E0     		b	.L82
 1083              	.L84:
 496:openstack/02a-MAClow/IEEE802154Ecsl.c **** 	      return;
 497:openstack/02a-MAClow/IEEE802154Ecsl.c **** 	   }
 498:openstack/02a-MAClow/IEEE802154Ecsl.c **** 
 499:openstack/02a-MAClow/IEEE802154Ecsl.c **** 	   // advance the schedule
 500:openstack/02a-MAClow/IEEE802154Ecsl.c ****        schedule_advanceSlot();
 1084              		.loc 1 500 0
 1085 078c FFF7FEFF 		bl	schedule_advanceSlot
 501:openstack/02a-MAClow/IEEE802154Ecsl.c **** 
 502:openstack/02a-MAClow/IEEE802154Ecsl.c ****        // stop using serial
 503:openstack/02a-MAClow/IEEE802154Ecsl.c ****        openserial_stop();
 1086              		.loc 1 503 0
 1087 0790 FFF7FEFF 		bl	openserial_stop
 504:openstack/02a-MAClow/IEEE802154Ecsl.c **** 
 505:openstack/02a-MAClow/IEEE802154Ecsl.c ****        // check the schedule to see what type of slot this is
 506:openstack/02a-MAClow/IEEE802154Ecsl.c ****        cellType = schedule_getType();
 1088              		.loc 1 506 0
 1089 0794 FFF7FEFF 		bl	schedule_getType
 1090 0798 0346     		mov	r3, r0
 1091 079a FB75     		strb	r3, [r7, #23]
 507:openstack/02a-MAClow/IEEE802154Ecsl.c **** 
 508:openstack/02a-MAClow/IEEE802154Ecsl.c ****        // check whether we can send
 509:openstack/02a-MAClow/IEEE802154Ecsl.c **** 	   if (schedule_getOkToSend()) {
 1092              		.loc 1 509 0
 1093 079c FFF7FEFF 		bl	schedule_getOkToSend
 1094 07a0 0346     		mov	r3, r0
 1095 07a2 002B     		cmp	r3, #0
 1096 07a4 10D0     		beq	.L86
 510:openstack/02a-MAClow/IEEE802154Ecsl.c **** 	       schedule_getNeighbor(&neighbor);
 1097              		.loc 1 510 0
 1098 07a6 07F10403 		add	r3, r7, #4
 1099 07aa 1846     		mov	r0, r3
 1100 07ac FFF7FEFF 		bl	schedule_getNeighbor
 511:openstack/02a-MAClow/IEEE802154Ecsl.c **** 	       ieee154e_vars.dataToSend = openqueue_macGetDataPacket(&neighbor);
 1101              		.loc 1 511 0
 1102 07b0 07F10403 		add	r3, r7, #4
 1103 07b4 1846     		mov	r0, r3
 1104 07b6 FFF7FEFF 		bl	openqueue_macGetDataPacket
 1105 07ba 0246     		mov	r2, r0
 1106 07bc 40F20003 		movw	r3, #:lower16:ieee154e_vars
 1107 07c0 C0F20003 		movt	r3, #:upper16:ieee154e_vars
 1108 07c4 5A61     		str	r2, [r3, #20]
 1109 07c6 06E0     		b	.L87
 1110              	.L86:
 512:openstack/02a-MAClow/IEEE802154Ecsl.c **** 	   } else {
 513:openstack/02a-MAClow/IEEE802154Ecsl.c **** 	       ieee154e_vars.dataToSend = NULL;
 1111              		.loc 1 513 0
 1112 07c8 40F20003 		movw	r3, #:lower16:ieee154e_vars
 1113 07cc C0F20003 		movt	r3, #:upper16:ieee154e_vars
 1114 07d0 4FF00002 		mov	r2, #0
 1115 07d4 5A61     		str	r2, [r3, #20]
 1116              	.L87:
 514:openstack/02a-MAClow/IEEE802154Ecsl.c **** 	   }
 515:openstack/02a-MAClow/IEEE802154Ecsl.c **** 	   if((ieee154e_vars.dataToSend!=NULL) && (cellType == CELLTYPE_TX)) {   // If I have a packet to 
 1117              		.loc 1 515 0
 1118 07d6 40F20003 		movw	r3, #:lower16:ieee154e_vars
 1119 07da C0F20003 		movt	r3, #:upper16:ieee154e_vars
 1120 07de 5B69     		ldr	r3, [r3, #20]
 1121 07e0 002B     		cmp	r3, #0
 1122 07e2 1DD0     		beq	.L88
 1123              		.loc 1 515 0 is_stmt 0 discriminator 1
 1124 07e4 FB7D     		ldrb	r3, [r7, #23]	@ zero_extendqisi2
 1125 07e6 022B     		cmp	r3, #2
 1126 07e8 1AD1     		bne	.L88
 516:openstack/02a-MAClow/IEEE802154Ecsl.c **** 	       // change state to start sending CSL preamble before send the data packet.
 517:openstack/02a-MAClow/IEEE802154Ecsl.c **** 	       changeState(S_CSLTXWAKEUPOFFSET);
 1127              		.loc 1 517 0 is_stmt 1
 1128 07ea 4FF01A00 		mov	r0, #26
 1129 07ee FFF7FEFF 		bl	changeState
 518:openstack/02a-MAClow/IEEE802154Ecsl.c **** 
 519:openstack/02a-MAClow/IEEE802154Ecsl.c ****            // record that I will attempt to transmit this packet
 520:openstack/02a-MAClow/IEEE802154Ecsl.c **** 	       ieee154e_vars.dataToSend->l2_numTxAttempts++;
 1130              		.loc 1 520 0
 1131 07f2 40F20003 		movw	r3, #:lower16:ieee154e_vars
 1132 07f6 C0F20003 		movt	r3, #:upper16:ieee154e_vars
 1133 07fa 5B69     		ldr	r3, [r3, #20]
 1134 07fc 93F84C20 		ldrb	r2, [r3, #76]	@ zero_extendqisi2
 1135 0800 02F10102 		add	r2, r2, #1
 1136 0804 D2B2     		uxtb	r2, r2
 1137 0806 83F84C20 		strb	r2, [r3, #76]
 521:openstack/02a-MAClow/IEEE802154Ecsl.c **** 
 522:openstack/02a-MAClow/IEEE802154Ecsl.c **** 	       // arm tt1
 523:openstack/02a-MAClow/IEEE802154Ecsl.c **** 	       radiotimer_schedule(DURATION_tt1);
 1138              		.loc 1 523 0
 1139 080a 40F20003 		movw	r3, #:lower16:ieee154e_vars
 1140 080e C0F20003 		movt	r3, #:upper16:ieee154e_vars
 1141 0812 5B6A     		ldr	r3, [r3, #36]
 1142 0814 03F13A03 		add	r3, r3, #58
 1143 0818 1846     		mov	r0, r3
 1144 081a FFF7FEFF 		bl	radiotimer_schedule
 1145 081e 07E0     		b	.L82
 1146              	.L88:
 524:openstack/02a-MAClow/IEEE802154Ecsl.c **** 	   } else {
 525:openstack/02a-MAClow/IEEE802154Ecsl.c **** 	       // abort because slot is not TX or there is no data to send, so we reset TX Mode state
 526:openstack/02a-MAClow/IEEE802154Ecsl.c **** 		   ieee154e_vars.cslMode = CSL_SLEEP_MODE;
 1147              		.loc 1 526 0
 1148 0820 40F20003 		movw	r3, #:lower16:ieee154e_vars
 1149 0824 C0F20003 		movt	r3, #:upper16:ieee154e_vars
 1150 0828 4FF00002 		mov	r2, #0
 1151 082c 83F84520 		strb	r2, [r3, #69]
 1152              	.L82:
 527:openstack/02a-MAClow/IEEE802154Ecsl.c **** 	   }
 528:openstack/02a-MAClow/IEEE802154Ecsl.c **** }
 1153              		.loc 1 528 0
 1154 0830 07F11807 		add	r7, r7, #24
 1155 0834 BD46     		mov	sp, r7
 1156 0836 80BD     		pop	{r7, pc}
 1157              		.cfi_endproc
 1158              	.LFE7:
 1160              		.align	2
 1161              		.global	activity_csl_wakeup_ti2
 1162              		.thumb
 1163              		.thumb_func
 1165              	activity_csl_wakeup_ti2:
 1166              	.LFB8:
 529:openstack/02a-MAClow/IEEE802154Ecsl.c **** 
 530:openstack/02a-MAClow/IEEE802154Ecsl.c **** 
 531:openstack/02a-MAClow/IEEE802154Ecsl.c **** /**
 532:openstack/02a-MAClow/IEEE802154Ecsl.c ****  \brief Activity for CSL TX stage [wake-up ti2].
 533:openstack/02a-MAClow/IEEE802154Ecsl.c **** 
 534:openstack/02a-MAClow/IEEE802154Ecsl.c ****   This method is invoked from ISR-mode "isr_ieee154ecsl_timer" function when FSM timer fires (expir
 535:openstack/02a-MAClow/IEEE802154Ecsl.c ****   The functionality is to prepare the radio for sending packets.
 536:openstack/02a-MAClow/IEEE802154Ecsl.c **** */
 537:openstack/02a-MAClow/IEEE802154Ecsl.c **** port_INLINE void activity_csl_wakeup_ti2() {
 1167              		.loc 1 537 0
 1168              		.cfi_startproc
 1169              		@ args = 0, pretend = 0, frame = 24
 1170              		@ frame_needed = 1, uses_anonymous_args = 0
 1171 0838 80B5     		push	{r7, lr}
 1172              	.LCFI20:
 1173              		.cfi_def_cfa_offset 8
 1174              		.cfi_offset 7, -8
 1175              		.cfi_offset 14, -4
 1176 083a 86B0     		sub	sp, sp, #24
 1177              	.LCFI21:
 1178              		.cfi_def_cfa_offset 32
 1179 083c 00AF     		add	r7, sp, #0
 1180              	.LCFI22:
 1181              		.cfi_def_cfa_register 7
 538:openstack/02a-MAClow/IEEE802154Ecsl.c **** 
 539:openstack/02a-MAClow/IEEE802154Ecsl.c ****    open_addr_t neighbor;
 540:openstack/02a-MAClow/IEEE802154Ecsl.c **** 
 541:openstack/02a-MAClow/IEEE802154Ecsl.c ****    // El tiempo de rendezvous que será necesario esperar será macCSLMaxPeriod al tratarse de
 542:openstack/02a-MAClow/IEEE802154Ecsl.c ****    // una comunicación en modo TX no sincronizado.
 543:openstack/02a-MAClow/IEEE802154Ecsl.c **** 
 544:openstack/02a-MAClow/IEEE802154Ecsl.c ****    // Calculamos el valor del rz-time en cada trama wake-up de la secuencia dado que debe ir reduci
 545:openstack/02a-MAClow/IEEE802154Ecsl.c ****    // al extemo remoto el tiempo restante hasta el envío de la trama de datos.
 546:openstack/02a-MAClow/IEEE802154Ecsl.c **** 
 547:openstack/02a-MAClow/IEEE802154Ecsl.c ****    // El tiempo lastCapturedTime se ve incrementado tras el envio de cada trama wake-up por lo que 
 548:openstack/02a-MAClow/IEEE802154Ecsl.c ****    // valor más proximo al macCSLMaxPeriod.
 549:openstack/02a-MAClow/IEEE802154Ecsl.c **** 
 550:openstack/02a-MAClow/IEEE802154Ecsl.c ****    ieee154e_vars.remainingRzTime = macCSLMaxPeriod - ieee154e_vars.lastCapturedTime;
 1182              		.loc 1 550 0
 1183 083e 40F20003 		movw	r3, #:lower16:ieee154e_vars
 1184 0842 C0F20003 		movt	r3, #:upper16:ieee154e_vars
 1185 0846 5B6A     		ldr	r3, [r3, #36]
 1186 0848 9BB2     		uxth	r3, r3
 1187 084a C3F5CC53 		rsb	r3, r3, #6528
 1188 084e 03F11A03 		add	r3, r3, #26
 1189 0852 9AB2     		uxth	r2, r3
 1190 0854 40F20003 		movw	r3, #:lower16:ieee154e_vars
 1191 0858 C0F20003 		movt	r3, #:upper16:ieee154e_vars
 1192 085c A3F84820 		strh	r2, [r3, #72]	@ movhi
 551:openstack/02a-MAClow/IEEE802154Ecsl.c **** 
 552:openstack/02a-MAClow/IEEE802154Ecsl.c ****    if (MaxWakeUpTxTime < ieee154e_vars.remainingRzTime) { // Si da tiempo a enviar una nueva trama 
 1193              		.loc 1 552 0
 1194 0860 40F20003 		movw	r3, #:lower16:ieee154e_vars
 1195 0864 C0F20003 		movt	r3, #:upper16:ieee154e_vars
 1196 0868 B3F84820 		ldrh	r2, [r3, #72]
 1197 086c 40F24113 		movw	r3, #321
 1198 0870 9A42     		cmp	r2, r3
 1199 0872 40F2CB80 		bls	.L91
 553:openstack/02a-MAClow/IEEE802154Ecsl.c **** 
 554:openstack/02a-MAClow/IEEE802154Ecsl.c **** 	   // change state
 555:openstack/02a-MAClow/IEEE802154Ecsl.c **** 	   changeState(S_CSLTXWAKEUPPREPARE);
 1200              		.loc 1 555 0
 1201 0876 4FF01B00 		mov	r0, #27
 1202 087a FFF7FEFF 		bl	changeState
 556:openstack/02a-MAClow/IEEE802154Ecsl.c **** 
 557:openstack/02a-MAClow/IEEE802154Ecsl.c **** 	   //
 558:openstack/02a-MAClow/IEEE802154Ecsl.c **** 	   // Construimos el paquete Wake-Up con su valor RZTime asociado en caso de no existir ya.
 559:openstack/02a-MAClow/IEEE802154Ecsl.c **** 	   //
 560:openstack/02a-MAClow/IEEE802154Ecsl.c **** 
 561:openstack/02a-MAClow/IEEE802154Ecsl.c **** 	   if (ieee154e_vars.wakeupToSend == NULL) { // first time
 1203              		.loc 1 561 0
 1204 087e 40F20003 		movw	r3, #:lower16:ieee154e_vars
 1205 0882 C0F20003 		movt	r3, #:upper16:ieee154e_vars
 1206 0886 DB6B     		ldr	r3, [r3, #60]
 1207 0888 002B     		cmp	r3, #0
 1208 088a 7FD1     		bne	.L92
 562:openstack/02a-MAClow/IEEE802154Ecsl.c **** 
 563:openstack/02a-MAClow/IEEE802154Ecsl.c **** 		   // obtenemos un buffer en el cual poder guardar los datos recibidos.
 564:openstack/02a-MAClow/IEEE802154Ecsl.c **** 		   ieee154e_vars.wakeupToSend = openqueue_getFreePacketBuffer(COMPONENT_IEEE802154E);
 1209              		.loc 1 564 0
 1210 088c 4FF00900 		mov	r0, #9
 1211 0890 FFF7FEFF 		bl	openqueue_getFreePacketBuffer
 1212 0894 0246     		mov	r2, r0
 1213 0896 40F20003 		movw	r3, #:lower16:ieee154e_vars
 1214 089a C0F20003 		movt	r3, #:upper16:ieee154e_vars
 1215 089e DA63     		str	r2, [r3, #60]
 565:openstack/02a-MAClow/IEEE802154Ecsl.c **** 		   if (ieee154e_vars.wakeupToSend == NULL) {
 1216              		.loc 1 565 0
 1217 08a0 40F20003 		movw	r3, #:lower16:ieee154e_vars
 1218 08a4 C0F20003 		movt	r3, #:upper16:ieee154e_vars
 1219 08a8 DB6B     		ldr	r3, [r3, #60]
 1220 08aa 002B     		cmp	r3, #0
 1221 08ac 0CD1     		bne	.L93
 566:openstack/02a-MAClow/IEEE802154Ecsl.c **** 			  // registro del error & fin de operaciones.
 567:openstack/02a-MAClow/IEEE802154Ecsl.c **** 			  openserial_printError(COMPONENT_IEEE802154E,ERR_NO_FREE_PACKET_BUFFER, (errorparameter_t)0, (e
 1222              		.loc 1 567 0
 1223 08ae 4FF00900 		mov	r0, #9
 1224 08b2 4FF02C01 		mov	r1, #44
 1225 08b6 4FF00002 		mov	r2, #0
 1226 08ba 4FF00003 		mov	r3, #0
 1227 08be FFF7FEFF 		bl	openserial_printError
 568:openstack/02a-MAClow/IEEE802154Ecsl.c **** 			  endOps();
 1228              		.loc 1 568 0
 1229 08c2 FFF7FEFF 		bl	endOps
 1230 08c6 AEE0     		b	.L90
 1231              	.L93:
 569:openstack/02a-MAClow/IEEE802154Ecsl.c **** 			  return;
 570:openstack/02a-MAClow/IEEE802154Ecsl.c **** 		   }
 571:openstack/02a-MAClow/IEEE802154Ecsl.c **** 
 572:openstack/02a-MAClow/IEEE802154Ecsl.c **** 		   // Declaración de propiedad sobre el paquete.
 573:openstack/02a-MAClow/IEEE802154Ecsl.c **** 		   ieee154e_vars.wakeupToSend->creator = COMPONENT_IEEE802154E;
 1232              		.loc 1 573 0
 1233 08c8 40F20003 		movw	r3, #:lower16:ieee154e_vars
 1234 08cc C0F20003 		movt	r3, #:upper16:ieee154e_vars
 1235 08d0 DB6B     		ldr	r3, [r3, #60]
 1236 08d2 4FF00902 		mov	r2, #9
 1237 08d6 1A70     		strb	r2, [r3, #0]
 574:openstack/02a-MAClow/IEEE802154Ecsl.c **** 		   ieee154e_vars.wakeupToSend->owner   = COMPONENT_IEEE802154E;
 1238              		.loc 1 574 0
 1239 08d8 40F20003 		movw	r3, #:lower16:ieee154e_vars
 1240 08dc C0F20003 		movt	r3, #:upper16:ieee154e_vars
 1241 08e0 DB6B     		ldr	r3, [r3, #60]
 1242 08e2 4FF00902 		mov	r2, #9
 1243 08e6 5A70     		strb	r2, [r3, #1]
 575:openstack/02a-MAClow/IEEE802154Ecsl.c **** 
 576:openstack/02a-MAClow/IEEE802154Ecsl.c **** 		   // El tipo de trama es Multipurpose.
 577:openstack/02a-MAClow/IEEE802154Ecsl.c **** 		   ieee154e_vars.wakeupToSend->l2_frameType = IEEE154_TYPE_MULTIPURPOSE;
 1244              		.loc 1 577 0
 1245 08e8 40F20003 		movw	r3, #:lower16:ieee154e_vars
 1246 08ec C0F20003 		movt	r3, #:upper16:ieee154e_vars
 1247 08f0 DB6B     		ldr	r3, [r3, #60]
 1248 08f2 4FF00502 		mov	r2, #5
 1249 08f6 83F84920 		strb	r2, [r3, #73]
 578:openstack/02a-MAClow/IEEE802154Ecsl.c **** 
 579:openstack/02a-MAClow/IEEE802154Ecsl.c **** 		   // El dsn del paquete lo obtenemos a partir del actual DSN incrementado en cada paquete de la 
 580:openstack/02a-MAClow/IEEE802154Ecsl.c **** 		   ieee154e_vars.wakeupToSend->l2_dsn = ieee154e_vars.cslDSN++;
 1250              		.loc 1 580 0
 1251 08fa 40F20003 		movw	r3, #:lower16:ieee154e_vars
 1252 08fe C0F20003 		movt	r3, #:upper16:ieee154e_vars
 1253 0902 DA6B     		ldr	r2, [r3, #60]
 1254 0904 40F20003 		movw	r3, #:lower16:ieee154e_vars
 1255 0908 C0F20003 		movt	r3, #:upper16:ieee154e_vars
 1256 090c 93F84430 		ldrb	r3, [r3, #68]	@ zero_extendqisi2
 1257 0910 1946     		mov	r1, r3
 1258 0912 82F84A10 		strb	r1, [r2, #74]
 1259 0916 03F10103 		add	r3, r3, #1
 1260 091a DAB2     		uxtb	r2, r3
 1261 091c 40F20003 		movw	r3, #:lower16:ieee154e_vars
 1262 0920 C0F20003 		movt	r3, #:upper16:ieee154e_vars
 1263 0924 83F84420 		strb	r2, [r3, #68]
 581:openstack/02a-MAClow/IEEE802154Ecsl.c **** 
 582:openstack/02a-MAClow/IEEE802154Ecsl.c **** 		   // El destinatario es el mismo que el destinatario del mensaje de datos indicado en el schedul
 583:openstack/02a-MAClow/IEEE802154Ecsl.c **** 		   schedule_getNeighbor(&neighbor);
 1264              		.loc 1 583 0
 1265 0928 07F10403 		add	r3, r7, #4
 1266 092c 1846     		mov	r0, r3
 1267 092e FFF7FEFF 		bl	schedule_getNeighbor
 584:openstack/02a-MAClow/IEEE802154Ecsl.c **** 
 585:openstack/02a-MAClow/IEEE802154Ecsl.c **** 		   // Verificamos que se trata de una dirección corta (short address). En caso contrario generam
 586:openstack/02a-MAClow/IEEE802154Ecsl.c **** 		   if(neighbor.type != ADDR_16B) {
 1268              		.loc 1 586 0
 1269 0932 3B79     		ldrb	r3, [r7, #4]	@ zero_extendqisi2
 1270 0934 012B     		cmp	r3, #1
 1271 0936 08D0     		beq	.L95
 587:openstack/02a-MAClow/IEEE802154Ecsl.c **** 			   // CSL: This is an invalid address because address in wake-up frame must be short address.
 588:openstack/02a-MAClow/IEEE802154Ecsl.c **** 			   // We do not finish operations but we will use later short address getting it from long addre
 589:openstack/02a-MAClow/IEEE802154Ecsl.c **** 			   openserial_printInfo(COMPONENT_IEEE802154,ERR_IEEE154_UNSUPPORTED, (errorparameter_t)1, (erro
 1272              		.loc 1 589 0
 1273 0938 3B79     		ldrb	r3, [r7, #4]	@ zero_extendqisi2
 1274 093a 4FF00800 		mov	r0, #8
 1275 093e 4FF01901 		mov	r1, #25
 1276 0942 4FF00102 		mov	r2, #1
 1277 0946 FFF7FEFF 		bl	openserial_printInfo
 1278              	.L95:
 590:openstack/02a-MAClow/IEEE802154Ecsl.c **** 		   }
 591:openstack/02a-MAClow/IEEE802154Ecsl.c **** 
 592:openstack/02a-MAClow/IEEE802154Ecsl.c **** 		   // create frame header.
 593:openstack/02a-MAClow/IEEE802154Ecsl.c **** 		   ieee802154_createWakeUpFrame(ieee154e_vars.wakeupToSend,
 1279              		.loc 1 593 0
 1280 094a 40F20003 		movw	r3, #:lower16:ieee154e_vars
 1281 094e C0F20003 		movt	r3, #:upper16:ieee154e_vars
 1282 0952 D86B     		ldr	r0, [r3, #60]
 594:openstack/02a-MAClow/IEEE802154Ecsl.c **** 										ieee154e_vars.wakeupToSend->l2_dsn,
 1283              		.loc 1 594 0
 1284 0954 40F20003 		movw	r3, #:lower16:ieee154e_vars
 1285 0958 C0F20003 		movt	r3, #:upper16:ieee154e_vars
 1286 095c DB6B     		ldr	r3, [r3, #60]
 593:openstack/02a-MAClow/IEEE802154Ecsl.c **** 		   ieee802154_createWakeUpFrame(ieee154e_vars.wakeupToSend,
 1287              		.loc 1 593 0
 1288 095e 93F84A10 		ldrb	r1, [r3, #74]	@ zero_extendqisi2
 1289 0962 40F20003 		movw	r3, #:lower16:ieee154e_vars
 1290 0966 C0F20003 		movt	r3, #:upper16:ieee154e_vars
 1291 096a B3F84830 		ldrh	r3, [r3, #72]
 1292 096e 07F10402 		add	r2, r7, #4
 1293 0972 FFF7FEFF 		bl	ieee802154_createWakeUpFrame
 595:openstack/02a-MAClow/IEEE802154Ecsl.c **** 										&neighbor,
 596:openstack/02a-MAClow/IEEE802154Ecsl.c **** 										ieee154e_vars.remainingRzTime);
 597:openstack/02a-MAClow/IEEE802154Ecsl.c **** 
 598:openstack/02a-MAClow/IEEE802154Ecsl.c **** 		   // space for 2-byte CRC
 599:openstack/02a-MAClow/IEEE802154Ecsl.c **** 		   packetfunctions_reserveFooterSize(ieee154e_vars.wakeupToSend,2);
 1294              		.loc 1 599 0
 1295 0976 40F20003 		movw	r3, #:lower16:ieee154e_vars
 1296 097a C0F20003 		movt	r3, #:upper16:ieee154e_vars
 1297 097e DB6B     		ldr	r3, [r3, #60]
 1298 0980 1846     		mov	r0, r3
 1299 0982 4FF00201 		mov	r1, #2
 1300 0986 FFF7FEFF 		bl	packetfunctions_reserveFooterSize
 1301 098a 0EE0     		b	.L96
 1302              	.L92:
 600:openstack/02a-MAClow/IEEE802154Ecsl.c **** 	   }
 601:openstack/02a-MAClow/IEEE802154Ecsl.c **** 	   else {
 602:openstack/02a-MAClow/IEEE802154Ecsl.c **** 		   // update rztime in header.
 603:openstack/02a-MAClow/IEEE802154Ecsl.c **** 		   // Se posiciona 8 posiciones antes dado que estamos escribiendo el paquete de atras hacia dela
 604:openstack/02a-MAClow/IEEE802154Ecsl.c **** 		   // - 1 byte FCF
 605:openstack/02a-MAClow/IEEE802154Ecsl.c **** 		   // - 1 byte SEQ
 606:openstack/02a-MAClow/IEEE802154Ecsl.c **** 		   // - 2 bytes PANID
 607:openstack/02a-MAClow/IEEE802154Ecsl.c **** 		   // - 2 bytes DEST ADDR
 608:openstack/02a-MAClow/IEEE802154Ecsl.c **** 		   // - 2 bytes RZTIME IE HEADER
 609:openstack/02a-MAClow/IEEE802154Ecsl.c **** 		   // - 2 bytes RZTIME (el cual se sobrescribirá con el nuevo valor).
 610:openstack/02a-MAClow/IEEE802154Ecsl.c **** 		   *((uint16_t*)(ieee154e_vars.wakeupToSend->payload+8)) = ieee154e_vars.remainingRzTime;
 1303              		.loc 1 610 0
 1304 098c 40F20003 		movw	r3, #:lower16:ieee154e_vars
 1305 0990 C0F20003 		movt	r3, #:upper16:ieee154e_vars
 1306 0994 DB6B     		ldr	r3, [r3, #60]
 1307 0996 5B68     		ldr	r3, [r3, #4]
 1308 0998 03F10802 		add	r2, r3, #8
 1309 099c 40F20003 		movw	r3, #:lower16:ieee154e_vars
 1310 09a0 C0F20003 		movt	r3, #:upper16:ieee154e_vars
 1311 09a4 B3F84830 		ldrh	r3, [r3, #72]
 1312 09a8 1380     		strh	r3, [r2, #0]	@ movhi
 1313              	.L96:
 611:openstack/02a-MAClow/IEEE802154Ecsl.c **** 	   }
 612:openstack/02a-MAClow/IEEE802154Ecsl.c **** 
 613:openstack/02a-MAClow/IEEE802154Ecsl.c **** 	   // load the packet in the radio's Tx buffer
 614:openstack/02a-MAClow/IEEE802154Ecsl.c **** 	   radio_loadPacket(ieee154e_vars.wakeupToSend->payload, ieee154e_vars.wakeupToSend->length);
 1314              		.loc 1 614 0
 1315 09aa 40F20003 		movw	r3, #:lower16:ieee154e_vars
 1316 09ae C0F20003 		movt	r3, #:upper16:ieee154e_vars
 1317 09b2 DB6B     		ldr	r3, [r3, #60]
 1318 09b4 5A68     		ldr	r2, [r3, #4]
 1319 09b6 40F20003 		movw	r3, #:lower16:ieee154e_vars
 1320 09ba C0F20003 		movt	r3, #:upper16:ieee154e_vars
 1321 09be DB6B     		ldr	r3, [r3, #60]
 1322 09c0 1B7A     		ldrb	r3, [r3, #8]	@ zero_extendqisi2
 1323 09c2 1046     		mov	r0, r2
 1324 09c4 1946     		mov	r1, r3
 1325 09c6 FFF7FEFF 		bl	radio_loadPacket
 615:openstack/02a-MAClow/IEEE802154Ecsl.c **** 
 616:openstack/02a-MAClow/IEEE802154Ecsl.c **** 	   // enable the radio in Tx mode. This does not send the packet.
 617:openstack/02a-MAClow/IEEE802154Ecsl.c **** 	   radio_txEnable();
 1326              		.loc 1 617 0
 1327 09ca FFF7FEFF 		bl	radio_txEnable
 618:openstack/02a-MAClow/IEEE802154Ecsl.c **** 	   ieee154e_vars.radioOnInit=radio_getTimerValue();
 1328              		.loc 1 618 0
 1329 09ce FFF7FEFF 		bl	radio_getTimerValue
 1330 09d2 0246     		mov	r2, r0
 1331 09d4 40F20003 		movw	r3, #:lower16:ieee154e_vars
 1332 09d8 C0F20003 		movt	r3, #:upper16:ieee154e_vars
 1333 09dc 1A63     		str	r2, [r3, #48]
 619:openstack/02a-MAClow/IEEE802154Ecsl.c **** 	   ieee154e_vars.radioOnThisSlot=TRUE;
 1334              		.loc 1 619 0
 1335 09de 40F20003 		movw	r3, #:lower16:ieee154e_vars
 1336 09e2 C0F20003 		movt	r3, #:upper16:ieee154e_vars
 1337 09e6 4FF00102 		mov	r2, #1
 1338 09ea 83F83820 		strb	r2, [r3, #56]
 620:openstack/02a-MAClow/IEEE802154Ecsl.c **** 
 621:openstack/02a-MAClow/IEEE802154Ecsl.c **** 	   // arm tt2
 622:openstack/02a-MAClow/IEEE802154Ecsl.c ****        radiotimer_schedule(DURATION_tt2);
 1339              		.loc 1 622 0
 1340 09ee 40F20003 		movw	r3, #:lower16:ieee154e_vars
 1341 09f2 C0F20003 		movt	r3, #:upper16:ieee154e_vars
 1342 09f6 5B6A     		ldr	r3, [r3, #36]
 1343 09f8 03F17C03 		add	r3, r3, #124
 1344 09fc 1846     		mov	r0, r3
 1345 09fe FFF7FEFF 		bl	radiotimer_schedule
 623:openstack/02a-MAClow/IEEE802154Ecsl.c **** 
 624:openstack/02a-MAClow/IEEE802154Ecsl.c **** 	   // change state
 625:openstack/02a-MAClow/IEEE802154Ecsl.c **** 	   changeState(S_CSLTXWAKEUPREADY);
 1346              		.loc 1 625 0
 1347 0a02 4FF01C00 		mov	r0, #28
 1348 0a06 FFF7FEFF 		bl	changeState
 1349 0a0a 0CE0     		b	.L90
 1350              	.L91:
 626:openstack/02a-MAClow/IEEE802154Ecsl.c ****    }
 627:openstack/02a-MAClow/IEEE802154Ecsl.c ****    else {
 628:openstack/02a-MAClow/IEEE802154Ecsl.c **** 	   // Si no da tiempo a enviar una nueva trama, simplemente esperamos un tiempo igual a remainingR
 629:openstack/02a-MAClow/IEEE802154Ecsl.c **** 	   // el tiempo que queda pendiente hasta el envío de la trama de datos y actualizamos directamen
 630:openstack/02a-MAClow/IEEE802154Ecsl.c **** 	   // pasar a la transmisión de los datos, a través del estado CSLTXDATAPREOFFSET.
 631:openstack/02a-MAClow/IEEE802154Ecsl.c **** 
 632:openstack/02a-MAClow/IEEE802154Ecsl.c **** 	   // change state
 633:openstack/02a-MAClow/IEEE802154Ecsl.c **** 	   changeState(S_CSLTXDATAPREOFFSET);
 1351              		.loc 1 633 0
 1352 0a0c 4FF01F00 		mov	r0, #31
 1353 0a10 FFF7FEFF 		bl	changeState
 634:openstack/02a-MAClow/IEEE802154Ecsl.c **** 
 635:openstack/02a-MAClow/IEEE802154Ecsl.c **** 	   // arm remaining rendezvous time.
 636:openstack/02a-MAClow/IEEE802154Ecsl.c **** 	   radiotimer_schedule(ieee154e_vars.remainingRzTime);
 1354              		.loc 1 636 0
 1355 0a14 40F20003 		movw	r3, #:lower16:ieee154e_vars
 1356 0a18 C0F20003 		movt	r3, #:upper16:ieee154e_vars
 1357 0a1c B3F84830 		ldrh	r3, [r3, #72]
 1358 0a20 1846     		mov	r0, r3
 1359 0a22 FFF7FEFF 		bl	radiotimer_schedule
 1360              	.L90:
 637:openstack/02a-MAClow/IEEE802154Ecsl.c ****    }
 638:openstack/02a-MAClow/IEEE802154Ecsl.c **** }
 1361              		.loc 1 638 0
 1362 0a26 07F11807 		add	r7, r7, #24
 1363 0a2a BD46     		mov	sp, r7
 1364 0a2c 80BD     		pop	{r7, pc}
 1365              		.cfi_endproc
 1366              	.LFE8:
 1368 0a2e 00BF     		.align	2
 1369              		.global	activity_csl_wakeup_tie1
 1370              		.thumb
 1371              		.thumb_func
 1373              	activity_csl_wakeup_tie1:
 1374              	.LFB9:
 639:openstack/02a-MAClow/IEEE802154Ecsl.c **** 
 640:openstack/02a-MAClow/IEEE802154Ecsl.c **** /**
 641:openstack/02a-MAClow/IEEE802154Ecsl.c ****  \brief Activity for CSL TX stage [wake-up tie1].
 642:openstack/02a-MAClow/IEEE802154Ecsl.c **** 
 643:openstack/02a-MAClow/IEEE802154Ecsl.c ****   This is triggered by #tt2 expiring, i.e. timer fires while state = S_CSLTXWAKEUPPREPARE. This is 
 644:openstack/02a-MAClow/IEEE802154Ecsl.c ****   did not have enough time to execute. Chances are to set maxTxDataPrepare too small. The implement
 645:openstack/02a-MAClow/IEEE802154Ecsl.c **** */
 646:openstack/02a-MAClow/IEEE802154Ecsl.c **** port_INLINE void activity_csl_wakeup_tie1() {
 1375              		.loc 1 646 0
 1376              		.cfi_startproc
 1377              		@ args = 0, pretend = 0, frame = 0
 1378              		@ frame_needed = 1, uses_anonymous_args = 0
 1379 0a30 80B5     		push	{r7, lr}
 1380              	.LCFI23:
 1381              		.cfi_def_cfa_offset 8
 1382              		.cfi_offset 7, -8
 1383              		.cfi_offset 14, -4
 1384 0a32 00AF     		add	r7, sp, #0
 1385              	.LCFI24:
 1386              		.cfi_def_cfa_register 7
 647:openstack/02a-MAClow/IEEE802154Ecsl.c ****    // log the error
 648:openstack/02a-MAClow/IEEE802154Ecsl.c ****    openserial_printError(COMPONENT_IEEE802154E,ERR_MAXTXDATAPREPARE_OVERFLOW,
 649:openstack/02a-MAClow/IEEE802154Ecsl.c ****                          (errorparameter_t)ieee154e_vars.state, (errorparameter_t)ieee154e_vars.slo
 1387              		.loc 1 649 0
 1388 0a34 40F20003 		movw	r3, #:lower16:ieee154e_vars
 1389 0a38 C0F20003 		movt	r3, #:upper16:ieee154e_vars
 1390 0a3c 5B7C     		ldrb	r3, [r3, #17]	@ zero_extendqisi2
 648:openstack/02a-MAClow/IEEE802154Ecsl.c ****    openserial_printError(COMPONENT_IEEE802154E,ERR_MAXTXDATAPREPARE_OVERFLOW,
 1391              		.loc 1 648 0
 1392 0a3e 1A46     		mov	r2, r3
 1393 0a40 40F20003 		movw	r3, #:lower16:ieee154e_vars
 1394 0a44 C0F20003 		movt	r3, #:upper16:ieee154e_vars
 1395 0a48 DB88     		ldrh	r3, [r3, #6]
 1396 0a4a 4FF00900 		mov	r0, #9
 1397 0a4e 4FF02201 		mov	r1, #34
 1398 0a52 FFF7FEFF 		bl	openserial_printError
 650:openstack/02a-MAClow/IEEE802154Ecsl.c **** 
 651:openstack/02a-MAClow/IEEE802154Ecsl.c ****    // abort
 652:openstack/02a-MAClow/IEEE802154Ecsl.c ****    endOps();
 1399              		.loc 1 652 0
 1400 0a56 FFF7FEFF 		bl	endOps
 653:openstack/02a-MAClow/IEEE802154Ecsl.c **** }
 1401              		.loc 1 653 0
 1402 0a5a 80BD     		pop	{r7, pc}
 1403              		.cfi_endproc
 1404              	.LFE9:
 1406              		.align	2
 1407              		.global	activity_csl_wakeup_ti3
 1408              		.thumb
 1409              		.thumb_func
 1411              	activity_csl_wakeup_ti3:
 1412              	.LFB10:
 654:openstack/02a-MAClow/IEEE802154Ecsl.c **** 
 655:openstack/02a-MAClow/IEEE802154Ecsl.c **** /**
 656:openstack/02a-MAClow/IEEE802154Ecsl.c ****  \brief Activity for CSL TX stage [wake-up ti3].
 657:openstack/02a-MAClow/IEEE802154Ecsl.c **** 
 658:openstack/02a-MAClow/IEEE802154Ecsl.c ****   This method is invoked from ISR-mode "isr_ieee154ecsl_timer" function when FSM timer fires (expir
 659:openstack/02a-MAClow/IEEE802154Ecsl.c ****   The radio is configured and this interrupt gives it the "go" signal to start listening.
 660:openstack/02a-MAClow/IEEE802154Ecsl.c **** */
 661:openstack/02a-MAClow/IEEE802154Ecsl.c **** 
 662:openstack/02a-MAClow/IEEE802154Ecsl.c **** port_INLINE void activity_csl_wakeup_ti3() {
 1413              		.loc 1 662 0
 1414              		.cfi_startproc
 1415              		@ args = 0, pretend = 0, frame = 0
 1416              		@ frame_needed = 1, uses_anonymous_args = 0
 1417 0a5c 80B5     		push	{r7, lr}
 1418              	.LCFI25:
 1419              		.cfi_def_cfa_offset 8
 1420              		.cfi_offset 7, -8
 1421              		.cfi_offset 14, -4
 1422 0a5e 00AF     		add	r7, sp, #0
 1423              	.LCFI26:
 1424              		.cfi_def_cfa_register 7
 663:openstack/02a-MAClow/IEEE802154Ecsl.c ****    // change state
 664:openstack/02a-MAClow/IEEE802154Ecsl.c ****    changeState(S_CSLTXWAKEUPDELAY);
 1425              		.loc 1 664 0
 1426 0a60 4FF01D00 		mov	r0, #29
 1427 0a64 FFF7FEFF 		bl	changeState
 665:openstack/02a-MAClow/IEEE802154Ecsl.c **** 
 666:openstack/02a-MAClow/IEEE802154Ecsl.c ****    // arm tt3
 667:openstack/02a-MAClow/IEEE802154Ecsl.c ****    radiotimer_schedule(DURATION_tt3);
 1428              		.loc 1 667 0
 1429 0a68 40F20003 		movw	r3, #:lower16:ieee154e_vars
 1430 0a6c C0F20003 		movt	r3, #:upper16:ieee154e_vars
 1431 0a70 5B6A     		ldr	r3, [r3, #36]
 1432 0a72 03F19D03 		add	r3, r3, #157
 1433 0a76 1846     		mov	r0, r3
 1434 0a78 FFF7FEFF 		bl	radiotimer_schedule
 668:openstack/02a-MAClow/IEEE802154Ecsl.c **** 
 669:openstack/02a-MAClow/IEEE802154Ecsl.c ****    // give the 'go' to transmit
 670:openstack/02a-MAClow/IEEE802154Ecsl.c ****    radio_txNow();
 1435              		.loc 1 670 0
 1436 0a7c FFF7FEFF 		bl	radio_txNow
 671:openstack/02a-MAClow/IEEE802154Ecsl.c **** }
 1437              		.loc 1 671 0
 1438 0a80 80BD     		pop	{r7, pc}
 1439              		.cfi_endproc
 1440              	.LFE10:
 1442 0a82 00BF     		.align	2
 1443              		.global	activity_csl_wakeup_tie2
 1444              		.thumb
 1445              		.thumb_func
 1447              	activity_csl_wakeup_tie2:
 1448              	.LFB11:
 672:openstack/02a-MAClow/IEEE802154Ecsl.c **** 
 673:openstack/02a-MAClow/IEEE802154Ecsl.c **** /**
 674:openstack/02a-MAClow/IEEE802154Ecsl.c ****  \brief Activity for CSL TX stage [wakeup tie2].
 675:openstack/02a-MAClow/IEEE802154Ecsl.c **** 
 676:openstack/02a-MAClow/IEEE802154Ecsl.c ****   This is triggered by #tt3 expiring, i.e. timer fires while state = S_CSLTXWAKEUPDELAY. If no pack
 677:openstack/02a-MAClow/IEEE802154Ecsl.c **** */
 678:openstack/02a-MAClow/IEEE802154Ecsl.c **** port_INLINE void activity_csl_wakeup_tie2() {
 1449              		.loc 1 678 0
 1450              		.cfi_startproc
 1451              		@ args = 0, pretend = 0, frame = 0
 1452              		@ frame_needed = 1, uses_anonymous_args = 0
 1453 0a84 80B5     		push	{r7, lr}
 1454              	.LCFI27:
 1455              		.cfi_def_cfa_offset 8
 1456              		.cfi_offset 7, -8
 1457              		.cfi_offset 14, -4
 1458 0a86 00AF     		add	r7, sp, #0
 1459              	.LCFI28:
 1460              		.cfi_def_cfa_register 7
 679:openstack/02a-MAClow/IEEE802154Ecsl.c ****    // log the error
 680:openstack/02a-MAClow/IEEE802154Ecsl.c ****    openserial_printError(COMPONENT_IEEE802154E,ERR_WDRADIO_OVERFLOWS,
 681:openstack/02a-MAClow/IEEE802154Ecsl.c ****                          (errorparameter_t)ieee154e_vars.state, (errorparameter_t)ieee154e_vars.slo
 1461              		.loc 1 681 0
 1462 0a88 40F20003 		movw	r3, #:lower16:ieee154e_vars
 1463 0a8c C0F20003 		movt	r3, #:upper16:ieee154e_vars
 1464 0a90 5B7C     		ldrb	r3, [r3, #17]	@ zero_extendqisi2
 680:openstack/02a-MAClow/IEEE802154Ecsl.c ****    openserial_printError(COMPONENT_IEEE802154E,ERR_WDRADIO_OVERFLOWS,
 1465              		.loc 1 680 0
 1466 0a92 1A46     		mov	r2, r3
 1467 0a94 40F20003 		movw	r3, #:lower16:ieee154e_vars
 1468 0a98 C0F20003 		movt	r3, #:upper16:ieee154e_vars
 1469 0a9c DB88     		ldrh	r3, [r3, #6]
 1470 0a9e 4FF00900 		mov	r0, #9
 1471 0aa2 4FF02701 		mov	r1, #39
 1472 0aa6 FFF7FEFF 		bl	openserial_printError
 682:openstack/02a-MAClow/IEEE802154Ecsl.c ****    // abort
 683:openstack/02a-MAClow/IEEE802154Ecsl.c ****    endOps();
 1473              		.loc 1 683 0
 1474 0aaa FFF7FEFF 		bl	endOps
 684:openstack/02a-MAClow/IEEE802154Ecsl.c **** }
 1475              		.loc 1 684 0
 1476 0aae 80BD     		pop	{r7, pc}
 1477              		.cfi_endproc
 1478              	.LFE11:
 1480              		.align	2
 1481              		.global	activity_csl_wakeup_ti4
 1482              		.thumb
 1483              		.thumb_func
 1485              	activity_csl_wakeup_ti4:
 1486              	.LFB12:
 685:openstack/02a-MAClow/IEEE802154Ecsl.c **** 
 686:openstack/02a-MAClow/IEEE802154Ecsl.c **** /**
 687:openstack/02a-MAClow/IEEE802154Ecsl.c ****  \brief Activity for CSL TX stage [wake-up ti4].
 688:openstack/02a-MAClow/IEEE802154Ecsl.c **** 
 689:openstack/02a-MAClow/IEEE802154Ecsl.c ****   This method is invoked from ISR-mode "ieee154ecsl_startOfFrame" function when a start of frame ev
 690:openstack/02a-MAClow/IEEE802154Ecsl.c ****   The functionality is to capture the time, cancel #tt3 and arm #tt4 (max time to send all the pack
 691:openstack/02a-MAClow/IEEE802154Ecsl.c **** */
 692:openstack/02a-MAClow/IEEE802154Ecsl.c **** port_INLINE void activity_csl_wakeup_ti4(PORT_RADIOTIMER_WIDTH capturedTime) {
 1487              		.loc 1 692 0
 1488              		.cfi_startproc
 1489              		@ args = 0, pretend = 0, frame = 8
 1490              		@ frame_needed = 1, uses_anonymous_args = 0
 1491 0ab0 80B5     		push	{r7, lr}
 1492              	.LCFI29:
 1493              		.cfi_def_cfa_offset 8
 1494              		.cfi_offset 7, -8
 1495              		.cfi_offset 14, -4
 1496 0ab2 82B0     		sub	sp, sp, #8
 1497              	.LCFI30:
 1498              		.cfi_def_cfa_offset 16
 1499 0ab4 00AF     		add	r7, sp, #0
 1500              	.LCFI31:
 1501              		.cfi_def_cfa_register 7
 1502 0ab6 7860     		str	r0, [r7, #4]
 693:openstack/02a-MAClow/IEEE802154Ecsl.c **** 
 694:openstack/02a-MAClow/IEEE802154Ecsl.c ****    // cancel tt3
 695:openstack/02a-MAClow/IEEE802154Ecsl.c ****    radiotimer_cancel();
 1503              		.loc 1 695 0
 1504 0ab8 FFF7FEFF 		bl	radiotimer_cancel
 696:openstack/02a-MAClow/IEEE802154Ecsl.c **** 
 697:openstack/02a-MAClow/IEEE802154Ecsl.c ****    // record the captured time
 698:openstack/02a-MAClow/IEEE802154Ecsl.c ****    ieee154e_vars.lastCapturedTime = capturedTime;
 1505              		.loc 1 698 0
 1506 0abc 40F20003 		movw	r3, #:lower16:ieee154e_vars
 1507 0ac0 C0F20003 		movt	r3, #:upper16:ieee154e_vars
 1508 0ac4 7A68     		ldr	r2, [r7, #4]
 1509 0ac6 5A62     		str	r2, [r3, #36]
 699:openstack/02a-MAClow/IEEE802154Ecsl.c **** 
 700:openstack/02a-MAClow/IEEE802154Ecsl.c ****    // change state
 701:openstack/02a-MAClow/IEEE802154Ecsl.c ****    changeState(S_CSLTXWAKEUP);
 1510              		.loc 1 701 0
 1511 0ac8 4FF01E00 		mov	r0, #30
 1512 0acc FFF7FEFF 		bl	changeState
 702:openstack/02a-MAClow/IEEE802154Ecsl.c **** 
 703:openstack/02a-MAClow/IEEE802154Ecsl.c ****    // arm tt4
 704:openstack/02a-MAClow/IEEE802154Ecsl.c ****    radiotimer_schedule(DURATION_tt4);
 1513              		.loc 1 704 0
 1514 0ad0 40F20003 		movw	r3, #:lower16:ieee154e_vars
 1515 0ad4 C0F20003 		movt	r3, #:upper16:ieee154e_vars
 1516 0ad8 5B6A     		ldr	r3, [r3, #36]
 1517 0ada 03F1A403 		add	r3, r3, #164
 1518 0ade 1846     		mov	r0, r3
 1519 0ae0 FFF7FEFF 		bl	radiotimer_schedule
 705:openstack/02a-MAClow/IEEE802154Ecsl.c **** }
 1520              		.loc 1 705 0
 1521 0ae4 07F10807 		add	r7, r7, #8
 1522 0ae8 BD46     		mov	sp, r7
 1523 0aea 80BD     		pop	{r7, pc}
 1524              		.cfi_endproc
 1525              	.LFE12:
 1527              		.align	2
 1528              		.global	activity_csl_wakeup_tie3
 1529              		.thumb
 1530              		.thumb_func
 1532              	activity_csl_wakeup_tie3:
 1533              	.LFB13:
 706:openstack/02a-MAClow/IEEE802154Ecsl.c **** 
 707:openstack/02a-MAClow/IEEE802154Ecsl.c **** /**
 708:openstack/02a-MAClow/IEEE802154Ecsl.c ****  \brief Activity for CSL TX stage [wake-up tie3].
 709:openstack/02a-MAClow/IEEE802154Ecsl.c **** 
 710:openstack/02a-MAClow/IEEE802154Ecsl.c ****   This is triggered by #tt4 expiring, i.e. timer fires while state = S_CSLTXWAKEUP. This is an erro
 711:openstack/02a-MAClow/IEEE802154Ecsl.c ****   took too long to transmit the data packet. The implemented behaviour is to log the error and fini
 712:openstack/02a-MAClow/IEEE802154Ecsl.c **** */
 713:openstack/02a-MAClow/IEEE802154Ecsl.c **** port_INLINE void activity_csl_wakeup_tie3() {
 1534              		.loc 1 713 0
 1535              		.cfi_startproc
 1536              		@ args = 0, pretend = 0, frame = 0
 1537              		@ frame_needed = 1, uses_anonymous_args = 0
 1538 0aec 80B5     		push	{r7, lr}
 1539              	.LCFI32:
 1540              		.cfi_def_cfa_offset 8
 1541              		.cfi_offset 7, -8
 1542              		.cfi_offset 14, -4
 1543 0aee 00AF     		add	r7, sp, #0
 1544              	.LCFI33:
 1545              		.cfi_def_cfa_register 7
 714:openstack/02a-MAClow/IEEE802154Ecsl.c ****    // log the error
 715:openstack/02a-MAClow/IEEE802154Ecsl.c ****    openserial_printError(COMPONENT_IEEE802154E,ERR_WDDATADURATION_OVERFLOWS,
 716:openstack/02a-MAClow/IEEE802154Ecsl.c ****                          (errorparameter_t)ieee154e_vars.state, (errorparameter_t)ieee154e_vars.slo
 1546              		.loc 1 716 0
 1547 0af0 40F20003 		movw	r3, #:lower16:ieee154e_vars
 1548 0af4 C0F20003 		movt	r3, #:upper16:ieee154e_vars
 1549 0af8 5B7C     		ldrb	r3, [r3, #17]	@ zero_extendqisi2
 715:openstack/02a-MAClow/IEEE802154Ecsl.c ****    openserial_printError(COMPONENT_IEEE802154E,ERR_WDDATADURATION_OVERFLOWS,
 1550              		.loc 1 715 0
 1551 0afa 1A46     		mov	r2, r3
 1552 0afc 40F20003 		movw	r3, #:lower16:ieee154e_vars
 1553 0b00 C0F20003 		movt	r3, #:upper16:ieee154e_vars
 1554 0b04 DB88     		ldrh	r3, [r3, #6]
 1555 0b06 4FF00900 		mov	r0, #9
 1556 0b0a 4FF02601 		mov	r1, #38
 1557 0b0e FFF7FEFF 		bl	openserial_printError
 717:openstack/02a-MAClow/IEEE802154Ecsl.c ****    // abort
 718:openstack/02a-MAClow/IEEE802154Ecsl.c ****    endOps();
 1558              		.loc 1 718 0
 1559 0b12 FFF7FEFF 		bl	endOps
 719:openstack/02a-MAClow/IEEE802154Ecsl.c **** }
 1560              		.loc 1 719 0
 1561 0b16 80BD     		pop	{r7, pc}
 1562              		.cfi_endproc
 1563              	.LFE13:
 1565              		.align	2
 1566              		.global	activity_csl_wakeup_ti5
 1567              		.thumb
 1568              		.thumb_func
 1570              	activity_csl_wakeup_ti5:
 1571              	.LFB14:
 720:openstack/02a-MAClow/IEEE802154Ecsl.c **** 
 721:openstack/02a-MAClow/IEEE802154Ecsl.c **** 
 722:openstack/02a-MAClow/IEEE802154Ecsl.c **** /**
 723:openstack/02a-MAClow/IEEE802154Ecsl.c ****  \brief Activity for CSL RX Sampling stage [wake-up ri5].
 724:openstack/02a-MAClow/IEEE802154Ecsl.c **** 
 725:openstack/02a-MAClow/IEEE802154Ecsl.c ****   This method is invoked from ISR-mode "ieee154ecsl_endOfFrame" function when a end of frame event 
 726:openstack/02a-MAClow/IEEE802154Ecsl.c ****   The functionality is to change state, cancel #rt4, and start sending data frame and wait for ACK.
 727:openstack/02a-MAClow/IEEE802154Ecsl.c **** */
 728:openstack/02a-MAClow/IEEE802154Ecsl.c **** port_INLINE void activity_csl_wakeup_ti5(PORT_RADIOTIMER_WIDTH capturedTime) {
 1572              		.loc 1 728 0
 1573              		.cfi_startproc
 1574              		@ args = 0, pretend = 0, frame = 8
 1575              		@ frame_needed = 1, uses_anonymous_args = 0
 1576 0b18 80B5     		push	{r7, lr}
 1577              	.LCFI34:
 1578              		.cfi_def_cfa_offset 8
 1579              		.cfi_offset 7, -8
 1580              		.cfi_offset 14, -4
 1581 0b1a 82B0     		sub	sp, sp, #8
 1582              	.LCFI35:
 1583              		.cfi_def_cfa_offset 16
 1584 0b1c 00AF     		add	r7, sp, #0
 1585              	.LCFI36:
 1586              		.cfi_def_cfa_register 7
 1587 0b1e 7860     		str	r0, [r7, #4]
 729:openstack/02a-MAClow/IEEE802154Ecsl.c **** 
 730:openstack/02a-MAClow/IEEE802154Ecsl.c **** 	// record the captured time
 731:openstack/02a-MAClow/IEEE802154Ecsl.c **** 	ieee154e_vars.lastCapturedTime = capturedTime;
 1588              		.loc 1 731 0
 1589 0b20 40F20003 		movw	r3, #:lower16:ieee154e_vars
 1590 0b24 C0F20003 		movt	r3, #:upper16:ieee154e_vars
 1591 0b28 7A68     		ldr	r2, [r7, #4]
 1592 0b2a 5A62     		str	r2, [r3, #36]
 732:openstack/02a-MAClow/IEEE802154Ecsl.c **** 
 733:openstack/02a-MAClow/IEEE802154Ecsl.c **** 	// Mientras el tiempo capturado en el envío de la ultima trama wake-up de la trama wake-up sequen
 734:openstack/02a-MAClow/IEEE802154Ecsl.c **** 	// sea inferior al tiempo de la duración del rztime inicial, debemos seguir enviando tramas wake-
 735:openstack/02a-MAClow/IEEE802154Ecsl.c **** 	// En caso contrario, enviamos la trama de datos.
 736:openstack/02a-MAClow/IEEE802154Ecsl.c **** 
 737:openstack/02a-MAClow/IEEE802154Ecsl.c **** 	//if((macCSLMaxPeriod - ieee154e_vars.lastCapturedTime) < ieee154e_vars.remainingRzTime) {
 738:openstack/02a-MAClow/IEEE802154Ecsl.c **** 	//	changeState(S_CSLTXWAKEUPOFFSET);
 739:openstack/02a-MAClow/IEEE802154Ecsl.c **** 	//}
 740:openstack/02a-MAClow/IEEE802154Ecsl.c **** 	//else {
 741:openstack/02a-MAClow/IEEE802154Ecsl.c ****     //   changeState(S_CSLTXDATAOFFSET);
 742:openstack/02a-MAClow/IEEE802154Ecsl.c ****     //}
 743:openstack/02a-MAClow/IEEE802154Ecsl.c **** 
 744:openstack/02a-MAClow/IEEE802154Ecsl.c **** 	changeState(S_CSLTXWAKEUPOFFSET);
 1593              		.loc 1 744 0
 1594 0b2c 4FF01A00 		mov	r0, #26
 1595 0b30 FFF7FEFF 		bl	changeState
 745:openstack/02a-MAClow/IEEE802154Ecsl.c **** 
 746:openstack/02a-MAClow/IEEE802154Ecsl.c ****     // arm tt1 (enviemos de nuevo una trama de wake-up o de datos, el tiempo será tt1).
 747:openstack/02a-MAClow/IEEE802154Ecsl.c ****     radiotimer_schedule(DURATION_tt1);
 1596              		.loc 1 747 0
 1597 0b34 40F20003 		movw	r3, #:lower16:ieee154e_vars
 1598 0b38 C0F20003 		movt	r3, #:upper16:ieee154e_vars
 1599 0b3c 5B6A     		ldr	r3, [r3, #36]
 1600 0b3e 03F13A03 		add	r3, r3, #58
 1601 0b42 1846     		mov	r0, r3
 1602 0b44 FFF7FEFF 		bl	radiotimer_schedule
 748:openstack/02a-MAClow/IEEE802154Ecsl.c **** }
 1603              		.loc 1 748 0
 1604 0b48 07F10807 		add	r7, r7, #8
 1605 0b4c BD46     		mov	sp, r7
 1606 0b4e 80BD     		pop	{r7, pc}
 1607              		.cfi_endproc
 1608              	.LFE14:
 1610              		.align	2
 1611              		.global	activity_csl_data_ti1
 1612              		.thumb
 1613              		.thumb_func
 1615              	activity_csl_data_ti1:
 1616              	.LFB15:
 749:openstack/02a-MAClow/IEEE802154Ecsl.c **** 
 750:openstack/02a-MAClow/IEEE802154Ecsl.c **** /**
 751:openstack/02a-MAClow/IEEE802154Ecsl.c ****  \brief Activity for CSL TX stage [data ti1].
 752:openstack/02a-MAClow/IEEE802154Ecsl.c **** 
 753:openstack/02a-MAClow/IEEE802154Ecsl.c ****   This method is invoked from ISR-mode "isr_ieee154ecsl_timer" function when FSM timer fires after 
 754:openstack/02a-MAClow/IEEE802154Ecsl.c ****   The functionality is to prepare the data to be sent.
 755:openstack/02a-MAClow/IEEE802154Ecsl.c **** */
 756:openstack/02a-MAClow/IEEE802154Ecsl.c **** 
 757:openstack/02a-MAClow/IEEE802154Ecsl.c **** port_INLINE void activity_csl_data_ti1() {
 1617              		.loc 1 757 0
 1618              		.cfi_startproc
 1619              		@ args = 0, pretend = 0, frame = 0
 1620              		@ frame_needed = 1, uses_anonymous_args = 0
 1621 0b50 80B5     		push	{r7, lr}
 1622              	.LCFI37:
 1623              		.cfi_def_cfa_offset 8
 1624              		.cfi_offset 7, -8
 1625              		.cfi_offset 14, -4
 1626 0b52 00AF     		add	r7, sp, #0
 1627              	.LCFI38:
 1628              		.cfi_def_cfa_register 7
 758:openstack/02a-MAClow/IEEE802154Ecsl.c **** 
 759:openstack/02a-MAClow/IEEE802154Ecsl.c **** 	// change state
 760:openstack/02a-MAClow/IEEE802154Ecsl.c **** 	changeState(S_CSLTXDATAOFFSET);
 1629              		.loc 1 760 0
 1630 0b54 4FF02000 		mov	r0, #32
 1631 0b58 FFF7FEFF 		bl	changeState
 761:openstack/02a-MAClow/IEEE802154Ecsl.c **** 
 762:openstack/02a-MAClow/IEEE802154Ecsl.c ****     // arm tt1 (enviemos de nuevo una trama de wake-up o de datos, el tiempo será tt1).
 763:openstack/02a-MAClow/IEEE802154Ecsl.c ****     radiotimer_schedule(DURATION_tt1);
 1632              		.loc 1 763 0
 1633 0b5c 40F20003 		movw	r3, #:lower16:ieee154e_vars
 1634 0b60 C0F20003 		movt	r3, #:upper16:ieee154e_vars
 1635 0b64 5B6A     		ldr	r3, [r3, #36]
 1636 0b66 03F13A03 		add	r3, r3, #58
 1637 0b6a 1846     		mov	r0, r3
 1638 0b6c FFF7FEFF 		bl	radiotimer_schedule
 764:openstack/02a-MAClow/IEEE802154Ecsl.c **** }
 1639              		.loc 1 764 0
 1640 0b70 80BD     		pop	{r7, pc}
 1641              		.cfi_endproc
 1642              	.LFE15:
 1644 0b72 00BF     		.align	2
 1645              		.global	activity_csl_data_ti2
 1646              		.thumb
 1647              		.thumb_func
 1649              	activity_csl_data_ti2:
 1650              	.LFB16:
 765:openstack/02a-MAClow/IEEE802154Ecsl.c **** 
 766:openstack/02a-MAClow/IEEE802154Ecsl.c **** 
 767:openstack/02a-MAClow/IEEE802154Ecsl.c **** 
 768:openstack/02a-MAClow/IEEE802154Ecsl.c **** /**
 769:openstack/02a-MAClow/IEEE802154Ecsl.c ****  \brief Activity for CSL TX stage [data ti2].
 770:openstack/02a-MAClow/IEEE802154Ecsl.c **** 
 771:openstack/02a-MAClow/IEEE802154Ecsl.c ****   This method is invoked from ISR-mode "isr_ieee154ecsl_timer" function when FSM timer fires (expir
 772:openstack/02a-MAClow/IEEE802154Ecsl.c ****   The functionality is to prepare the radio for sending packets.
 773:openstack/02a-MAClow/IEEE802154Ecsl.c **** */
 774:openstack/02a-MAClow/IEEE802154Ecsl.c **** port_INLINE void activity_csl_data_ti2() {
 1651              		.loc 1 774 0
 1652              		.cfi_startproc
 1653              		@ args = 0, pretend = 0, frame = 0
 1654              		@ frame_needed = 1, uses_anonymous_args = 0
 1655 0b74 80B5     		push	{r7, lr}
 1656              	.LCFI39:
 1657              		.cfi_def_cfa_offset 8
 1658              		.cfi_offset 7, -8
 1659              		.cfi_offset 14, -4
 1660 0b76 00AF     		add	r7, sp, #0
 1661              	.LCFI40:
 1662              		.cfi_def_cfa_register 7
 775:openstack/02a-MAClow/IEEE802154Ecsl.c ****    // change state
 776:openstack/02a-MAClow/IEEE802154Ecsl.c ****    changeState(S_CSLTXDATAPREPARE);
 1663              		.loc 1 776 0
 1664 0b78 4FF02100 		mov	r0, #33
 1665 0b7c FFF7FEFF 		bl	changeState
 777:openstack/02a-MAClow/IEEE802154Ecsl.c **** 
 778:openstack/02a-MAClow/IEEE802154Ecsl.c ****    // load the packet in the radio's Tx buffer
 779:openstack/02a-MAClow/IEEE802154Ecsl.c ****    radio_loadPacket(ieee154e_vars.dataToSend->payload,
 1666              		.loc 1 779 0
 1667 0b80 40F20003 		movw	r3, #:lower16:ieee154e_vars
 1668 0b84 C0F20003 		movt	r3, #:upper16:ieee154e_vars
 1669 0b88 5B69     		ldr	r3, [r3, #20]
 1670 0b8a 5A68     		ldr	r2, [r3, #4]
 780:openstack/02a-MAClow/IEEE802154Ecsl.c ****                     ieee154e_vars.dataToSend->length);
 1671              		.loc 1 780 0
 1672 0b8c 40F20003 		movw	r3, #:lower16:ieee154e_vars
 1673 0b90 C0F20003 		movt	r3, #:upper16:ieee154e_vars
 1674 0b94 5B69     		ldr	r3, [r3, #20]
 779:openstack/02a-MAClow/IEEE802154Ecsl.c ****    radio_loadPacket(ieee154e_vars.dataToSend->payload,
 1675              		.loc 1 779 0
 1676 0b96 1B7A     		ldrb	r3, [r3, #8]	@ zero_extendqisi2
 1677 0b98 1046     		mov	r0, r2
 1678 0b9a 1946     		mov	r1, r3
 1679 0b9c FFF7FEFF 		bl	radio_loadPacket
 781:openstack/02a-MAClow/IEEE802154Ecsl.c **** 
 782:openstack/02a-MAClow/IEEE802154Ecsl.c ****    // enable the radio in Tx mode. This does not send the packet.
 783:openstack/02a-MAClow/IEEE802154Ecsl.c ****    radio_txEnable();
 1680              		.loc 1 783 0
 1681 0ba0 FFF7FEFF 		bl	radio_txEnable
 784:openstack/02a-MAClow/IEEE802154Ecsl.c ****    ieee154e_vars.radioOnInit=radio_getTimerValue();
 1682              		.loc 1 784 0
 1683 0ba4 FFF7FEFF 		bl	radio_getTimerValue
 1684 0ba8 0246     		mov	r2, r0
 1685 0baa 40F20003 		movw	r3, #:lower16:ieee154e_vars
 1686 0bae C0F20003 		movt	r3, #:upper16:ieee154e_vars
 1687 0bb2 1A63     		str	r2, [r3, #48]
 785:openstack/02a-MAClow/IEEE802154Ecsl.c ****    ieee154e_vars.radioOnThisSlot=TRUE;
 1688              		.loc 1 785 0
 1689 0bb4 40F20003 		movw	r3, #:lower16:ieee154e_vars
 1690 0bb8 C0F20003 		movt	r3, #:upper16:ieee154e_vars
 1691 0bbc 4FF00102 		mov	r2, #1
 1692 0bc0 83F83820 		strb	r2, [r3, #56]
 786:openstack/02a-MAClow/IEEE802154Ecsl.c **** 
 787:openstack/02a-MAClow/IEEE802154Ecsl.c ****    // arm tt2
 788:openstack/02a-MAClow/IEEE802154Ecsl.c ****    radiotimer_schedule(DURATION_tt2);
 1693              		.loc 1 788 0
 1694 0bc4 40F20003 		movw	r3, #:lower16:ieee154e_vars
 1695 0bc8 C0F20003 		movt	r3, #:upper16:ieee154e_vars
 1696 0bcc 5B6A     		ldr	r3, [r3, #36]
 1697 0bce 03F17C03 		add	r3, r3, #124
 1698 0bd2 1846     		mov	r0, r3
 1699 0bd4 FFF7FEFF 		bl	radiotimer_schedule
 789:openstack/02a-MAClow/IEEE802154Ecsl.c **** 
 790:openstack/02a-MAClow/IEEE802154Ecsl.c ****    // change state
 791:openstack/02a-MAClow/IEEE802154Ecsl.c ****    changeState(S_CSLTXDATAREADY);
 1700              		.loc 1 791 0
 1701 0bd8 4FF02200 		mov	r0, #34
 1702 0bdc FFF7FEFF 		bl	changeState
 792:openstack/02a-MAClow/IEEE802154Ecsl.c **** 
 793:openstack/02a-MAClow/IEEE802154Ecsl.c **** }
 1703              		.loc 1 793 0
 1704 0be0 80BD     		pop	{r7, pc}
 1705              		.cfi_endproc
 1706              	.LFE16:
 1708 0be2 00BF     		.align	2
 1709              		.global	activity_csl_data_tie1
 1710              		.thumb
 1711              		.thumb_func
 1713              	activity_csl_data_tie1:
 1714              	.LFB17:
 794:openstack/02a-MAClow/IEEE802154Ecsl.c **** 
 795:openstack/02a-MAClow/IEEE802154Ecsl.c **** /**
 796:openstack/02a-MAClow/IEEE802154Ecsl.c ****  \brief Activity for CSL TX stage [data tie1].
 797:openstack/02a-MAClow/IEEE802154Ecsl.c **** 
 798:openstack/02a-MAClow/IEEE802154Ecsl.c ****   This is triggered by #tt2 expiring, i.e. timer fires while state = S_CSLTXDATAPREPARE. This is re
 799:openstack/02a-MAClow/IEEE802154Ecsl.c ****   did not have enough time to execute. Chances are to set maxTxDataPrepare too small. The implement
 800:openstack/02a-MAClow/IEEE802154Ecsl.c **** */
 801:openstack/02a-MAClow/IEEE802154Ecsl.c **** port_INLINE void activity_csl_data_tie1() {
 1715              		.loc 1 801 0
 1716              		.cfi_startproc
 1717              		@ args = 0, pretend = 0, frame = 0
 1718              		@ frame_needed = 1, uses_anonymous_args = 0
 1719 0be4 80B5     		push	{r7, lr}
 1720              	.LCFI41:
 1721              		.cfi_def_cfa_offset 8
 1722              		.cfi_offset 7, -8
 1723              		.cfi_offset 14, -4
 1724 0be6 00AF     		add	r7, sp, #0
 1725              	.LCFI42:
 1726              		.cfi_def_cfa_register 7
 802:openstack/02a-MAClow/IEEE802154Ecsl.c ****    // log the error
 803:openstack/02a-MAClow/IEEE802154Ecsl.c ****    openserial_printError(COMPONENT_IEEE802154E,ERR_MAXTXDATAPREPARE_OVERFLOW,
 804:openstack/02a-MAClow/IEEE802154Ecsl.c ****                          (errorparameter_t)ieee154e_vars.state, (errorparameter_t)ieee154e_vars.slo
 1727              		.loc 1 804 0
 1728 0be8 40F20003 		movw	r3, #:lower16:ieee154e_vars
 1729 0bec C0F20003 		movt	r3, #:upper16:ieee154e_vars
 1730 0bf0 5B7C     		ldrb	r3, [r3, #17]	@ zero_extendqisi2
 803:openstack/02a-MAClow/IEEE802154Ecsl.c ****    openserial_printError(COMPONENT_IEEE802154E,ERR_MAXTXDATAPREPARE_OVERFLOW,
 1731              		.loc 1 803 0
 1732 0bf2 1A46     		mov	r2, r3
 1733 0bf4 40F20003 		movw	r3, #:lower16:ieee154e_vars
 1734 0bf8 C0F20003 		movt	r3, #:upper16:ieee154e_vars
 1735 0bfc DB88     		ldrh	r3, [r3, #6]
 1736 0bfe 4FF00900 		mov	r0, #9
 1737 0c02 4FF02201 		mov	r1, #34
 1738 0c06 FFF7FEFF 		bl	openserial_printError
 805:openstack/02a-MAClow/IEEE802154Ecsl.c ****    // abort
 806:openstack/02a-MAClow/IEEE802154Ecsl.c ****    endOps();
 1739              		.loc 1 806 0
 1740 0c0a FFF7FEFF 		bl	endOps
 807:openstack/02a-MAClow/IEEE802154Ecsl.c **** }
 1741              		.loc 1 807 0
 1742 0c0e 80BD     		pop	{r7, pc}
 1743              		.cfi_endproc
 1744              	.LFE17:
 1746              		.align	2
 1747              		.global	activity_csl_data_ti3
 1748              		.thumb
 1749              		.thumb_func
 1751              	activity_csl_data_ti3:
 1752              	.LFB18:
 808:openstack/02a-MAClow/IEEE802154Ecsl.c **** 
 809:openstack/02a-MAClow/IEEE802154Ecsl.c **** /**
 810:openstack/02a-MAClow/IEEE802154Ecsl.c ****  \brief Activity for CSL TX stage [data ti3].
 811:openstack/02a-MAClow/IEEE802154Ecsl.c **** 
 812:openstack/02a-MAClow/IEEE802154Ecsl.c ****   This method is invoked from ISR-mode "isr_ieee154ecsl_timer" function when FSM timer fires (expir
 813:openstack/02a-MAClow/IEEE802154Ecsl.c ****   The radio is configured and this interrupt gives it the "go" signal to start listening.
 814:openstack/02a-MAClow/IEEE802154Ecsl.c **** */
 815:openstack/02a-MAClow/IEEE802154Ecsl.c **** port_INLINE void activity_csl_data_ti3() {
 1753              		.loc 1 815 0
 1754              		.cfi_startproc
 1755              		@ args = 0, pretend = 0, frame = 0
 1756              		@ frame_needed = 1, uses_anonymous_args = 0
 1757 0c10 80B5     		push	{r7, lr}
 1758              	.LCFI43:
 1759              		.cfi_def_cfa_offset 8
 1760              		.cfi_offset 7, -8
 1761              		.cfi_offset 14, -4
 1762 0c12 00AF     		add	r7, sp, #0
 1763              	.LCFI44:
 1764              		.cfi_def_cfa_register 7
 816:openstack/02a-MAClow/IEEE802154Ecsl.c ****    // change state
 817:openstack/02a-MAClow/IEEE802154Ecsl.c ****    changeState(S_CSLTXDATADELAY);
 1765              		.loc 1 817 0
 1766 0c14 4FF02300 		mov	r0, #35
 1767 0c18 FFF7FEFF 		bl	changeState
 818:openstack/02a-MAClow/IEEE802154Ecsl.c **** 
 819:openstack/02a-MAClow/IEEE802154Ecsl.c ****    // arm tt3
 820:openstack/02a-MAClow/IEEE802154Ecsl.c ****    radiotimer_schedule(DURATION_tt3);
 1768              		.loc 1 820 0
 1769 0c1c 40F20003 		movw	r3, #:lower16:ieee154e_vars
 1770 0c20 C0F20003 		movt	r3, #:upper16:ieee154e_vars
 1771 0c24 5B6A     		ldr	r3, [r3, #36]
 1772 0c26 03F19D03 		add	r3, r3, #157
 1773 0c2a 1846     		mov	r0, r3
 1774 0c2c FFF7FEFF 		bl	radiotimer_schedule
 821:openstack/02a-MAClow/IEEE802154Ecsl.c **** 
 822:openstack/02a-MAClow/IEEE802154Ecsl.c ****    // give the 'go' to transmit
 823:openstack/02a-MAClow/IEEE802154Ecsl.c ****    radio_txNow();
 1775              		.loc 1 823 0
 1776 0c30 FFF7FEFF 		bl	radio_txNow
 824:openstack/02a-MAClow/IEEE802154Ecsl.c **** }
 1777              		.loc 1 824 0
 1778 0c34 80BD     		pop	{r7, pc}
 1779              		.cfi_endproc
 1780              	.LFE18:
 1782 0c36 00BF     		.align	2
 1783              		.global	activity_csl_data_tie2
 1784              		.thumb
 1785              		.thumb_func
 1787              	activity_csl_data_tie2:
 1788              	.LFB19:
 825:openstack/02a-MAClow/IEEE802154Ecsl.c **** 
 826:openstack/02a-MAClow/IEEE802154Ecsl.c **** 
 827:openstack/02a-MAClow/IEEE802154Ecsl.c **** /**
 828:openstack/02a-MAClow/IEEE802154Ecsl.c ****  \brief Activity for CSL TX Sampling error [data tie2].
 829:openstack/02a-MAClow/IEEE802154Ecsl.c **** 
 830:openstack/02a-MAClow/IEEE802154Ecsl.c ****   This is triggered by #tt3 expiring, i.e. timer fires while state = S_CSLTXDATADELAY. If no packet
 831:openstack/02a-MAClow/IEEE802154Ecsl.c ****   none will be sent and it is safe to switch off the radio. This timer is set such that the radio w
 832:openstack/02a-MAClow/IEEE802154Ecsl.c ****   duration (#TsLongGT).
 833:openstack/02a-MAClow/IEEE802154Ecsl.c **** */
 834:openstack/02a-MAClow/IEEE802154Ecsl.c **** port_INLINE void activity_csl_data_tie2() {
 1789              		.loc 1 834 0
 1790              		.cfi_startproc
 1791              		@ args = 0, pretend = 0, frame = 0
 1792              		@ frame_needed = 1, uses_anonymous_args = 0
 1793 0c38 80B5     		push	{r7, lr}
 1794              	.LCFI45:
 1795              		.cfi_def_cfa_offset 8
 1796              		.cfi_offset 7, -8
 1797              		.cfi_offset 14, -4
 1798 0c3a 00AF     		add	r7, sp, #0
 1799              	.LCFI46:
 1800              		.cfi_def_cfa_register 7
 835:openstack/02a-MAClow/IEEE802154Ecsl.c ****    // log the error
 836:openstack/02a-MAClow/IEEE802154Ecsl.c ****    openserial_printError(COMPONENT_IEEE802154E,ERR_WDRADIO_OVERFLOWS,
 837:openstack/02a-MAClow/IEEE802154Ecsl.c ****                          (errorparameter_t)ieee154e_vars.state, (errorparameter_t)ieee154e_vars.slo
 1801              		.loc 1 837 0
 1802 0c3c 40F20003 		movw	r3, #:lower16:ieee154e_vars
 1803 0c40 C0F20003 		movt	r3, #:upper16:ieee154e_vars
 1804 0c44 5B7C     		ldrb	r3, [r3, #17]	@ zero_extendqisi2
 836:openstack/02a-MAClow/IEEE802154Ecsl.c ****    openserial_printError(COMPONENT_IEEE802154E,ERR_WDRADIO_OVERFLOWS,
 1805              		.loc 1 836 0
 1806 0c46 1A46     		mov	r2, r3
 1807 0c48 40F20003 		movw	r3, #:lower16:ieee154e_vars
 1808 0c4c C0F20003 		movt	r3, #:upper16:ieee154e_vars
 1809 0c50 DB88     		ldrh	r3, [r3, #6]
 1810 0c52 4FF00900 		mov	r0, #9
 1811 0c56 4FF02701 		mov	r1, #39
 1812 0c5a FFF7FEFF 		bl	openserial_printError
 838:openstack/02a-MAClow/IEEE802154Ecsl.c **** 
 839:openstack/02a-MAClow/IEEE802154Ecsl.c ****    // abort
 840:openstack/02a-MAClow/IEEE802154Ecsl.c ****    endOps();
 1813              		.loc 1 840 0
 1814 0c5e FFF7FEFF 		bl	endOps
 841:openstack/02a-MAClow/IEEE802154Ecsl.c **** }
 1815              		.loc 1 841 0
 1816 0c62 80BD     		pop	{r7, pc}
 1817              		.cfi_endproc
 1818              	.LFE19:
 1820              		.align	2
 1821              		.global	activity_csl_data_ti4
 1822              		.thumb
 1823              		.thumb_func
 1825              	activity_csl_data_ti4:
 1826              	.LFB20:
 842:openstack/02a-MAClow/IEEE802154Ecsl.c **** 
 843:openstack/02a-MAClow/IEEE802154Ecsl.c **** 
 844:openstack/02a-MAClow/IEEE802154Ecsl.c **** /**
 845:openstack/02a-MAClow/IEEE802154Ecsl.c ****  \brief Activity for CSL TX stage [data ti4].
 846:openstack/02a-MAClow/IEEE802154Ecsl.c **** 
 847:openstack/02a-MAClow/IEEE802154Ecsl.c ****   This method is invoked from ISR-mode "ieee154ecsl_startOfFrame" function when a start of frame ev
 848:openstack/02a-MAClow/IEEE802154Ecsl.c ****   The functionality is to change state, cancel #tt3 and arm #tt4 (max time to sent all the packet).
 849:openstack/02a-MAClow/IEEE802154Ecsl.c **** */
 850:openstack/02a-MAClow/IEEE802154Ecsl.c **** port_INLINE void activity_csl_data_ti4(PORT_RADIOTIMER_WIDTH capturedTime) {
 1827              		.loc 1 850 0
 1828              		.cfi_startproc
 1829              		@ args = 0, pretend = 0, frame = 8
 1830              		@ frame_needed = 1, uses_anonymous_args = 0
 1831 0c64 80B5     		push	{r7, lr}
 1832              	.LCFI47:
 1833              		.cfi_def_cfa_offset 8
 1834              		.cfi_offset 7, -8
 1835              		.cfi_offset 14, -4
 1836 0c66 82B0     		sub	sp, sp, #8
 1837              	.LCFI48:
 1838              		.cfi_def_cfa_offset 16
 1839 0c68 00AF     		add	r7, sp, #0
 1840              	.LCFI49:
 1841              		.cfi_def_cfa_register 7
 1842 0c6a 7860     		str	r0, [r7, #4]
 851:openstack/02a-MAClow/IEEE802154Ecsl.c ****    // change state
 852:openstack/02a-MAClow/IEEE802154Ecsl.c ****    changeState(S_CSLTXDATA);
 1843              		.loc 1 852 0
 1844 0c6c 4FF02400 		mov	r0, #36
 1845 0c70 FFF7FEFF 		bl	changeState
 853:openstack/02a-MAClow/IEEE802154Ecsl.c **** 
 854:openstack/02a-MAClow/IEEE802154Ecsl.c ****    // cancel tt3
 855:openstack/02a-MAClow/IEEE802154Ecsl.c ****    radiotimer_cancel();
 1846              		.loc 1 855 0
 1847 0c74 FFF7FEFF 		bl	radiotimer_cancel
 856:openstack/02a-MAClow/IEEE802154Ecsl.c **** 
 857:openstack/02a-MAClow/IEEE802154Ecsl.c ****    // record the captured time
 858:openstack/02a-MAClow/IEEE802154Ecsl.c ****    ieee154e_vars.lastCapturedTime = capturedTime;
 1848              		.loc 1 858 0
 1849 0c78 40F20003 		movw	r3, #:lower16:ieee154e_vars
 1850 0c7c C0F20003 		movt	r3, #:upper16:ieee154e_vars
 1851 0c80 7A68     		ldr	r2, [r7, #4]
 1852 0c82 5A62     		str	r2, [r3, #36]
 859:openstack/02a-MAClow/IEEE802154Ecsl.c **** 
 860:openstack/02a-MAClow/IEEE802154Ecsl.c ****    // arm tt4
 861:openstack/02a-MAClow/IEEE802154Ecsl.c ****    radiotimer_schedule(DURATION_tt4);
 1853              		.loc 1 861 0
 1854 0c84 40F20003 		movw	r3, #:lower16:ieee154e_vars
 1855 0c88 C0F20003 		movt	r3, #:upper16:ieee154e_vars
 1856 0c8c 5B6A     		ldr	r3, [r3, #36]
 1857 0c8e 03F1A403 		add	r3, r3, #164
 1858 0c92 1846     		mov	r0, r3
 1859 0c94 FFF7FEFF 		bl	radiotimer_schedule
 862:openstack/02a-MAClow/IEEE802154Ecsl.c **** }
 1860              		.loc 1 862 0
 1861 0c98 07F10807 		add	r7, r7, #8
 1862 0c9c BD46     		mov	sp, r7
 1863 0c9e 80BD     		pop	{r7, pc}
 1864              		.cfi_endproc
 1865              	.LFE20:
 1867              		.align	2
 1868              		.global	activity_csl_data_tie3
 1869              		.thumb
 1870              		.thumb_func
 1872              	activity_csl_data_tie3:
 1873              	.LFB21:
 863:openstack/02a-MAClow/IEEE802154Ecsl.c **** 
 864:openstack/02a-MAClow/IEEE802154Ecsl.c **** /**
 865:openstack/02a-MAClow/IEEE802154Ecsl.c ****  \brief Activity for CSL TX stage [data tie3].
 866:openstack/02a-MAClow/IEEE802154Ecsl.c **** 
 867:openstack/02a-MAClow/IEEE802154Ecsl.c ****   This is triggered by #tt4 expiring, i.e. timer fires while state = S_CSLTXDATA. This is an error 
 868:openstack/02a-MAClow/IEEE802154Ecsl.c ****   to transmit the data packet. The implemented behaviour is to log the error and finish.
 869:openstack/02a-MAClow/IEEE802154Ecsl.c **** */
 870:openstack/02a-MAClow/IEEE802154Ecsl.c **** port_INLINE void activity_csl_data_tie3() {
 1874              		.loc 1 870 0
 1875              		.cfi_startproc
 1876              		@ args = 0, pretend = 0, frame = 0
 1877              		@ frame_needed = 1, uses_anonymous_args = 0
 1878 0ca0 80B5     		push	{r7, lr}
 1879              	.LCFI50:
 1880              		.cfi_def_cfa_offset 8
 1881              		.cfi_offset 7, -8
 1882              		.cfi_offset 14, -4
 1883 0ca2 00AF     		add	r7, sp, #0
 1884              	.LCFI51:
 1885              		.cfi_def_cfa_register 7
 871:openstack/02a-MAClow/IEEE802154Ecsl.c ****    // log the error
 872:openstack/02a-MAClow/IEEE802154Ecsl.c ****    openserial_printError(COMPONENT_IEEE802154E,ERR_WDDATADURATION_OVERFLOWS,
 873:openstack/02a-MAClow/IEEE802154Ecsl.c ****                          (errorparameter_t)ieee154e_vars.state, (errorparameter_t)ieee154e_vars.slo
 1886              		.loc 1 873 0
 1887 0ca4 40F20003 		movw	r3, #:lower16:ieee154e_vars
 1888 0ca8 C0F20003 		movt	r3, #:upper16:ieee154e_vars
 1889 0cac 5B7C     		ldrb	r3, [r3, #17]	@ zero_extendqisi2
 872:openstack/02a-MAClow/IEEE802154Ecsl.c ****    openserial_printError(COMPONENT_IEEE802154E,ERR_WDDATADURATION_OVERFLOWS,
 1890              		.loc 1 872 0
 1891 0cae 1A46     		mov	r2, r3
 1892 0cb0 40F20003 		movw	r3, #:lower16:ieee154e_vars
 1893 0cb4 C0F20003 		movt	r3, #:upper16:ieee154e_vars
 1894 0cb8 DB88     		ldrh	r3, [r3, #6]
 1895 0cba 4FF00900 		mov	r0, #9
 1896 0cbe 4FF02601 		mov	r1, #38
 1897 0cc2 FFF7FEFF 		bl	openserial_printError
 874:openstack/02a-MAClow/IEEE802154Ecsl.c ****    // abort
 875:openstack/02a-MAClow/IEEE802154Ecsl.c ****    endOps();
 1898              		.loc 1 875 0
 1899 0cc6 FFF7FEFF 		bl	endOps
 876:openstack/02a-MAClow/IEEE802154Ecsl.c **** }
 1900              		.loc 1 876 0
 1901 0cca 80BD     		pop	{r7, pc}
 1902              		.cfi_endproc
 1903              	.LFE21:
 1905              		.align	2
 1906              		.global	activity_csl_data_ti5
 1907              		.thumb
 1908              		.thumb_func
 1910              	activity_csl_data_ti5:
 1911              	.LFB22:
 877:openstack/02a-MAClow/IEEE802154Ecsl.c **** 
 878:openstack/02a-MAClow/IEEE802154Ecsl.c **** /**
 879:openstack/02a-MAClow/IEEE802154Ecsl.c ****  \brief Activity for CSL TX stage [data ri5].
 880:openstack/02a-MAClow/IEEE802154Ecsl.c **** 
 881:openstack/02a-MAClow/IEEE802154Ecsl.c ****   This method is invoked from ISR-mode "ieee154ecsl_endOfFrame" function when a end of frame event 
 882:openstack/02a-MAClow/IEEE802154Ecsl.c ****   The functionality is to change state, cancel #tt4, and notify upper layer and schedule about succ
 883:openstack/02a-MAClow/IEEE802154Ecsl.c ****   start process for receive ACK frame (arm #tt5).
 884:openstack/02a-MAClow/IEEE802154Ecsl.c **** */
 885:openstack/02a-MAClow/IEEE802154Ecsl.c **** port_INLINE void activity_csl_data_ti5(PORT_RADIOTIMER_WIDTH capturedTime) {
 1912              		.loc 1 885 0
 1913              		.cfi_startproc
 1914              		@ args = 0, pretend = 0, frame = 16
 1915              		@ frame_needed = 1, uses_anonymous_args = 0
 1916 0ccc 90B5     		push	{r4, r7, lr}
 1917              	.LCFI52:
 1918              		.cfi_def_cfa_offset 12
 1919              		.cfi_offset 4, -12
 1920              		.cfi_offset 7, -8
 1921              		.cfi_offset 14, -4
 1922 0cce 85B0     		sub	sp, sp, #20
 1923              	.LCFI53:
 1924              		.cfi_def_cfa_offset 32
 1925 0cd0 00AF     		add	r7, sp, #0
 1926              	.LCFI54:
 1927              		.cfi_def_cfa_register 7
 1928 0cd2 7860     		str	r0, [r7, #4]
 886:openstack/02a-MAClow/IEEE802154Ecsl.c ****    bool listenForAck;
 887:openstack/02a-MAClow/IEEE802154Ecsl.c **** 
 888:openstack/02a-MAClow/IEEE802154Ecsl.c ****    // change state
 889:openstack/02a-MAClow/IEEE802154Ecsl.c ****    changeState(S_CSLRXACKOFFSET);
 1929              		.loc 1 889 0
 1930 0cd4 4FF02500 		mov	r0, #37
 1931 0cd8 FFF7FEFF 		bl	changeState
 890:openstack/02a-MAClow/IEEE802154Ecsl.c **** 
 891:openstack/02a-MAClow/IEEE802154Ecsl.c ****    // cancel tt4
 892:openstack/02a-MAClow/IEEE802154Ecsl.c ****    radiotimer_cancel();
 1932              		.loc 1 892 0
 1933 0cdc FFF7FEFF 		bl	radiotimer_cancel
 893:openstack/02a-MAClow/IEEE802154Ecsl.c **** 
 894:openstack/02a-MAClow/IEEE802154Ecsl.c ****    // turn off the radio
 895:openstack/02a-MAClow/IEEE802154Ecsl.c ****    radio_rfOff();
 1934              		.loc 1 895 0
 1935 0ce0 FFF7FEFF 		bl	radio_rfOff
 896:openstack/02a-MAClow/IEEE802154Ecsl.c ****    ieee154e_vars.radioOnTics+=(radio_getTimerValue()-ieee154e_vars.radioOnInit);
 1936              		.loc 1 896 0
 1937 0ce4 40F20003 		movw	r3, #:lower16:ieee154e_vars
 1938 0ce8 C0F20003 		movt	r3, #:upper16:ieee154e_vars
 1939 0cec 5C6B     		ldr	r4, [r3, #52]
 1940 0cee FFF7FEFF 		bl	radio_getTimerValue
 1941 0cf2 0246     		mov	r2, r0
 1942 0cf4 40F20003 		movw	r3, #:lower16:ieee154e_vars
 1943 0cf8 C0F20003 		movt	r3, #:upper16:ieee154e_vars
 1944 0cfc 1B6B     		ldr	r3, [r3, #48]
 1945 0cfe D31A     		subs	r3, r2, r3
 1946 0d00 E218     		adds	r2, r4, r3
 1947 0d02 40F20003 		movw	r3, #:lower16:ieee154e_vars
 1948 0d06 C0F20003 		movt	r3, #:upper16:ieee154e_vars
 1949 0d0a 5A63     		str	r2, [r3, #52]
 897:openstack/02a-MAClow/IEEE802154Ecsl.c **** 
 898:openstack/02a-MAClow/IEEE802154Ecsl.c ****    // record the captured time
 899:openstack/02a-MAClow/IEEE802154Ecsl.c ****    //ieee154e_vars.lastCapturedTime = capturedTime;
 900:openstack/02a-MAClow/IEEE802154Ecsl.c **** 
 901:openstack/02a-MAClow/IEEE802154Ecsl.c ****    // decides whether to listen for an ACK
 902:openstack/02a-MAClow/IEEE802154Ecsl.c ****    if (packetfunctions_isBroadcastMulticast(&ieee154e_vars.dataToSend->l2_nextORpreviousHop)==TRUE)
 1950              		.loc 1 902 0
 1951 0d0c 40F20003 		movw	r3, #:lower16:ieee154e_vars
 1952 0d10 C0F20003 		movt	r3, #:upper16:ieee154e_vars
 1953 0d14 5B69     		ldr	r3, [r3, #20]
 1954 0d16 03F13803 		add	r3, r3, #56
 1955 0d1a 1846     		mov	r0, r3
 1956 0d1c FFF7FEFF 		bl	packetfunctions_isBroadcastMulticast
 1957 0d20 0346     		mov	r3, r0
 1958 0d22 002B     		cmp	r3, #0
 1959 0d24 03D0     		beq	.L112
 903:openstack/02a-MAClow/IEEE802154Ecsl.c ****       listenForAck = FALSE;
 1960              		.loc 1 903 0
 1961 0d26 4FF00003 		mov	r3, #0
 1962 0d2a FB73     		strb	r3, [r7, #15]
 1963 0d2c 02E0     		b	.L113
 1964              	.L112:
 904:openstack/02a-MAClow/IEEE802154Ecsl.c ****    } else {
 905:openstack/02a-MAClow/IEEE802154Ecsl.c ****       listenForAck = TRUE;
 1965              		.loc 1 905 0
 1966 0d2e 4FF00103 		mov	r3, #1
 1967 0d32 FB73     		strb	r3, [r7, #15]
 1968              	.L113:
 906:openstack/02a-MAClow/IEEE802154Ecsl.c ****    }
 907:openstack/02a-MAClow/IEEE802154Ecsl.c **** 
 908:openstack/02a-MAClow/IEEE802154Ecsl.c ****    // CSL: TEST CODE
 909:openstack/02a-MAClow/IEEE802154Ecsl.c ****    // toggle orange led to indicate TX.
 910:openstack/02a-MAClow/IEEE802154Ecsl.c ****    if((ieee154e_vars.dataToSend->l2_frameType == IEEE154_TYPE_DATA) &&
 1969              		.loc 1 910 0
 1970 0d34 40F20003 		movw	r3, #:lower16:ieee154e_vars
 1971 0d38 C0F20003 		movt	r3, #:upper16:ieee154e_vars
 1972 0d3c 5B69     		ldr	r3, [r3, #20]
 1973 0d3e 93F84930 		ldrb	r3, [r3, #73]	@ zero_extendqisi2
 1974 0d42 012B     		cmp	r3, #1
 1975 0d44 15D1     		bne	.L114
 911:openstack/02a-MAClow/IEEE802154Ecsl.c **** 	  (ieee154e_vars.dataToSend->owner == COMPONENT_SIXTOP_TO_IEEE802154E) &&
 1976              		.loc 1 911 0 discriminator 1
 1977 0d46 40F20003 		movw	r3, #:lower16:ieee154e_vars
 1978 0d4a C0F20003 		movt	r3, #:upper16:ieee154e_vars
 1979 0d4e 5B69     		ldr	r3, [r3, #20]
 1980 0d50 5B78     		ldrb	r3, [r3, #1]	@ zero_extendqisi2
 910:openstack/02a-MAClow/IEEE802154Ecsl.c ****    if((ieee154e_vars.dataToSend->l2_frameType == IEEE154_TYPE_DATA) &&
 1981              		.loc 1 910 0 discriminator 1
 1982 0d52 0A2B     		cmp	r3, #10
 1983 0d54 0DD1     		bne	.L114
 912:openstack/02a-MAClow/IEEE802154Ecsl.c **** 	  (ieee154e_vars.dataToSend->cslFlag == 123)) {
 1984              		.loc 1 912 0
 1985 0d56 40F20003 		movw	r3, #:lower16:ieee154e_vars
 1986 0d5a C0F20003 		movt	r3, #:upper16:ieee154e_vars
 1987 0d5e 5B69     		ldr	r3, [r3, #20]
 1988 0d60 93F8ED30 		ldrb	r3, [r3, #237]	@ zero_extendqisi2
 911:openstack/02a-MAClow/IEEE802154Ecsl.c **** 	  (ieee154e_vars.dataToSend->owner == COMPONENT_SIXTOP_TO_IEEE802154E) &&
 1989              		.loc 1 911 0
 1990 0d64 7B2B     		cmp	r3, #123
 1991 0d66 04D1     		bne	.L114
 913:openstack/02a-MAClow/IEEE802154Ecsl.c **** 	 leds_sync_blink();
 1992              		.loc 1 913 0
 1993 0d68 FFF7FEFF 		bl	leds_sync_blink
 914:openstack/02a-MAClow/IEEE802154Ecsl.c **** 	 listenForAck = FALSE;
 1994              		.loc 1 914 0
 1995 0d6c 4FF00003 		mov	r3, #0
 1996 0d70 FB73     		strb	r3, [r7, #15]
 1997              	.L114:
 915:openstack/02a-MAClow/IEEE802154Ecsl.c ****    }
 916:openstack/02a-MAClow/IEEE802154Ecsl.c ****    // END TEST CODE
 917:openstack/02a-MAClow/IEEE802154Ecsl.c **** 
 918:openstack/02a-MAClow/IEEE802154Ecsl.c **** 
 919:openstack/02a-MAClow/IEEE802154Ecsl.c ****    if (listenForAck==TRUE) {
 1998              		.loc 1 919 0
 1999 0d72 FB7B     		ldrb	r3, [r7, #15]	@ zero_extendqisi2
 2000 0d74 002B     		cmp	r3, #0
 2001 0d76 0AD0     		beq	.L115
 920:openstack/02a-MAClow/IEEE802154Ecsl.c ****       // arm tt5
 921:openstack/02a-MAClow/IEEE802154Ecsl.c ****       radiotimer_schedule(DURATION_tt5);
 2002              		.loc 1 921 0
 2003 0d78 40F20003 		movw	r3, #:lower16:ieee154e_vars
 2004 0d7c C0F20003 		movt	r3, #:upper16:ieee154e_vars
 2005 0d80 5B6A     		ldr	r3, [r3, #36]
 2006 0d82 03F17D03 		add	r3, r3, #125
 2007 0d86 1846     		mov	r0, r3
 2008 0d88 FFF7FEFF 		bl	radiotimer_schedule
 2009 0d8c 09E0     		b	.L111
 2010              	.L115:
 922:openstack/02a-MAClow/IEEE802154Ecsl.c ****    } else {
 923:openstack/02a-MAClow/IEEE802154Ecsl.c ****       // indicate succesful Tx to schedule to keep statistics
 924:openstack/02a-MAClow/IEEE802154Ecsl.c ****       schedule_indicateTx(&ieee154e_vars.asn,TRUE);
 2011              		.loc 1 924 0
 2012 0d8e 40F20000 		movw	r0, #:lower16:ieee154e_vars
 2013 0d92 C0F20000 		movt	r0, #:upper16:ieee154e_vars
 2014 0d96 4FF00101 		mov	r1, #1
 2015 0d9a FFF7FEFF 		bl	schedule_indicateTx
 925:openstack/02a-MAClow/IEEE802154Ecsl.c **** 
 926:openstack/02a-MAClow/IEEE802154Ecsl.c ****       // CSL TEST CODE (comment notification)
 927:openstack/02a-MAClow/IEEE802154Ecsl.c ****       // indicate to upper later the packet was sent successfully
 928:openstack/02a-MAClow/IEEE802154Ecsl.c ****       //notif_sendDone(ieee154e_vars.dataToSend,E_SUCCESS);
 929:openstack/02a-MAClow/IEEE802154Ecsl.c **** 
 930:openstack/02a-MAClow/IEEE802154Ecsl.c ****       // reset local variable
 931:openstack/02a-MAClow/IEEE802154Ecsl.c ****       //ieee154e_vars.dataToSend = NULL;
 932:openstack/02a-MAClow/IEEE802154Ecsl.c ****       // END TEST CODE
 933:openstack/02a-MAClow/IEEE802154Ecsl.c **** 
 934:openstack/02a-MAClow/IEEE802154Ecsl.c ****       // abort
 935:openstack/02a-MAClow/IEEE802154Ecsl.c ****       endOps();
 2016              		.loc 1 935 0
 2017 0d9e FFF7FEFF 		bl	endOps
 2018              	.L111:
 936:openstack/02a-MAClow/IEEE802154Ecsl.c ****    }
 937:openstack/02a-MAClow/IEEE802154Ecsl.c **** }
 2019              		.loc 1 937 0
 2020 0da2 07F11407 		add	r7, r7, #20
 2021 0da6 BD46     		mov	sp, r7
 2022 0da8 90BD     		pop	{r4, r7, pc}
 2023              		.cfi_endproc
 2024              	.LFE22:
 2026 0daa 00BF     		.align	2
 2027              		.global	activity_csl_data_ti6
 2028              		.thumb
 2029              		.thumb_func
 2031              	activity_csl_data_ti6:
 2032              	.LFB23:
 938:openstack/02a-MAClow/IEEE802154Ecsl.c **** 
 939:openstack/02a-MAClow/IEEE802154Ecsl.c **** /**
 940:openstack/02a-MAClow/IEEE802154Ecsl.c ****  \brief Activity for CSL TX stage [data ti6].
 941:openstack/02a-MAClow/IEEE802154Ecsl.c **** 
 942:openstack/02a-MAClow/IEEE802154Ecsl.c ****   This method is invoked from ISR-mode "isr_ieee154ecsl_timer" function when FSM timer fires (expir
 943:openstack/02a-MAClow/IEEE802154Ecsl.c ****    The functionality is to prepare the radio for ACK reception.
 944:openstack/02a-MAClow/IEEE802154Ecsl.c **** */
 945:openstack/02a-MAClow/IEEE802154Ecsl.c **** port_INLINE void activity_csl_data_ti6() {
 2033              		.loc 1 945 0
 2034              		.cfi_startproc
 2035              		@ args = 0, pretend = 0, frame = 0
 2036              		@ frame_needed = 1, uses_anonymous_args = 0
 2037 0dac 80B5     		push	{r7, lr}
 2038              	.LCFI55:
 2039              		.cfi_def_cfa_offset 8
 2040              		.cfi_offset 7, -8
 2041              		.cfi_offset 14, -4
 2042 0dae 00AF     		add	r7, sp, #0
 2043              	.LCFI56:
 2044              		.cfi_def_cfa_register 7
 946:openstack/02a-MAClow/IEEE802154Ecsl.c ****    // change state
 947:openstack/02a-MAClow/IEEE802154Ecsl.c ****    changeState(S_CSLRXACKPREPARE);
 2045              		.loc 1 947 0
 2046 0db0 4FF02600 		mov	r0, #38
 2047 0db4 FFF7FEFF 		bl	changeState
 948:openstack/02a-MAClow/IEEE802154Ecsl.c **** 
 949:openstack/02a-MAClow/IEEE802154Ecsl.c ****    // enable the radio in Rx mode. The radio is not actively listening yet.
 950:openstack/02a-MAClow/IEEE802154Ecsl.c ****    radio_rxEnable();
 2048              		.loc 1 950 0
 2049 0db8 FFF7FEFF 		bl	radio_rxEnable
 951:openstack/02a-MAClow/IEEE802154Ecsl.c **** 
 952:openstack/02a-MAClow/IEEE802154Ecsl.c ****    //caputre init of radio for duty cycle calculation
 953:openstack/02a-MAClow/IEEE802154Ecsl.c ****    ieee154e_vars.radioOnInit=radio_getTimerValue();
 2050              		.loc 1 953 0
 2051 0dbc FFF7FEFF 		bl	radio_getTimerValue
 2052 0dc0 0246     		mov	r2, r0
 2053 0dc2 40F20003 		movw	r3, #:lower16:ieee154e_vars
 2054 0dc6 C0F20003 		movt	r3, #:upper16:ieee154e_vars
 2055 0dca 1A63     		str	r2, [r3, #48]
 954:openstack/02a-MAClow/IEEE802154Ecsl.c ****    ieee154e_vars.radioOnThisSlot=TRUE;
 2056              		.loc 1 954 0
 2057 0dcc 40F20003 		movw	r3, #:lower16:ieee154e_vars
 2058 0dd0 C0F20003 		movt	r3, #:upper16:ieee154e_vars
 2059 0dd4 4FF00102 		mov	r2, #1
 2060 0dd8 83F83820 		strb	r2, [r3, #56]
 955:openstack/02a-MAClow/IEEE802154Ecsl.c **** 
 956:openstack/02a-MAClow/IEEE802154Ecsl.c ****    // arm tt6
 957:openstack/02a-MAClow/IEEE802154Ecsl.c ****    radiotimer_schedule(DURATION_tt6);
 2061              		.loc 1 957 0
 2062 0ddc 40F20003 		movw	r3, #:lower16:ieee154e_vars
 2063 0de0 C0F20003 		movt	r3, #:upper16:ieee154e_vars
 2064 0de4 5B6A     		ldr	r3, [r3, #36]
 2065 0de6 03F18703 		add	r3, r3, #135
 2066 0dea 1846     		mov	r0, r3
 2067 0dec FFF7FEFF 		bl	radiotimer_schedule
 958:openstack/02a-MAClow/IEEE802154Ecsl.c **** 
 959:openstack/02a-MAClow/IEEE802154Ecsl.c ****    // change state
 960:openstack/02a-MAClow/IEEE802154Ecsl.c ****    changeState(S_CSLRXACKREADY);
 2068              		.loc 1 960 0
 2069 0df0 4FF02700 		mov	r0, #39
 2070 0df4 FFF7FEFF 		bl	changeState
 961:openstack/02a-MAClow/IEEE802154Ecsl.c **** }
 2071              		.loc 1 961 0
 2072 0df8 80BD     		pop	{r7, pc}
 2073              		.cfi_endproc
 2074              	.LFE23:
 2076 0dfa 00BF     		.align	2
 2077              		.global	activity_csl_data_tie4
 2078              		.thumb
 2079              		.thumb_func
 2081              	activity_csl_data_tie4:
 2082              	.LFB24:
 962:openstack/02a-MAClow/IEEE802154Ecsl.c **** 
 963:openstack/02a-MAClow/IEEE802154Ecsl.c **** /**
 964:openstack/02a-MAClow/IEEE802154Ecsl.c ****  \brief Activity for CSL TX stage [data tie4].
 965:openstack/02a-MAClow/IEEE802154Ecsl.c **** 
 966:openstack/02a-MAClow/IEEE802154Ecsl.c ****   This method is invoked from ISR-mode "isr_ieee154ecsl_timer" function when FSM timer fires (expir
 967:openstack/02a-MAClow/IEEE802154Ecsl.c ****    The functionality is to prepare the radio for ACK sending.
 968:openstack/02a-MAClow/IEEE802154Ecsl.c **** */
 969:openstack/02a-MAClow/IEEE802154Ecsl.c **** port_INLINE void activity_csl_data_tie4() {
 2083              		.loc 1 969 0
 2084              		.cfi_startproc
 2085              		@ args = 0, pretend = 0, frame = 0
 2086              		@ frame_needed = 1, uses_anonymous_args = 0
 2087 0dfc 80B5     		push	{r7, lr}
 2088              	.LCFI57:
 2089              		.cfi_def_cfa_offset 8
 2090              		.cfi_offset 7, -8
 2091              		.cfi_offset 14, -4
 2092 0dfe 00AF     		add	r7, sp, #0
 2093              	.LCFI58:
 2094              		.cfi_def_cfa_register 7
 970:openstack/02a-MAClow/IEEE802154Ecsl.c ****    // log the error
 971:openstack/02a-MAClow/IEEE802154Ecsl.c ****    openserial_printError(COMPONENT_IEEE802154E,ERR_MAXRXACKPREPARE_OVERFLOWS,
 972:openstack/02a-MAClow/IEEE802154Ecsl.c ****                          (errorparameter_t)ieee154e_vars.state, (errorparameter_t)ieee154e_vars.slo
 2095              		.loc 1 972 0
 2096 0e00 40F20003 		movw	r3, #:lower16:ieee154e_vars
 2097 0e04 C0F20003 		movt	r3, #:upper16:ieee154e_vars
 2098 0e08 5B7C     		ldrb	r3, [r3, #17]	@ zero_extendqisi2
 971:openstack/02a-MAClow/IEEE802154Ecsl.c ****    openserial_printError(COMPONENT_IEEE802154E,ERR_MAXRXACKPREPARE_OVERFLOWS,
 2099              		.loc 1 971 0
 2100 0e0a 1A46     		mov	r2, r3
 2101 0e0c 40F20003 		movw	r3, #:lower16:ieee154e_vars
 2102 0e10 C0F20003 		movt	r3, #:upper16:ieee154e_vars
 2103 0e14 DB88     		ldrh	r3, [r3, #6]
 2104 0e16 4FF00900 		mov	r0, #9
 2105 0e1a 4FF02301 		mov	r1, #35
 2106 0e1e FFF7FEFF 		bl	openserial_printError
 973:openstack/02a-MAClow/IEEE802154Ecsl.c ****    // abort
 974:openstack/02a-MAClow/IEEE802154Ecsl.c ****    endOps();
 2107              		.loc 1 974 0
 2108 0e22 FFF7FEFF 		bl	endOps
 975:openstack/02a-MAClow/IEEE802154Ecsl.c **** }
 2109              		.loc 1 975 0
 2110 0e26 80BD     		pop	{r7, pc}
 2111              		.cfi_endproc
 2112              	.LFE24:
 2114              		.align	2
 2115              		.global	activity_csl_data_ti7
 2116              		.thumb
 2117              		.thumb_func
 2119              	activity_csl_data_ti7:
 2120              	.LFB25:
 976:openstack/02a-MAClow/IEEE802154Ecsl.c **** 
 977:openstack/02a-MAClow/IEEE802154Ecsl.c **** /**
 978:openstack/02a-MAClow/IEEE802154Ecsl.c ****  \brief Activity for CSL TX stage [data ti7].
 979:openstack/02a-MAClow/IEEE802154Ecsl.c **** 
 980:openstack/02a-MAClow/IEEE802154Ecsl.c ****   This method is invoked from ISR-mode "isr_ieee154ecsl_timer" function when FSM timer fires (expir
 981:openstack/02a-MAClow/IEEE802154Ecsl.c ****   The radio is configured and this interrupt gives it the "go" signal to start listening.
 982:openstack/02a-MAClow/IEEE802154Ecsl.c **** */
 983:openstack/02a-MAClow/IEEE802154Ecsl.c **** port_INLINE void activity_csl_data_ti7() {
 2121              		.loc 1 983 0
 2122              		.cfi_startproc
 2123              		@ args = 0, pretend = 0, frame = 0
 2124              		@ frame_needed = 1, uses_anonymous_args = 0
 2125 0e28 80B5     		push	{r7, lr}
 2126              	.LCFI59:
 2127              		.cfi_def_cfa_offset 8
 2128              		.cfi_offset 7, -8
 2129              		.cfi_offset 14, -4
 2130 0e2a 00AF     		add	r7, sp, #0
 2131              	.LCFI60:
 2132              		.cfi_def_cfa_register 7
 984:openstack/02a-MAClow/IEEE802154Ecsl.c ****    // change state
 985:openstack/02a-MAClow/IEEE802154Ecsl.c ****    changeState(S_CSLRXACKLISTEN);
 2133              		.loc 1 985 0
 2134 0e2c 4FF02800 		mov	r0, #40
 2135 0e30 FFF7FEFF 		bl	changeState
 986:openstack/02a-MAClow/IEEE802154Ecsl.c **** 
 987:openstack/02a-MAClow/IEEE802154Ecsl.c ****    // start listening
 988:openstack/02a-MAClow/IEEE802154Ecsl.c ****    radio_rxNow();
 2136              		.loc 1 988 0
 2137 0e34 FFF7FEFF 		bl	radio_rxNow
 989:openstack/02a-MAClow/IEEE802154Ecsl.c **** 
 990:openstack/02a-MAClow/IEEE802154Ecsl.c ****    // arm tt7
 991:openstack/02a-MAClow/IEEE802154Ecsl.c ****    radiotimer_schedule(DURATION_tt7);
 2138              		.loc 1 991 0
 2139 0e38 40F20003 		movw	r3, #:lower16:ieee154e_vars
 2140 0e3c C0F20003 		movt	r3, #:upper16:ieee154e_vars
 2141 0e40 5B6A     		ldr	r3, [r3, #36]
 2142 0e42 03F1A703 		add	r3, r3, #167
 2143 0e46 1846     		mov	r0, r3
 2144 0e48 FFF7FEFF 		bl	radiotimer_schedule
 992:openstack/02a-MAClow/IEEE802154Ecsl.c **** }
 2145              		.loc 1 992 0
 2146 0e4c 80BD     		pop	{r7, pc}
 2147              		.cfi_endproc
 2148              	.LFE25:
 2150 0e4e 00BF     		.align	2
 2151              		.global	activity_csl_data_tie5
 2152              		.thumb
 2153              		.thumb_func
 2155              	activity_csl_data_tie5:
 2156              	.LFB26:
 993:openstack/02a-MAClow/IEEE802154Ecsl.c **** 
 994:openstack/02a-MAClow/IEEE802154Ecsl.c **** /**
 995:openstack/02a-MAClow/IEEE802154Ecsl.c ****  \brief Activity for CSL TX stage [data tie5].
 996:openstack/02a-MAClow/IEEE802154Ecsl.c **** 
 997:openstack/02a-MAClow/IEEE802154Ecsl.c ****   This method is invoked from ISR-mode "isr_ieee154ecsl_timer" function when FSM timer fires (expir
 998:openstack/02a-MAClow/IEEE802154Ecsl.c ****   The functionality is to notify upper level, updating the number of remaining retries of the packe
 999:openstack/02a-MAClow/IEEE802154Ecsl.c **** */
1000:openstack/02a-MAClow/IEEE802154Ecsl.c **** port_INLINE void activity_csl_data_tie5() {
 2157              		.loc 1 1000 0
 2158              		.cfi_startproc
 2159              		@ args = 0, pretend = 0, frame = 0
 2160              		@ frame_needed = 1, uses_anonymous_args = 0
 2161 0e50 80B5     		push	{r7, lr}
 2162              	.LCFI61:
 2163              		.cfi_def_cfa_offset 8
 2164              		.cfi_offset 7, -8
 2165              		.cfi_offset 14, -4
 2166 0e52 00AF     		add	r7, sp, #0
 2167              	.LCFI62:
 2168              		.cfi_def_cfa_register 7
1001:openstack/02a-MAClow/IEEE802154Ecsl.c ****    // indicate transmit failed to schedule to keep stats
1002:openstack/02a-MAClow/IEEE802154Ecsl.c ****    schedule_indicateTx(&ieee154e_vars.asn,FALSE);
 2169              		.loc 1 1002 0
 2170 0e54 40F20000 		movw	r0, #:lower16:ieee154e_vars
 2171 0e58 C0F20000 		movt	r0, #:upper16:ieee154e_vars
 2172 0e5c 4FF00001 		mov	r1, #0
 2173 0e60 FFF7FEFF 		bl	schedule_indicateTx
1003:openstack/02a-MAClow/IEEE802154Ecsl.c **** 
1004:openstack/02a-MAClow/IEEE802154Ecsl.c ****    // decrement transmits left counter
1005:openstack/02a-MAClow/IEEE802154Ecsl.c ****    ieee154e_vars.dataToSend->l2_retriesLeft--;
 2174              		.loc 1 1005 0
 2175 0e64 40F20003 		movw	r3, #:lower16:ieee154e_vars
 2176 0e68 C0F20003 		movt	r3, #:upper16:ieee154e_vars
 2177 0e6c 5B69     		ldr	r3, [r3, #20]
 2178 0e6e 93F84B20 		ldrb	r2, [r3, #75]	@ zero_extendqisi2
 2179 0e72 02F1FF32 		add	r2, r2, #-1
 2180 0e76 D2B2     		uxtb	r2, r2
 2181 0e78 83F84B20 		strb	r2, [r3, #75]
1006:openstack/02a-MAClow/IEEE802154Ecsl.c **** 
1007:openstack/02a-MAClow/IEEE802154Ecsl.c ****    if (ieee154e_vars.dataToSend->l2_retriesLeft==0) {
 2182              		.loc 1 1007 0
 2183 0e7c 40F20003 		movw	r3, #:lower16:ieee154e_vars
 2184 0e80 C0F20003 		movt	r3, #:upper16:ieee154e_vars
 2185 0e84 5B69     		ldr	r3, [r3, #20]
 2186 0e86 93F84B30 		ldrb	r3, [r3, #75]	@ zero_extendqisi2
 2187 0e8a 002B     		cmp	r3, #0
 2188 0e8c 07D0     		beq	.L121
1008:openstack/02a-MAClow/IEEE802154Ecsl.c ****       // indicate tx fail if no more retries left
1009:openstack/02a-MAClow/IEEE802154Ecsl.c ****       // CSL testing commented
1010:openstack/02a-MAClow/IEEE802154Ecsl.c **** 	  // notif_sendDone(ieee154e_vars.dataToSend,E_FAIL);
1011:openstack/02a-MAClow/IEEE802154Ecsl.c ****    } else {
1012:openstack/02a-MAClow/IEEE802154Ecsl.c ****       // return packet to the virtual COMPONENT_SIXTOP_TO_IEEE802154E component
1013:openstack/02a-MAClow/IEEE802154Ecsl.c ****       ieee154e_vars.dataToSend->owner = COMPONENT_SIXTOP_TO_IEEE802154E;
 2189              		.loc 1 1013 0
 2190 0e8e 40F20003 		movw	r3, #:lower16:ieee154e_vars
 2191 0e92 C0F20003 		movt	r3, #:upper16:ieee154e_vars
 2192 0e96 5B69     		ldr	r3, [r3, #20]
 2193 0e98 4FF00A02 		mov	r2, #10
 2194 0e9c 5A70     		strb	r2, [r3, #1]
 2195              	.L121:
1014:openstack/02a-MAClow/IEEE802154Ecsl.c ****    }
1015:openstack/02a-MAClow/IEEE802154Ecsl.c **** 
1016:openstack/02a-MAClow/IEEE802154Ecsl.c ****    // reset local variable
1017:openstack/02a-MAClow/IEEE802154Ecsl.c ****    ieee154e_vars.dataToSend = NULL;
 2196              		.loc 1 1017 0
 2197 0e9e 40F20003 		movw	r3, #:lower16:ieee154e_vars
 2198 0ea2 C0F20003 		movt	r3, #:upper16:ieee154e_vars
 2199 0ea6 4FF00002 		mov	r2, #0
 2200 0eaa 5A61     		str	r2, [r3, #20]
1018:openstack/02a-MAClow/IEEE802154Ecsl.c **** 
1019:openstack/02a-MAClow/IEEE802154Ecsl.c ****    // abort
1020:openstack/02a-MAClow/IEEE802154Ecsl.c ****    endOps();
 2201              		.loc 1 1020 0
 2202 0eac FFF7FEFF 		bl	endOps
1021:openstack/02a-MAClow/IEEE802154Ecsl.c **** }
 2203              		.loc 1 1021 0
 2204 0eb0 80BD     		pop	{r7, pc}
 2205              		.cfi_endproc
 2206              	.LFE26:
 2208 0eb2 00BF     		.align	2
 2209              		.global	activity_csl_data_ti8
 2210              		.thumb
 2211              		.thumb_func
 2213              	activity_csl_data_ti8:
 2214              	.LFB27:
1022:openstack/02a-MAClow/IEEE802154Ecsl.c **** 
1023:openstack/02a-MAClow/IEEE802154Ecsl.c **** /**
1024:openstack/02a-MAClow/IEEE802154Ecsl.c ****  \brief Activity for CSL TX stage [data ti8].
1025:openstack/02a-MAClow/IEEE802154Ecsl.c **** 
1026:openstack/02a-MAClow/IEEE802154Ecsl.c ****   This method is invoked from ISR-mode "ieee154ecsl_startOfFrame" function when a start of frame ev
1027:openstack/02a-MAClow/IEEE802154Ecsl.c ****   The functionality is to change the state, cancel #tt7 and arm #tt8 (max time to receive the ack p
1028:openstack/02a-MAClow/IEEE802154Ecsl.c **** */
1029:openstack/02a-MAClow/IEEE802154Ecsl.c **** port_INLINE void activity_csl_data_ti8(PORT_RADIOTIMER_WIDTH capturedTime) {
 2215              		.loc 1 1029 0
 2216              		.cfi_startproc
 2217              		@ args = 0, pretend = 0, frame = 8
 2218              		@ frame_needed = 1, uses_anonymous_args = 0
 2219 0eb4 80B5     		push	{r7, lr}
 2220              	.LCFI63:
 2221              		.cfi_def_cfa_offset 8
 2222              		.cfi_offset 7, -8
 2223              		.cfi_offset 14, -4
 2224 0eb6 82B0     		sub	sp, sp, #8
 2225              	.LCFI64:
 2226              		.cfi_def_cfa_offset 16
 2227 0eb8 00AF     		add	r7, sp, #0
 2228              	.LCFI65:
 2229              		.cfi_def_cfa_register 7
 2230 0eba 7860     		str	r0, [r7, #4]
1030:openstack/02a-MAClow/IEEE802154Ecsl.c ****    // change state
1031:openstack/02a-MAClow/IEEE802154Ecsl.c ****    changeState(S_CSLRXACK);
 2231              		.loc 1 1031 0
 2232 0ebc 4FF02900 		mov	r0, #41
 2233 0ec0 FFF7FEFF 		bl	changeState
1032:openstack/02a-MAClow/IEEE802154Ecsl.c **** 
1033:openstack/02a-MAClow/IEEE802154Ecsl.c ****    // cancel tt7
1034:openstack/02a-MAClow/IEEE802154Ecsl.c ****    radiotimer_cancel();
 2234              		.loc 1 1034 0
 2235 0ec4 FFF7FEFF 		bl	radiotimer_cancel
1035:openstack/02a-MAClow/IEEE802154Ecsl.c **** 
1036:openstack/02a-MAClow/IEEE802154Ecsl.c ****    // record the captured time
1037:openstack/02a-MAClow/IEEE802154Ecsl.c ****    //ieee154e_vars.lastCapturedTime = capturedTime;
1038:openstack/02a-MAClow/IEEE802154Ecsl.c **** 
1039:openstack/02a-MAClow/IEEE802154Ecsl.c ****    // arm tt8
1040:openstack/02a-MAClow/IEEE802154Ecsl.c ****    radiotimer_schedule(DURATION_tt8);
 2236              		.loc 1 1040 0
 2237 0ec8 40F20003 		movw	r3, #:lower16:ieee154e_vars
 2238 0ecc C0F20003 		movt	r3, #:upper16:ieee154e_vars
 2239 0ed0 5B6A     		ldr	r3, [r3, #36]
 2240 0ed2 03F16203 		add	r3, r3, #98
 2241 0ed6 1846     		mov	r0, r3
 2242 0ed8 FFF7FEFF 		bl	radiotimer_schedule
1041:openstack/02a-MAClow/IEEE802154Ecsl.c **** }
 2243              		.loc 1 1041 0
 2244 0edc 07F10807 		add	r7, r7, #8
 2245 0ee0 BD46     		mov	sp, r7
 2246 0ee2 80BD     		pop	{r7, pc}
 2247              		.cfi_endproc
 2248              	.LFE27:
 2250              		.align	2
 2251              		.global	activity_csl_data_tie6
 2252              		.thumb
 2253              		.thumb_func
 2255              	activity_csl_data_tie6:
 2256              	.LFB28:
1042:openstack/02a-MAClow/IEEE802154Ecsl.c **** 
1043:openstack/02a-MAClow/IEEE802154Ecsl.c **** /**
1044:openstack/02a-MAClow/IEEE802154Ecsl.c ****  \brief Activity for CSL TX stage [data tie6].
1045:openstack/02a-MAClow/IEEE802154Ecsl.c **** 
1046:openstack/02a-MAClow/IEEE802154Ecsl.c ****   This method is invoked from ISR-mode "isr_ieee154ecsl_timer" function when FSM timer fires (expir
1047:openstack/02a-MAClow/IEEE802154Ecsl.c ****   The functionality is to finish and clean registers.
1048:openstack/02a-MAClow/IEEE802154Ecsl.c **** */
1049:openstack/02a-MAClow/IEEE802154Ecsl.c **** port_INLINE void activity_csl_data_tie6() {
 2257              		.loc 1 1049 0
 2258              		.cfi_startproc
 2259              		@ args = 0, pretend = 0, frame = 0
 2260              		@ frame_needed = 1, uses_anonymous_args = 0
 2261 0ee4 80B5     		push	{r7, lr}
 2262              	.LCFI66:
 2263              		.cfi_def_cfa_offset 8
 2264              		.cfi_offset 7, -8
 2265              		.cfi_offset 14, -4
 2266 0ee6 00AF     		add	r7, sp, #0
 2267              	.LCFI67:
 2268              		.cfi_def_cfa_register 7
1050:openstack/02a-MAClow/IEEE802154Ecsl.c ****    // abort
1051:openstack/02a-MAClow/IEEE802154Ecsl.c ****    endOps();
 2269              		.loc 1 1051 0
 2270 0ee8 FFF7FEFF 		bl	endOps
1052:openstack/02a-MAClow/IEEE802154Ecsl.c **** }
 2271              		.loc 1 1052 0
 2272 0eec 80BD     		pop	{r7, pc}
 2273              		.cfi_endproc
 2274              	.LFE28:
 2276 0eee 00BF     		.align	2
 2277              		.global	activity_csl_data_ti9
 2278              		.thumb
 2279              		.thumb_func
 2281              	activity_csl_data_ti9:
 2282              	.LFB29:
1053:openstack/02a-MAClow/IEEE802154Ecsl.c **** 
1054:openstack/02a-MAClow/IEEE802154Ecsl.c **** 
1055:openstack/02a-MAClow/IEEE802154Ecsl.c **** /**
1056:openstack/02a-MAClow/IEEE802154Ecsl.c ****  \brief Activity for CSL TX stage [data ti9].
1057:openstack/02a-MAClow/IEEE802154Ecsl.c **** 
1058:openstack/02a-MAClow/IEEE802154Ecsl.c ****   This method is invoked from ISR-mode "ieee154ecsl_endOfFrame" function when a end of frame event 
1059:openstack/02a-MAClow/IEEE802154Ecsl.c ****   The functionality is to change the state, cancel #tt8, analyze ack packet and notify upper layer.
1060:openstack/02a-MAClow/IEEE802154Ecsl.c **** */
1061:openstack/02a-MAClow/IEEE802154Ecsl.c **** port_INLINE void activity_csl_data_ti9(PORT_RADIOTIMER_WIDTH capturedTime) {
 2283              		.loc 1 1061 0
 2284              		.cfi_startproc
 2285              		@ args = 0, pretend = 0, frame = 80
 2286              		@ frame_needed = 1, uses_anonymous_args = 0
 2287 0ef0 B0B5     		push	{r4, r5, r7, lr}
 2288              	.LCFI68:
 2289              		.cfi_def_cfa_offset 16
 2290              		.cfi_offset 4, -16
 2291              		.cfi_offset 5, -12
 2292              		.cfi_offset 7, -8
 2293              		.cfi_offset 14, -4
 2294 0ef2 96B0     		sub	sp, sp, #88
 2295              	.LCFI69:
 2296              		.cfi_def_cfa_offset 104
 2297 0ef4 02AF     		add	r7, sp, #8
 2298              	.LCFI70:
 2299              		.cfi_def_cfa 7, 96
 2300 0ef6 7860     		str	r0, [r7, #4]
1062:openstack/02a-MAClow/IEEE802154Ecsl.c ****    ieee802154_header_iht     ieee802514_header;
1063:openstack/02a-MAClow/IEEE802154Ecsl.c ****    uint16_t                  lenIE;
1064:openstack/02a-MAClow/IEEE802154Ecsl.c **** 
1065:openstack/02a-MAClow/IEEE802154Ecsl.c ****    // change state
1066:openstack/02a-MAClow/IEEE802154Ecsl.c ****    changeState(S_CSLTXPROC);
 2301              		.loc 1 1066 0
 2302 0ef8 4FF02A00 		mov	r0, #42
 2303 0efc FFF7FEFF 		bl	changeState
1067:openstack/02a-MAClow/IEEE802154Ecsl.c **** 
1068:openstack/02a-MAClow/IEEE802154Ecsl.c ****    // cancel tt8
1069:openstack/02a-MAClow/IEEE802154Ecsl.c ****    radiotimer_cancel();
 2304              		.loc 1 1069 0
 2305 0f00 FFF7FEFF 		bl	radiotimer_cancel
1070:openstack/02a-MAClow/IEEE802154Ecsl.c **** 
1071:openstack/02a-MAClow/IEEE802154Ecsl.c ****    // turn off the radio
1072:openstack/02a-MAClow/IEEE802154Ecsl.c ****    radio_rfOff();
 2306              		.loc 1 1072 0
 2307 0f04 FFF7FEFF 		bl	radio_rfOff
1073:openstack/02a-MAClow/IEEE802154Ecsl.c ****    //compute tics radio on.
1074:openstack/02a-MAClow/IEEE802154Ecsl.c ****    ieee154e_vars.radioOnTics+=(radio_getTimerValue()-ieee154e_vars.radioOnInit);
 2308              		.loc 1 1074 0
 2309 0f08 40F20003 		movw	r3, #:lower16:ieee154e_vars
 2310 0f0c C0F20003 		movt	r3, #:upper16:ieee154e_vars
 2311 0f10 5C6B     		ldr	r4, [r3, #52]
 2312 0f12 FFF7FEFF 		bl	radio_getTimerValue
 2313 0f16 0246     		mov	r2, r0
 2314 0f18 40F20003 		movw	r3, #:lower16:ieee154e_vars
 2315 0f1c C0F20003 		movt	r3, #:upper16:ieee154e_vars
 2316 0f20 1B6B     		ldr	r3, [r3, #48]
 2317 0f22 D31A     		subs	r3, r2, r3
 2318 0f24 E218     		adds	r2, r4, r3
 2319 0f26 40F20003 		movw	r3, #:lower16:ieee154e_vars
 2320 0f2a C0F20003 		movt	r3, #:upper16:ieee154e_vars
 2321 0f2e 5A63     		str	r2, [r3, #52]
1075:openstack/02a-MAClow/IEEE802154Ecsl.c **** 
1076:openstack/02a-MAClow/IEEE802154Ecsl.c ****    // record the captured time
1077:openstack/02a-MAClow/IEEE802154Ecsl.c ****    //ieee154e_vars.lastCapturedTime = capturedTime;
1078:openstack/02a-MAClow/IEEE802154Ecsl.c **** 
1079:openstack/02a-MAClow/IEEE802154Ecsl.c ****    // get a buffer to put the (received) ACK in
1080:openstack/02a-MAClow/IEEE802154Ecsl.c ****    ieee154e_vars.ackReceived = openqueue_getFreePacketBuffer(COMPONENT_IEEE802154E);
 2322              		.loc 1 1080 0
 2323 0f30 4FF00900 		mov	r0, #9
 2324 0f34 FFF7FEFF 		bl	openqueue_getFreePacketBuffer
 2325 0f38 0246     		mov	r2, r0
 2326 0f3a 40F20003 		movw	r3, #:lower16:ieee154e_vars
 2327 0f3e C0F20003 		movt	r3, #:upper16:ieee154e_vars
 2328 0f42 1A62     		str	r2, [r3, #32]
1081:openstack/02a-MAClow/IEEE802154Ecsl.c ****    if (ieee154e_vars.ackReceived==NULL) {
 2329              		.loc 1 1081 0
 2330 0f44 40F20003 		movw	r3, #:lower16:ieee154e_vars
 2331 0f48 C0F20003 		movt	r3, #:upper16:ieee154e_vars
 2332 0f4c 1B6A     		ldr	r3, [r3, #32]
 2333 0f4e 002B     		cmp	r3, #0
 2334 0f50 0CD1     		bne	.L125
1082:openstack/02a-MAClow/IEEE802154Ecsl.c ****       // log the error
1083:openstack/02a-MAClow/IEEE802154Ecsl.c ****       openserial_printError(COMPONENT_IEEE802154E,ERR_NO_FREE_PACKET_BUFFER,
 2335              		.loc 1 1083 0
 2336 0f52 4FF00900 		mov	r0, #9
 2337 0f56 4FF02C01 		mov	r1, #44
 2338 0f5a 4FF00002 		mov	r2, #0
 2339 0f5e 4FF00003 		mov	r3, #0
 2340 0f62 FFF7FEFF 		bl	openserial_printError
1084:openstack/02a-MAClow/IEEE802154Ecsl.c ****                             (errorparameter_t)0,
1085:openstack/02a-MAClow/IEEE802154Ecsl.c ****                             (errorparameter_t)0);
1086:openstack/02a-MAClow/IEEE802154Ecsl.c ****       // abort
1087:openstack/02a-MAClow/IEEE802154Ecsl.c ****       endOps();
 2341              		.loc 1 1087 0
 2342 0f66 FFF7FEFF 		bl	endOps
 2343 0f6a 15E1     		b	.L124
 2344              	.L125:
1088:openstack/02a-MAClow/IEEE802154Ecsl.c ****       return;
1089:openstack/02a-MAClow/IEEE802154Ecsl.c ****    }
1090:openstack/02a-MAClow/IEEE802154Ecsl.c **** 
1091:openstack/02a-MAClow/IEEE802154Ecsl.c ****    // declare ownership over that packet
1092:openstack/02a-MAClow/IEEE802154Ecsl.c ****    ieee154e_vars.ackReceived->creator = COMPONENT_IEEE802154E;
 2345              		.loc 1 1092 0
 2346 0f6c 40F20003 		movw	r3, #:lower16:ieee154e_vars
 2347 0f70 C0F20003 		movt	r3, #:upper16:ieee154e_vars
 2348 0f74 1B6A     		ldr	r3, [r3, #32]
 2349 0f76 4FF00902 		mov	r2, #9
 2350 0f7a 1A70     		strb	r2, [r3, #0]
1093:openstack/02a-MAClow/IEEE802154Ecsl.c ****    ieee154e_vars.ackReceived->owner   = COMPONENT_IEEE802154E;
 2351              		.loc 1 1093 0
 2352 0f7c 40F20003 		movw	r3, #:lower16:ieee154e_vars
 2353 0f80 C0F20003 		movt	r3, #:upper16:ieee154e_vars
 2354 0f84 1B6A     		ldr	r3, [r3, #32]
 2355 0f86 4FF00902 		mov	r2, #9
 2356 0f8a 5A70     		strb	r2, [r3, #1]
1094:openstack/02a-MAClow/IEEE802154Ecsl.c **** 
1095:openstack/02a-MAClow/IEEE802154Ecsl.c ****    /*
1096:openstack/02a-MAClow/IEEE802154Ecsl.c ****    The do-while loop that follows is a little parsing trick.
1097:openstack/02a-MAClow/IEEE802154Ecsl.c ****    Because it contains a while(0) condition, it gets executed only once.
1098:openstack/02a-MAClow/IEEE802154Ecsl.c ****    Below the do-while loop is some code to cleans up the ack variable.
1099:openstack/02a-MAClow/IEEE802154Ecsl.c ****    Anywhere in the do-while loop, a break statement can be called to jump to
1100:openstack/02a-MAClow/IEEE802154Ecsl.c ****    the clean up code early. If the loop ends without a break, the received
1101:openstack/02a-MAClow/IEEE802154Ecsl.c ****    packet was correct. If it got aborted early (through a break), the packet
1102:openstack/02a-MAClow/IEEE802154Ecsl.c ****    was faulty.
1103:openstack/02a-MAClow/IEEE802154Ecsl.c ****    */
1104:openstack/02a-MAClow/IEEE802154Ecsl.c **** 
1105:openstack/02a-MAClow/IEEE802154Ecsl.c ****    do { // this "loop" is only executed once
1106:openstack/02a-MAClow/IEEE802154Ecsl.c **** 
1107:openstack/02a-MAClow/IEEE802154Ecsl.c ****       // retrieve the received ack frame from the radio's Rx buffer
1108:openstack/02a-MAClow/IEEE802154Ecsl.c ****       ieee154e_vars.ackReceived->payload = &(ieee154e_vars.ackReceived->packet[FIRST_FRAME_BYTE]);
 2357              		.loc 1 1108 0
 2358 0f8c 40F20003 		movw	r3, #:lower16:ieee154e_vars
 2359 0f90 C0F20003 		movt	r3, #:upper16:ieee154e_vars
 2360 0f94 1A6A     		ldr	r2, [r3, #32]
 2361 0f96 40F20003 		movw	r3, #:lower16:ieee154e_vars
 2362 0f9a C0F20003 		movt	r3, #:upper16:ieee154e_vars
 2363 0f9e 1B6A     		ldr	r3, [r3, #32]
 2364 0fa0 03F16C03 		add	r3, r3, #108
 2365 0fa4 5360     		str	r3, [r2, #4]
1109:openstack/02a-MAClow/IEEE802154Ecsl.c ****       radio_getReceivedFrame(       ieee154e_vars.ackReceived->payload,
 2366              		.loc 1 1109 0
 2367 0fa6 40F20003 		movw	r3, #:lower16:ieee154e_vars
 2368 0faa C0F20003 		movt	r3, #:upper16:ieee154e_vars
 2369 0fae 1B6A     		ldr	r3, [r3, #32]
 2370 0fb0 5968     		ldr	r1, [r3, #4]
1110:openstack/02a-MAClow/IEEE802154Ecsl.c ****                                    &ieee154e_vars.ackReceived->length,
 2371              		.loc 1 1110 0
 2372 0fb2 40F20003 		movw	r3, #:lower16:ieee154e_vars
 2373 0fb6 C0F20003 		movt	r3, #:upper16:ieee154e_vars
 2374 0fba 1B6A     		ldr	r3, [r3, #32]
1109:openstack/02a-MAClow/IEEE802154Ecsl.c ****       radio_getReceivedFrame(       ieee154e_vars.ackReceived->payload,
 2375              		.loc 1 1109 0
 2376 0fbc 03F10802 		add	r2, r3, #8
1111:openstack/02a-MAClow/IEEE802154Ecsl.c ****                              sizeof(ieee154e_vars.ackReceived->packet),
1112:openstack/02a-MAClow/IEEE802154Ecsl.c ****                                    &ieee154e_vars.ackReceived->l1_rssi,
 2377              		.loc 1 1112 0
 2378 0fc0 40F20003 		movw	r3, #:lower16:ieee154e_vars
 2379 0fc4 C0F20003 		movt	r3, #:upper16:ieee154e_vars
 2380 0fc8 1B6A     		ldr	r3, [r3, #32]
1109:openstack/02a-MAClow/IEEE802154Ecsl.c ****       radio_getReceivedFrame(       ieee154e_vars.ackReceived->payload,
 2381              		.loc 1 1109 0
 2382 0fca 03F16804 		add	r4, r3, #104
1113:openstack/02a-MAClow/IEEE802154Ecsl.c ****                                    &ieee154e_vars.ackReceived->l1_lqi,
 2383              		.loc 1 1113 0
 2384 0fce 40F20003 		movw	r3, #:lower16:ieee154e_vars
 2385 0fd2 C0F20003 		movt	r3, #:upper16:ieee154e_vars
 2386 0fd6 1B6A     		ldr	r3, [r3, #32]
1109:openstack/02a-MAClow/IEEE802154Ecsl.c ****       radio_getReceivedFrame(       ieee154e_vars.ackReceived->payload,
 2387              		.loc 1 1109 0
 2388 0fd8 03F16900 		add	r0, r3, #105
1114:openstack/02a-MAClow/IEEE802154Ecsl.c ****                                    &ieee154e_vars.ackReceived->l1_crc);
 2389              		.loc 1 1114 0
 2390 0fdc 40F20003 		movw	r3, #:lower16:ieee154e_vars
 2391 0fe0 C0F20003 		movt	r3, #:upper16:ieee154e_vars
 2392 0fe4 1B6A     		ldr	r3, [r3, #32]
1109:openstack/02a-MAClow/IEEE802154Ecsl.c ****       radio_getReceivedFrame(       ieee154e_vars.ackReceived->payload,
 2393              		.loc 1 1109 0
 2394 0fe6 03F16A03 		add	r3, r3, #106
 2395 0fea 0090     		str	r0, [sp, #0]
 2396 0fec 0193     		str	r3, [sp, #4]
 2397 0fee 0846     		mov	r0, r1
 2398 0ff0 1146     		mov	r1, r2
 2399 0ff2 4FF08202 		mov	r2, #130
 2400 0ff6 2346     		mov	r3, r4
 2401 0ff8 FFF7FEFF 		bl	radio_getReceivedFrame
1115:openstack/02a-MAClow/IEEE802154Ecsl.c **** 
1116:openstack/02a-MAClow/IEEE802154Ecsl.c ****       // break if wrong length
1117:openstack/02a-MAClow/IEEE802154Ecsl.c ****       if (ieee154e_vars.ackReceived->length<LENGTH_CRC || ieee154e_vars.ackReceived->length>LENGTH_
 2402              		.loc 1 1117 0
 2403 0ffc 40F20003 		movw	r3, #:lower16:ieee154e_vars
 2404 1000 C0F20003 		movt	r3, #:upper16:ieee154e_vars
 2405 1004 1B6A     		ldr	r3, [r3, #32]
 2406 1006 1B7A     		ldrb	r3, [r3, #8]	@ zero_extendqisi2
 2407 1008 012B     		cmp	r3, #1
 2408 100a 07D9     		bls	.L127
 2409              		.loc 1 1117 0 is_stmt 0 discriminator 1
 2410 100c 40F20003 		movw	r3, #:lower16:ieee154e_vars
 2411 1010 C0F20003 		movt	r3, #:upper16:ieee154e_vars
 2412 1014 1B6A     		ldr	r3, [r3, #32]
 2413 1016 1B7A     		ldrb	r3, [r3, #8]	@ zero_extendqisi2
 2414 1018 802B     		cmp	r3, #128
 2415 101a 0ED9     		bls	.L128
 2416              	.L127:
1118:openstack/02a-MAClow/IEEE802154Ecsl.c ****          // break from the do-while loop and execute the clean-up code below
1119:openstack/02a-MAClow/IEEE802154Ecsl.c ****         openserial_printError(COMPONENT_IEEE802154E,ERR_INVALIDPACKETFROMRADIO,
1120:openstack/02a-MAClow/IEEE802154Ecsl.c ****                             (errorparameter_t)1,
1121:openstack/02a-MAClow/IEEE802154Ecsl.c ****                             ieee154e_vars.ackReceived->length);
 2417              		.loc 1 1121 0 is_stmt 1
 2418 101c 40F20003 		movw	r3, #:lower16:ieee154e_vars
 2419 1020 C0F20003 		movt	r3, #:upper16:ieee154e_vars
 2420 1024 1B6A     		ldr	r3, [r3, #32]
 2421 1026 1B7A     		ldrb	r3, [r3, #8]	@ zero_extendqisi2
1119:openstack/02a-MAClow/IEEE802154Ecsl.c ****         openserial_printError(COMPONENT_IEEE802154E,ERR_INVALIDPACKETFROMRADIO,
 2422              		.loc 1 1119 0
 2423 1028 4FF00900 		mov	r0, #9
 2424 102c 4FF03701 		mov	r1, #55
 2425 1030 4FF00102 		mov	r2, #1
 2426 1034 FFF7FEFF 		bl	openserial_printError
1122:openstack/02a-MAClow/IEEE802154Ecsl.c **** 
1123:openstack/02a-MAClow/IEEE802154Ecsl.c ****          break;
 2427              		.loc 1 1123 0
 2428 1038 9DE0     		b	.L129
 2429              	.L128:
1124:openstack/02a-MAClow/IEEE802154Ecsl.c ****       }
1125:openstack/02a-MAClow/IEEE802154Ecsl.c **** 
1126:openstack/02a-MAClow/IEEE802154Ecsl.c ****       // toss CRC (2 last bytes)
1127:openstack/02a-MAClow/IEEE802154Ecsl.c ****       packetfunctions_tossFooter(   ieee154e_vars.ackReceived, LENGTH_CRC);
 2430              		.loc 1 1127 0
 2431 103a 40F20003 		movw	r3, #:lower16:ieee154e_vars
 2432 103e C0F20003 		movt	r3, #:upper16:ieee154e_vars
 2433 1042 1B6A     		ldr	r3, [r3, #32]
 2434 1044 1846     		mov	r0, r3
 2435 1046 4FF00201 		mov	r1, #2
 2436 104a FFF7FEFF 		bl	packetfunctions_tossFooter
1128:openstack/02a-MAClow/IEEE802154Ecsl.c **** 
1129:openstack/02a-MAClow/IEEE802154Ecsl.c ****       // break if invalid CRC
1130:openstack/02a-MAClow/IEEE802154Ecsl.c ****       if (ieee154e_vars.ackReceived->l1_crc==FALSE) {
 2437              		.loc 1 1130 0
 2438 104e 40F20003 		movw	r3, #:lower16:ieee154e_vars
 2439 1052 C0F20003 		movt	r3, #:upper16:ieee154e_vars
 2440 1056 1B6A     		ldr	r3, [r3, #32]
 2441 1058 93F86A30 		ldrb	r3, [r3, #106]	@ zero_extendqisi2
 2442 105c 83F00103 		eor	r3, r3, #1
 2443 1060 DBB2     		uxtb	r3, r3
 2444 1062 002B     		cmp	r3, #0
 2445 1064 7ED1     		bne	.L135
 2446              	.L130:
1131:openstack/02a-MAClow/IEEE802154Ecsl.c ****          // break from the do-while loop and execute the clean-up code below
1132:openstack/02a-MAClow/IEEE802154Ecsl.c ****          break;
1133:openstack/02a-MAClow/IEEE802154Ecsl.c ****       }
1134:openstack/02a-MAClow/IEEE802154Ecsl.c **** 
1135:openstack/02a-MAClow/IEEE802154Ecsl.c ****       // parse the IEEE802.15.4 header (RX ACK)
1136:openstack/02a-MAClow/IEEE802154Ecsl.c ****       ieee802154_retrieveHeader(ieee154e_vars.ackReceived,&ieee802514_header);
 2447              		.loc 1 1136 0
 2448 1066 40F20003 		movw	r3, #:lower16:ieee154e_vars
 2449 106a C0F20003 		movt	r3, #:upper16:ieee154e_vars
 2450 106e 1A6A     		ldr	r2, [r3, #32]
 2451 1070 07F11003 		add	r3, r7, #16
 2452 1074 1046     		mov	r0, r2
 2453 1076 1946     		mov	r1, r3
 2454 1078 FFF7FEFF 		bl	ieee802154_retrieveHeader
1137:openstack/02a-MAClow/IEEE802154Ecsl.c **** 
1138:openstack/02a-MAClow/IEEE802154Ecsl.c ****       // break if invalid IEEE802.15.4 header
1139:openstack/02a-MAClow/IEEE802154Ecsl.c ****       if (ieee802514_header.valid==FALSE) {
 2455              		.loc 1 1139 0
 2456 107c 3B7C     		ldrb	r3, [r7, #16]	@ zero_extendqisi2
 2457 107e 83F00103 		eor	r3, r3, #1
 2458 1082 DBB2     		uxtb	r3, r3
 2459 1084 002B     		cmp	r3, #0
 2460 1086 6FD1     		bne	.L136
 2461              	.L131:
1140:openstack/02a-MAClow/IEEE802154Ecsl.c ****          // break from the do-while loop and execute the clean-up code below
1141:openstack/02a-MAClow/IEEE802154Ecsl.c ****          break;
1142:openstack/02a-MAClow/IEEE802154Ecsl.c ****       }
1143:openstack/02a-MAClow/IEEE802154Ecsl.c **** 
1144:openstack/02a-MAClow/IEEE802154Ecsl.c ****       // store header details in packet buffer
1145:openstack/02a-MAClow/IEEE802154Ecsl.c ****       ieee154e_vars.ackReceived->l2_frameType  = ieee802514_header.frameType;
 2462              		.loc 1 1145 0
 2463 1088 40F20003 		movw	r3, #:lower16:ieee154e_vars
 2464 108c C0F20003 		movt	r3, #:upper16:ieee154e_vars
 2465 1090 1B6A     		ldr	r3, [r3, #32]
 2466 1092 BA7C     		ldrb	r2, [r7, #18]	@ zero_extendqisi2
 2467 1094 83F84920 		strb	r2, [r3, #73]
1146:openstack/02a-MAClow/IEEE802154Ecsl.c ****       ieee154e_vars.ackReceived->l2_dsn        = ieee802514_header.dsn;
 2468              		.loc 1 1146 0
 2469 1098 40F20003 		movw	r3, #:lower16:ieee154e_vars
 2470 109c C0F20003 		movt	r3, #:upper16:ieee154e_vars
 2471 10a0 1B6A     		ldr	r3, [r3, #32]
 2472 10a2 7A7E     		ldrb	r2, [r7, #25]	@ zero_extendqisi2
 2473 10a4 83F84A20 		strb	r2, [r3, #74]
1147:openstack/02a-MAClow/IEEE802154Ecsl.c ****       memcpy(&(ieee154e_vars.ackReceived->l2_nextORpreviousHop),&(ieee802514_header.src),sizeof(ope
 2474              		.loc 1 1147 0
 2475 10a8 40F20003 		movw	r3, #:lower16:ieee154e_vars
 2476 10ac C0F20003 		movt	r3, #:upper16:ieee154e_vars
 2477 10b0 1B6A     		ldr	r3, [r3, #32]
 2478 10b2 03F13803 		add	r3, r3, #56
 2479 10b6 1D46     		mov	r5, r3
 2480 10b8 07F13C04 		add	r4, r7, #60
 2481 10bc 0FCC     		ldmia	r4!, {r0, r1, r2, r3}
 2482 10be 2860     		str	r0, [r5, #0]	@ unaligned
 2483 10c0 6960     		str	r1, [r5, #4]	@ unaligned
 2484 10c2 AA60     		str	r2, [r5, #8]	@ unaligned
 2485 10c4 EB60     		str	r3, [r5, #12]	@ unaligned
 2486 10c6 2378     		ldrb	r3, [r4, #0]
 2487 10c8 2B74     		strb	r3, [r5, #16]
1148:openstack/02a-MAClow/IEEE802154Ecsl.c **** 
1149:openstack/02a-MAClow/IEEE802154Ecsl.c ****       // toss the IEEE802.15.4 header
1150:openstack/02a-MAClow/IEEE802154Ecsl.c ****       packetfunctions_tossHeader(ieee154e_vars.ackReceived,ieee802514_header.headerLength);
 2488              		.loc 1 1150 0
 2489 10ca 40F20003 		movw	r3, #:lower16:ieee154e_vars
 2490 10ce C0F20003 		movt	r3, #:upper16:ieee154e_vars
 2491 10d2 1A6A     		ldr	r2, [r3, #32]
 2492 10d4 7B7C     		ldrb	r3, [r7, #17]	@ zero_extendqisi2
 2493 10d6 1046     		mov	r0, r2
 2494 10d8 1946     		mov	r1, r3
 2495 10da FFF7FEFF 		bl	packetfunctions_tossHeader
1151:openstack/02a-MAClow/IEEE802154Ecsl.c **** 
1152:openstack/02a-MAClow/IEEE802154Ecsl.c ****       // break if invalid ACK
1153:openstack/02a-MAClow/IEEE802154Ecsl.c ****       if (isValidAck(&ieee802514_header,ieee154e_vars.dataToSend)==FALSE) {
 2496              		.loc 1 1153 0
 2497 10de 40F20003 		movw	r3, #:lower16:ieee154e_vars
 2498 10e2 C0F20003 		movt	r3, #:upper16:ieee154e_vars
 2499 10e6 5B69     		ldr	r3, [r3, #20]
 2500 10e8 07F11002 		add	r2, r7, #16
 2501 10ec 1046     		mov	r0, r2
 2502 10ee 1946     		mov	r1, r3
 2503 10f0 FFF7FEFF 		bl	isValidAck
 2504 10f4 0346     		mov	r3, r0
 2505 10f6 83F00103 		eor	r3, r3, #1
 2506 10fa DBB2     		uxtb	r3, r3
 2507 10fc 002B     		cmp	r3, #0
 2508 10fe 35D1     		bne	.L137
 2509              	.L132:
1154:openstack/02a-MAClow/IEEE802154Ecsl.c ****          // break from the do-while loop and execute the clean-up code below
1155:openstack/02a-MAClow/IEEE802154Ecsl.c ****          break;
1156:openstack/02a-MAClow/IEEE802154Ecsl.c ****       }
1157:openstack/02a-MAClow/IEEE802154Ecsl.c ****       //hanlde IEs --xv poipoi
1158:openstack/02a-MAClow/IEEE802154Ecsl.c ****       if (ieee802514_header.ieListPresent==FALSE){
 2510              		.loc 1 1158 0
 2511 1100 FB7D     		ldrb	r3, [r7, #23]	@ zero_extendqisi2
 2512 1102 83F00103 		eor	r3, r3, #1
 2513 1106 DBB2     		uxtb	r3, r3
 2514 1108 002B     		cmp	r3, #0
 2515 110a 31D1     		bne	.L138
 2516              	.L133:
1159:openstack/02a-MAClow/IEEE802154Ecsl.c ****          break; //ack should contain IEs.
1160:openstack/02a-MAClow/IEEE802154Ecsl.c ****       }
1161:openstack/02a-MAClow/IEEE802154Ecsl.c **** 
1162:openstack/02a-MAClow/IEEE802154Ecsl.c ****       if (ieee154e_processIEs(ieee154e_vars.ackReceived,&lenIE)==FALSE){
 2517              		.loc 1 1162 0
 2518 110c 40F20003 		movw	r3, #:lower16:ieee154e_vars
 2519 1110 C0F20003 		movt	r3, #:upper16:ieee154e_vars
 2520 1114 1A6A     		ldr	r2, [r3, #32]
 2521 1116 07F10E03 		add	r3, r7, #14
 2522 111a 1046     		mov	r0, r2
 2523 111c 1946     		mov	r1, r3
 2524 111e FFF7FEFF 		bl	ieee154e_processIEs
 2525 1122 0346     		mov	r3, r0
 2526 1124 83F00103 		eor	r3, r3, #1
 2527 1128 DBB2     		uxtb	r3, r3
 2528 112a 002B     		cmp	r3, #0
 2529 112c 22D1     		bne	.L139
 2530              	.L134:
1163:openstack/02a-MAClow/IEEE802154Ecsl.c ****         // invalid IEs in ACK
1164:openstack/02a-MAClow/IEEE802154Ecsl.c ****         break;
1165:openstack/02a-MAClow/IEEE802154Ecsl.c ****       }
1166:openstack/02a-MAClow/IEEE802154Ecsl.c **** 
1167:openstack/02a-MAClow/IEEE802154Ecsl.c ****       // toss the IEs
1168:openstack/02a-MAClow/IEEE802154Ecsl.c ****       packetfunctions_tossHeader(ieee154e_vars.ackReceived,lenIE);
 2531              		.loc 1 1168 0
 2532 112e 40F20003 		movw	r3, #:lower16:ieee154e_vars
 2533 1132 C0F20003 		movt	r3, #:upper16:ieee154e_vars
 2534 1136 1A6A     		ldr	r2, [r3, #32]
 2535 1138 FB89     		ldrh	r3, [r7, #14]
 2536 113a DBB2     		uxtb	r3, r3
 2537 113c 1046     		mov	r0, r2
 2538 113e 1946     		mov	r1, r3
 2539 1140 FFF7FEFF 		bl	packetfunctions_tossHeader
1169:openstack/02a-MAClow/IEEE802154Ecsl.c **** 
1170:openstack/02a-MAClow/IEEE802154Ecsl.c ****       // inform schedule of successful transmission
1171:openstack/02a-MAClow/IEEE802154Ecsl.c ****       schedule_indicateTx(&ieee154e_vars.asn,TRUE);
 2540              		.loc 1 1171 0
 2541 1144 40F20000 		movw	r0, #:lower16:ieee154e_vars
 2542 1148 C0F20000 		movt	r0, #:upper16:ieee154e_vars
 2543 114c 4FF00101 		mov	r1, #1
 2544 1150 FFF7FEFF 		bl	schedule_indicateTx
1172:openstack/02a-MAClow/IEEE802154Ecsl.c **** 
1173:openstack/02a-MAClow/IEEE802154Ecsl.c ****       // inform upper layer
1174:openstack/02a-MAClow/IEEE802154Ecsl.c ****       // CSL testing commented
1175:openstack/02a-MAClow/IEEE802154Ecsl.c ****       //notif_sendDone(ieee154e_vars.dataToSend,E_SUCCESS);
1176:openstack/02a-MAClow/IEEE802154Ecsl.c ****       ieee154e_vars.dataToSend = NULL;
 2545              		.loc 1 1176 0
 2546 1154 40F20003 		movw	r3, #:lower16:ieee154e_vars
 2547 1158 C0F20003 		movt	r3, #:upper16:ieee154e_vars
 2548 115c 4FF00002 		mov	r2, #0
 2549 1160 5A61     		str	r2, [r3, #20]
 2550 1162 08E0     		b	.L129
 2551              	.L135:
1132:openstack/02a-MAClow/IEEE802154Ecsl.c ****          break;
 2552              		.loc 1 1132 0
 2553 1164 00BF     		nop
 2554 1166 06E0     		b	.L129
 2555              	.L136:
1141:openstack/02a-MAClow/IEEE802154Ecsl.c ****          break;
 2556              		.loc 1 1141 0
 2557 1168 00BF     		nop
 2558 116a 04E0     		b	.L129
 2559              	.L137:
1155:openstack/02a-MAClow/IEEE802154Ecsl.c ****          break;
 2560              		.loc 1 1155 0
 2561 116c 00BF     		nop
 2562 116e 02E0     		b	.L129
 2563              	.L138:
1159:openstack/02a-MAClow/IEEE802154Ecsl.c ****          break; //ack should contain IEs.
 2564              		.loc 1 1159 0
 2565 1170 00BF     		nop
 2566 1172 00E0     		b	.L129
 2567              	.L139:
1164:openstack/02a-MAClow/IEEE802154Ecsl.c ****         break;
 2568              		.loc 1 1164 0
 2569 1174 00BF     		nop
 2570              	.L129:
1177:openstack/02a-MAClow/IEEE802154Ecsl.c **** 
1178:openstack/02a-MAClow/IEEE802154Ecsl.c ****       // in any case, execute the clean-up code below (processing of ACK done)
1179:openstack/02a-MAClow/IEEE802154Ecsl.c ****    } while (0);
1180:openstack/02a-MAClow/IEEE802154Ecsl.c **** 
1181:openstack/02a-MAClow/IEEE802154Ecsl.c ****    // free the received ack so corresponding RAM memory can be recycled
1182:openstack/02a-MAClow/IEEE802154Ecsl.c ****    openqueue_freePacketBuffer(ieee154e_vars.ackReceived);
 2571              		.loc 1 1182 0
 2572 1176 40F20003 		movw	r3, #:lower16:ieee154e_vars
 2573 117a C0F20003 		movt	r3, #:upper16:ieee154e_vars
 2574 117e 1B6A     		ldr	r3, [r3, #32]
 2575 1180 1846     		mov	r0, r3
 2576 1182 FFF7FEFF 		bl	openqueue_freePacketBuffer
1183:openstack/02a-MAClow/IEEE802154Ecsl.c **** 
1184:openstack/02a-MAClow/IEEE802154Ecsl.c ****    // clear local variable
1185:openstack/02a-MAClow/IEEE802154Ecsl.c ****    ieee154e_vars.ackReceived = NULL;
 2577              		.loc 1 1185 0
 2578 1186 40F20003 		movw	r3, #:lower16:ieee154e_vars
 2579 118a C0F20003 		movt	r3, #:upper16:ieee154e_vars
 2580 118e 4FF00002 		mov	r2, #0
 2581 1192 1A62     		str	r2, [r3, #32]
1186:openstack/02a-MAClow/IEEE802154Ecsl.c **** 
1187:openstack/02a-MAClow/IEEE802154Ecsl.c ****    // official end of Tx
1188:openstack/02a-MAClow/IEEE802154Ecsl.c ****    endOps();
 2582              		.loc 1 1188 0
 2583 1194 FFF7FEFF 		bl	endOps
 2584              	.L124:
1189:openstack/02a-MAClow/IEEE802154Ecsl.c **** }
 2585              		.loc 1 1189 0
 2586 1198 07F15007 		add	r7, r7, #80
 2587 119c BD46     		mov	sp, r7
 2588 119e B0BD     		pop	{r4, r5, r7, pc}
 2589              		.cfi_endproc
 2590              	.LFE29:
 2592              		.align	2
 2593              		.global	activity_csl_wakeup_ri1
 2594              		.thumb
 2595              		.thumb_func
 2597              	activity_csl_wakeup_ri1:
 2598              	.LFB30:
1190:openstack/02a-MAClow/IEEE802154Ecsl.c **** 
1191:openstack/02a-MAClow/IEEE802154Ecsl.c **** //======================================================================
1192:openstack/02a-MAClow/IEEE802154Ecsl.c **** //========================== CSL RX MODE ===============================
1193:openstack/02a-MAClow/IEEE802154Ecsl.c **** //======================================================================
1194:openstack/02a-MAClow/IEEE802154Ecsl.c **** 
1195:openstack/02a-MAClow/IEEE802154Ecsl.c **** 
1196:openstack/02a-MAClow/IEEE802154Ecsl.c **** /**
1197:openstack/02a-MAClow/IEEE802154Ecsl.c ****  \brief Activity for CSL RX Sampling stage [wake-up ri1].
1198:openstack/02a-MAClow/IEEE802154Ecsl.c **** 
1199:openstack/02a-MAClow/IEEE802154Ecsl.c ****  This method is invoked in ISR-mode from "isr_ieee154ecsl_newChannelSample" function when a new CSL
1200:openstack/02a-MAClow/IEEE802154Ecsl.c ****  
1201:openstack/02a-MAClow/IEEE802154Ecsl.c ****  \note The FSM state should be S_SLEEP (initial state), raising an error in otherwise.
1202:openstack/02a-MAClow/IEEE802154Ecsl.c **** */
1203:openstack/02a-MAClow/IEEE802154Ecsl.c **** port_INLINE void activity_csl_wakeup_ri1() { // Activity for stage [ri1] on CSL RX Sampling.
 2599              		.loc 1 1203 0
 2600              		.cfi_startproc
 2601              		@ args = 0, pretend = 0, frame = 0
 2602              		@ frame_needed = 1, uses_anonymous_args = 0
 2603 11a0 80B5     		push	{r7, lr}
 2604              	.LCFI71:
 2605              		.cfi_def_cfa_offset 8
 2606              		.cfi_offset 7, -8
 2607              		.cfi_offset 14, -4
 2608 11a2 00AF     		add	r7, sp, #0
 2609              	.LCFI72:
 2610              		.cfi_def_cfa_register 7
1204:openstack/02a-MAClow/IEEE802154Ecsl.c **** 
1205:openstack/02a-MAClow/IEEE802154Ecsl.c **** 	   // if the previous sample took too long or the state is incorrect, we will not be in the right 
1206:openstack/02a-MAClow/IEEE802154Ecsl.c **** 	   // we register an error indicating the number of CSL sample where the problem have been detecte
1207:openstack/02a-MAClow/IEEE802154Ecsl.c **** 	   if (ieee154e_vars.state!=S_SLEEP) {
 2611              		.loc 1 1207 0
 2612 11a4 40F20003 		movw	r3, #:lower16:ieee154e_vars
 2613 11a8 C0F20003 		movt	r3, #:upper16:ieee154e_vars
 2614 11ac 5B7C     		ldrb	r3, [r3, #17]	@ zero_extendqisi2
 2615 11ae 002B     		cmp	r3, #0
 2616 11b0 14D0     		beq	.L141
1208:openstack/02a-MAClow/IEEE802154Ecsl.c **** 		  // log the error
1209:openstack/02a-MAClow/IEEE802154Ecsl.c **** 		  openserial_printError(COMPONENT_IEEE802154E,ERR_WRONG_STATE_IN_START_CSL_SAMPLING,
1210:openstack/02a-MAClow/IEEE802154Ecsl.c **** 								(errorparameter_t)ieee154e_vars.state,
 2617              		.loc 1 1210 0
 2618 11b2 40F20003 		movw	r3, #:lower16:ieee154e_vars
 2619 11b6 C0F20003 		movt	r3, #:upper16:ieee154e_vars
 2620 11ba 5B7C     		ldrb	r3, [r3, #17]	@ zero_extendqisi2
1209:openstack/02a-MAClow/IEEE802154Ecsl.c **** 		  openserial_printError(COMPONENT_IEEE802154E,ERR_WRONG_STATE_IN_START_CSL_SAMPLING,
 2621              		.loc 1 1209 0
 2622 11bc 1A46     		mov	r2, r3
1211:openstack/02a-MAClow/IEEE802154Ecsl.c **** 								(errorparameter_t)ieee154e_dbg.num_cslSamples);
 2623              		.loc 1 1211 0
 2624 11be 40F20003 		movw	r3, #:lower16:ieee154e_dbg
 2625 11c2 C0F20003 		movt	r3, #:upper16:ieee154e_dbg
 2626 11c6 1B69     		ldr	r3, [r3, #16]
1209:openstack/02a-MAClow/IEEE802154Ecsl.c **** 		  openserial_printError(COMPONENT_IEEE802154E,ERR_WRONG_STATE_IN_START_CSL_SAMPLING,
 2627              		.loc 1 1209 0
 2628 11c8 9BB2     		uxth	r3, r3
 2629 11ca 4FF00900 		mov	r0, #9
 2630 11ce 4FF03A01 		mov	r1, #58
 2631 11d2 FFF7FEFF 		bl	openserial_printError
1212:openstack/02a-MAClow/IEEE802154Ecsl.c **** 
1213:openstack/02a-MAClow/IEEE802154Ecsl.c **** 		  // Abort in case of error. The signature of the function has been changed (instead of endSlot()
1214:openstack/02a-MAClow/IEEE802154Ecsl.c **** 		  // functionality. However, this function is equal for CSL and not-CSL.
1215:openstack/02a-MAClow/IEEE802154Ecsl.c **** 		  endOps();
 2632              		.loc 1 1215 0
 2633 11d6 FFF7FEFF 		bl	endOps
1216:openstack/02a-MAClow/IEEE802154Ecsl.c **** 		  return;
 2634              		.loc 1 1216 0
 2635 11da 17E0     		b	.L140
 2636              	.L141:
1217:openstack/02a-MAClow/IEEE802154Ecsl.c **** 	   }
1218:openstack/02a-MAClow/IEEE802154Ecsl.c **** 
1219:openstack/02a-MAClow/IEEE802154Ecsl.c **** 	   // stop using serial
1220:openstack/02a-MAClow/IEEE802154Ecsl.c **** 	   openserial_stop();
 2637              		.loc 1 1220 0
 2638 11dc FFF7FEFF 		bl	openserial_stop
1221:openstack/02a-MAClow/IEEE802154Ecsl.c **** 
1222:openstack/02a-MAClow/IEEE802154Ecsl.c **** 	   // change state --> Next State will be S_CSLRXWAKEUPOFFSET in order to prepare for CSL Rx wake-
1223:openstack/02a-MAClow/IEEE802154Ecsl.c **** 	   changeState(S_CSLRXWAKEUPOFFSET);
 2639              		.loc 1 1223 0
 2640 11e0 4FF02B00 		mov	r0, #43
 2641 11e4 FFF7FEFF 		bl	changeState
1224:openstack/02a-MAClow/IEEE802154Ecsl.c **** 
1225:openstack/02a-MAClow/IEEE802154Ecsl.c **** 	   // update CSL Mode to RX in order to avoid problems in FSM.
1226:openstack/02a-MAClow/IEEE802154Ecsl.c **** 	   ieee154e_vars.cslMode = CSL_RX_MODE;
 2642              		.loc 1 1226 0
 2643 11e8 40F20003 		movw	r3, #:lower16:ieee154e_vars
 2644 11ec C0F20003 		movt	r3, #:upper16:ieee154e_vars
 2645 11f0 4FF00102 		mov	r2, #1
 2646 11f4 83F84520 		strb	r2, [r3, #69]
1227:openstack/02a-MAClow/IEEE802154Ecsl.c **** 
1228:openstack/02a-MAClow/IEEE802154Ecsl.c **** 	   // arm rt1
1229:openstack/02a-MAClow/IEEE802154Ecsl.c **** 	   radiotimer_schedule(DURATION_rt1);
 2647              		.loc 1 1229 0
 2648 11f8 40F20003 		movw	r3, #:lower16:ieee154e_vars
 2649 11fc C0F20003 		movt	r3, #:upper16:ieee154e_vars
 2650 1200 5B6A     		ldr	r3, [r3, #36]
 2651 1202 03F13703 		add	r3, r3, #55
 2652 1206 1846     		mov	r0, r3
 2653 1208 FFF7FEFF 		bl	radiotimer_schedule
 2654              	.L140:
1230:openstack/02a-MAClow/IEEE802154Ecsl.c **** }
 2655              		.loc 1 1230 0
 2656 120c 80BD     		pop	{r7, pc}
 2657              		.cfi_endproc
 2658              	.LFE30:
 2660 120e 00BF     		.align	2
 2661              		.global	activity_csl_wakeup_ri2
 2662              		.thumb
 2663              		.thumb_func
 2665              	activity_csl_wakeup_ri2:
 2666              	.LFB31:
1231:openstack/02a-MAClow/IEEE802154Ecsl.c **** 
1232:openstack/02a-MAClow/IEEE802154Ecsl.c **** 
1233:openstack/02a-MAClow/IEEE802154Ecsl.c **** /**
1234:openstack/02a-MAClow/IEEE802154Ecsl.c ****  \brief Activity for CSL RX Sampling stage [wake-up ri2].
1235:openstack/02a-MAClow/IEEE802154Ecsl.c **** 
1236:openstack/02a-MAClow/IEEE802154Ecsl.c ****   This method is invoked from ISR-mode "isr_ieee154ecsl_timer" function when FSM timer fires (expir
1237:openstack/02a-MAClow/IEEE802154Ecsl.c ****   The functionality is to prepare the radio for receiving packets.
1238:openstack/02a-MAClow/IEEE802154Ecsl.c **** */
1239:openstack/02a-MAClow/IEEE802154Ecsl.c **** port_INLINE void activity_csl_wakeup_ri2() { // Activity for stage [ri2] on CSL RX Sampling.
 2667              		.loc 1 1239 0
 2668              		.cfi_startproc
 2669              		@ args = 0, pretend = 0, frame = 0
 2670              		@ frame_needed = 1, uses_anonymous_args = 0
 2671 1210 80B5     		push	{r7, lr}
 2672              	.LCFI73:
 2673              		.cfi_def_cfa_offset 8
 2674              		.cfi_offset 7, -8
 2675              		.cfi_offset 14, -4
 2676 1212 00AF     		add	r7, sp, #0
 2677              	.LCFI74:
 2678              		.cfi_def_cfa_register 7
1240:openstack/02a-MAClow/IEEE802154Ecsl.c ****    // change state
1241:openstack/02a-MAClow/IEEE802154Ecsl.c ****    changeState(S_CSLRXWAKEUPPREPARE);
 2679              		.loc 1 1241 0
 2680 1214 4FF02C00 		mov	r0, #44
 2681 1218 FFF7FEFF 		bl	changeState
1242:openstack/02a-MAClow/IEEE802154Ecsl.c **** 
1243:openstack/02a-MAClow/IEEE802154Ecsl.c ****    // We use always the same frequency so it is not necessary to change it on radio.
1244:openstack/02a-MAClow/IEEE802154Ecsl.c ****    // Enable the radio in Rx mode. The radio does not actively listen yet.
1245:openstack/02a-MAClow/IEEE802154Ecsl.c ****    radio_rxEnable();
 2682              		.loc 1 1245 0
 2683 121c FFF7FEFF 		bl	radio_rxEnable
1246:openstack/02a-MAClow/IEEE802154Ecsl.c ****    ieee154e_vars.radioOnInit=radio_getTimerValue();
 2684              		.loc 1 1246 0
 2685 1220 FFF7FEFF 		bl	radio_getTimerValue
 2686 1224 0246     		mov	r2, r0
 2687 1226 40F20003 		movw	r3, #:lower16:ieee154e_vars
 2688 122a C0F20003 		movt	r3, #:upper16:ieee154e_vars
 2689 122e 1A63     		str	r2, [r3, #48]
1247:openstack/02a-MAClow/IEEE802154Ecsl.c ****    ieee154e_vars.radioOnThisSlot=TRUE;
 2690              		.loc 1 1247 0
 2691 1230 40F20003 		movw	r3, #:lower16:ieee154e_vars
 2692 1234 C0F20003 		movt	r3, #:upper16:ieee154e_vars
 2693 1238 4FF00102 		mov	r2, #1
 2694 123c 83F83820 		strb	r2, [r3, #56]
1248:openstack/02a-MAClow/IEEE802154Ecsl.c **** 
1249:openstack/02a-MAClow/IEEE802154Ecsl.c ****    // arm rt2
1250:openstack/02a-MAClow/IEEE802154Ecsl.c ****    radiotimer_schedule(DURATION_rt2);
 2695              		.loc 1 1250 0
 2696 1240 40F20003 		movw	r3, #:lower16:ieee154e_vars
 2697 1244 C0F20003 		movt	r3, #:upper16:ieee154e_vars
 2698 1248 5B6A     		ldr	r3, [r3, #36]
 2699 124a 03F15803 		add	r3, r3, #88
 2700 124e 1846     		mov	r0, r3
 2701 1250 FFF7FEFF 		bl	radiotimer_schedule
1251:openstack/02a-MAClow/IEEE802154Ecsl.c **** 
1252:openstack/02a-MAClow/IEEE802154Ecsl.c ****    // Change state.
1253:openstack/02a-MAClow/IEEE802154Ecsl.c ****    // If this action is not performed before rt2 has expired, we need to manage the error in activi
1254:openstack/02a-MAClow/IEEE802154Ecsl.c ****    // prepare has exceeded the maximum allowed time (duration_rt2).
1255:openstack/02a-MAClow/IEEE802154Ecsl.c ****    changeState(S_CSLRXWAKEUPREADY);
 2702              		.loc 1 1255 0
 2703 1254 4FF02D00 		mov	r0, #45
 2704 1258 FFF7FEFF 		bl	changeState
1256:openstack/02a-MAClow/IEEE802154Ecsl.c **** }
 2705              		.loc 1 1256 0
 2706 125c 80BD     		pop	{r7, pc}
 2707              		.cfi_endproc
 2708              	.LFE31:
 2710 125e 00BF     		.align	2
 2711              		.global	activity_csl_wakeup_rie1
 2712              		.thumb
 2713              		.thumb_func
 2715              	activity_csl_wakeup_rie1:
 2716              	.LFB32:
1257:openstack/02a-MAClow/IEEE802154Ecsl.c **** 
1258:openstack/02a-MAClow/IEEE802154Ecsl.c **** 
1259:openstack/02a-MAClow/IEEE802154Ecsl.c **** /**
1260:openstack/02a-MAClow/IEEE802154Ecsl.c ****  \brief Activity for CSL RX Sampling error [wake-up rie1].
1261:openstack/02a-MAClow/IEEE802154Ecsl.c **** 
1262:openstack/02a-MAClow/IEEE802154Ecsl.c ****   This is triggered by #rt2 expiring, i.e. timer fires while state = S_CSLRXWAKEUPPREPARE. This is 
1263:openstack/02a-MAClow/IEEE802154Ecsl.c ****   did not have enough time to execute. Chances are to set maxRxDataPrepare too small. The implement
1264:openstack/02a-MAClow/IEEE802154Ecsl.c ****   next CSL sample.
1265:openstack/02a-MAClow/IEEE802154Ecsl.c **** */
1266:openstack/02a-MAClow/IEEE802154Ecsl.c **** port_INLINE void activity_csl_wakeup_rie1() {  // Activity for error event [rie1] on CSL RX Samplin
 2717              		.loc 1 1266 0
 2718              		.cfi_startproc
 2719              		@ args = 0, pretend = 0, frame = 0
 2720              		@ frame_needed = 1, uses_anonymous_args = 0
 2721 1260 80B5     		push	{r7, lr}
 2722              	.LCFI75:
 2723              		.cfi_def_cfa_offset 8
 2724              		.cfi_offset 7, -8
 2725              		.cfi_offset 14, -4
 2726 1262 00AF     		add	r7, sp, #0
 2727              	.LCFI76:
 2728              		.cfi_def_cfa_register 7
1267:openstack/02a-MAClow/IEEE802154Ecsl.c ****    // log the error
1268:openstack/02a-MAClow/IEEE802154Ecsl.c ****    openserial_printError(COMPONENT_IEEE802154E,ERR_MAXRXWAKEUPPREPARE_OVERFLOWS,
1269:openstack/02a-MAClow/IEEE802154Ecsl.c ****                          (errorparameter_t)ieee154e_vars.state,
 2729              		.loc 1 1269 0
 2730 1264 40F20003 		movw	r3, #:lower16:ieee154e_vars
 2731 1268 C0F20003 		movt	r3, #:upper16:ieee154e_vars
 2732 126c 5B7C     		ldrb	r3, [r3, #17]	@ zero_extendqisi2
1268:openstack/02a-MAClow/IEEE802154Ecsl.c ****    openserial_printError(COMPONENT_IEEE802154E,ERR_MAXRXWAKEUPPREPARE_OVERFLOWS,
 2733              		.loc 1 1268 0
 2734 126e 1A46     		mov	r2, r3
1270:openstack/02a-MAClow/IEEE802154Ecsl.c ****                          (errorparameter_t)ieee154e_dbg.num_cslSamples);
 2735              		.loc 1 1270 0
 2736 1270 40F20003 		movw	r3, #:lower16:ieee154e_dbg
 2737 1274 C0F20003 		movt	r3, #:upper16:ieee154e_dbg
 2738 1278 1B69     		ldr	r3, [r3, #16]
1268:openstack/02a-MAClow/IEEE802154Ecsl.c ****    openserial_printError(COMPONENT_IEEE802154E,ERR_MAXRXWAKEUPPREPARE_OVERFLOWS,
 2739              		.loc 1 1268 0
 2740 127a 9BB2     		uxth	r3, r3
 2741 127c 4FF00900 		mov	r0, #9
 2742 1280 4FF03C01 		mov	r1, #60
 2743 1284 FFF7FEFF 		bl	openserial_printError
1271:openstack/02a-MAClow/IEEE802154Ecsl.c ****    // abort
1272:openstack/02a-MAClow/IEEE802154Ecsl.c ****    endOps();
 2744              		.loc 1 1272 0
 2745 1288 FFF7FEFF 		bl	endOps
1273:openstack/02a-MAClow/IEEE802154Ecsl.c **** }
 2746              		.loc 1 1273 0
 2747 128c 80BD     		pop	{r7, pc}
 2748              		.cfi_endproc
 2749              	.LFE32:
 2751 128e 00BF     		.align	2
 2752              		.global	activity_csl_wakeup_ri3
 2753              		.thumb
 2754              		.thumb_func
 2756              	activity_csl_wakeup_ri3:
 2757              	.LFB33:
1274:openstack/02a-MAClow/IEEE802154Ecsl.c **** 
1275:openstack/02a-MAClow/IEEE802154Ecsl.c **** 
1276:openstack/02a-MAClow/IEEE802154Ecsl.c **** /**
1277:openstack/02a-MAClow/IEEE802154Ecsl.c ****  \brief Activity for CSL RX Sampling stage [wake-up ri3].
1278:openstack/02a-MAClow/IEEE802154Ecsl.c **** 
1279:openstack/02a-MAClow/IEEE802154Ecsl.c ****   This method is invoked from ISR-mode "isr_ieee154ecsl_timer" function when FSM timer fires (expir
1280:openstack/02a-MAClow/IEEE802154Ecsl.c ****   The radio is configured and this interrupt gives it the "go" signal to start listening.
1281:openstack/02a-MAClow/IEEE802154Ecsl.c **** */
1282:openstack/02a-MAClow/IEEE802154Ecsl.c **** port_INLINE void activity_csl_wakeup_ri3() { // Activity for stage [ri3] on CSL RX Sampling.
 2758              		.loc 1 1282 0
 2759              		.cfi_startproc
 2760              		@ args = 0, pretend = 0, frame = 0
 2761              		@ frame_needed = 1, uses_anonymous_args = 0
 2762 1290 80B5     		push	{r7, lr}
 2763              	.LCFI77:
 2764              		.cfi_def_cfa_offset 8
 2765              		.cfi_offset 7, -8
 2766              		.cfi_offset 14, -4
 2767 1292 00AF     		add	r7, sp, #0
 2768              	.LCFI78:
 2769              		.cfi_def_cfa_register 7
1283:openstack/02a-MAClow/IEEE802154Ecsl.c ****    // change state
1284:openstack/02a-MAClow/IEEE802154Ecsl.c ****    changeState(S_CSLRXWAKEUPLISTEN);
 2770              		.loc 1 1284 0
 2771 1294 4FF02E00 		mov	r0, #46
 2772 1298 FFF7FEFF 		bl	changeState
1285:openstack/02a-MAClow/IEEE802154Ecsl.c **** 
1286:openstack/02a-MAClow/IEEE802154Ecsl.c ****    // give the 'go' to receive
1287:openstack/02a-MAClow/IEEE802154Ecsl.c ****    radio_rxNow();
 2773              		.loc 1 1287 0
 2774 129c FFF7FEFF 		bl	radio_rxNow
1288:openstack/02a-MAClow/IEEE802154Ecsl.c **** 
1289:openstack/02a-MAClow/IEEE802154Ecsl.c ****    // arm rt3
1290:openstack/02a-MAClow/IEEE802154Ecsl.c ****    radiotimer_schedule(DURATION_rt3);
 2775              		.loc 1 1290 0
 2776 12a0 40F24110 		movw	r0, #321
 2777 12a4 FFF7FEFF 		bl	radiotimer_schedule
1291:openstack/02a-MAClow/IEEE802154Ecsl.c **** }
 2778              		.loc 1 1291 0
 2779 12a8 80BD     		pop	{r7, pc}
 2780              		.cfi_endproc
 2781              	.LFE33:
 2783 12aa 00BF     		.align	2
 2784              		.global	activity_csl_wakeup_rie2
 2785              		.thumb
 2786              		.thumb_func
 2788              	activity_csl_wakeup_rie2:
 2789              	.LFB34:
1292:openstack/02a-MAClow/IEEE802154Ecsl.c **** 
1293:openstack/02a-MAClow/IEEE802154Ecsl.c **** 
1294:openstack/02a-MAClow/IEEE802154Ecsl.c **** /**
1295:openstack/02a-MAClow/IEEE802154Ecsl.c ****  \brief Activity for CSL RX Sampling error [wake-up rie2].
1296:openstack/02a-MAClow/IEEE802154Ecsl.c **** 
1297:openstack/02a-MAClow/IEEE802154Ecsl.c ****   This is triggered by #rt3 expiring, i.e. timer fires while state = S_CSLRXWAKEUPLISTEN. If no pac
1298:openstack/02a-MAClow/IEEE802154Ecsl.c ****   none will be received ever and it is safe to switch of the radio. This timer is set such that the
1299:openstack/02a-MAClow/IEEE802154Ecsl.c ****   duration (#TsLongGT).
1300:openstack/02a-MAClow/IEEE802154Ecsl.c **** */
1301:openstack/02a-MAClow/IEEE802154Ecsl.c **** port_INLINE void activity_csl_wakeup_rie2() { // Activity for error event [rie2] on CSL RX Sampling
 2790              		.loc 1 1301 0
 2791              		.cfi_startproc
 2792              		@ args = 0, pretend = 0, frame = 0
 2793              		@ frame_needed = 1, uses_anonymous_args = 0
 2794 12ac 80B5     		push	{r7, lr}
 2795              	.LCFI79:
 2796              		.cfi_def_cfa_offset 8
 2797              		.cfi_offset 7, -8
 2798              		.cfi_offset 14, -4
 2799 12ae 00AF     		add	r7, sp, #0
 2800              	.LCFI80:
 2801              		.cfi_def_cfa_register 7
1302:openstack/02a-MAClow/IEEE802154Ecsl.c ****    // change state --> Next State will be S_CSLRXWAKEUPOFFSET in order to prepare for CSL Rx wake-u
1303:openstack/02a-MAClow/IEEE802154Ecsl.c ****    changeState(S_CSLRXWAKEUPOFFSET);
 2802              		.loc 1 1303 0
 2803 12b0 4FF02B00 		mov	r0, #43
 2804 12b4 FFF7FEFF 		bl	changeState
1304:openstack/02a-MAClow/IEEE802154Ecsl.c **** 
1305:openstack/02a-MAClow/IEEE802154Ecsl.c ****    // arm rt1
1306:openstack/02a-MAClow/IEEE802154Ecsl.c ****    radiotimer_schedule(DURATION_rt1);
 2805              		.loc 1 1306 0
 2806 12b8 40F20003 		movw	r3, #:lower16:ieee154e_vars
 2807 12bc C0F20003 		movt	r3, #:upper16:ieee154e_vars
 2808 12c0 5B6A     		ldr	r3, [r3, #36]
 2809 12c2 03F13703 		add	r3, r3, #55
 2810 12c6 1846     		mov	r0, r3
 2811 12c8 FFF7FEFF 		bl	radiotimer_schedule
1307:openstack/02a-MAClow/IEEE802154Ecsl.c **** 
1308:openstack/02a-MAClow/IEEE802154Ecsl.c ****    // abort
1309:openstack/02a-MAClow/IEEE802154Ecsl.c ****    endOps();
 2812              		.loc 1 1309 0
 2813 12cc FFF7FEFF 		bl	endOps
1310:openstack/02a-MAClow/IEEE802154Ecsl.c **** }
 2814              		.loc 1 1310 0
 2815 12d0 80BD     		pop	{r7, pc}
 2816              		.cfi_endproc
 2817              	.LFE34:
 2819 12d2 00BF     		.align	2
 2820              		.global	activity_csl_wakeup_ri4
 2821              		.thumb
 2822              		.thumb_func
 2824              	activity_csl_wakeup_ri4:
 2825              	.LFB35:
1311:openstack/02a-MAClow/IEEE802154Ecsl.c **** 
1312:openstack/02a-MAClow/IEEE802154Ecsl.c **** 
1313:openstack/02a-MAClow/IEEE802154Ecsl.c **** /**
1314:openstack/02a-MAClow/IEEE802154Ecsl.c ****  \brief Activity for CSL RX Sampling stage [wake-up ri4].
1315:openstack/02a-MAClow/IEEE802154Ecsl.c **** 
1316:openstack/02a-MAClow/IEEE802154Ecsl.c ****   This method is invoked from ISR-mode "ieee154ecsl_startOfFrame" function when a start of frame ev
1317:openstack/02a-MAClow/IEEE802154Ecsl.c ****   The functionality is to capture the time, cancel #rt3 and arm #rt4 (max time to receive all the p
1318:openstack/02a-MAClow/IEEE802154Ecsl.c **** */
1319:openstack/02a-MAClow/IEEE802154Ecsl.c **** port_INLINE void activity_csl_wakeup_ri4(PORT_RADIOTIMER_WIDTH capturedTime) {  // Activity for sta
 2826              		.loc 1 1319 0
 2827              		.cfi_startproc
 2828              		@ args = 0, pretend = 0, frame = 8
 2829              		@ frame_needed = 1, uses_anonymous_args = 0
 2830 12d4 80B5     		push	{r7, lr}
 2831              	.LCFI81:
 2832              		.cfi_def_cfa_offset 8
 2833              		.cfi_offset 7, -8
 2834              		.cfi_offset 14, -4
 2835 12d6 82B0     		sub	sp, sp, #8
 2836              	.LCFI82:
 2837              		.cfi_def_cfa_offset 16
 2838 12d8 00AF     		add	r7, sp, #0
 2839              	.LCFI83:
 2840              		.cfi_def_cfa_register 7
 2841 12da 7860     		str	r0, [r7, #4]
1320:openstack/02a-MAClow/IEEE802154Ecsl.c **** 
1321:openstack/02a-MAClow/IEEE802154Ecsl.c ****    // change state
1322:openstack/02a-MAClow/IEEE802154Ecsl.c ****    changeState(S_CSLRXWAKEUP);
 2842              		.loc 1 1322 0
 2843 12dc 4FF02F00 		mov	r0, #47
 2844 12e0 FFF7FEFF 		bl	changeState
1323:openstack/02a-MAClow/IEEE802154Ecsl.c **** 
1324:openstack/02a-MAClow/IEEE802154Ecsl.c ****    // cancel rt3
1325:openstack/02a-MAClow/IEEE802154Ecsl.c ****    radiotimer_cancel();
 2845              		.loc 1 1325 0
 2846 12e4 FFF7FEFF 		bl	radiotimer_cancel
1326:openstack/02a-MAClow/IEEE802154Ecsl.c **** 
1327:openstack/02a-MAClow/IEEE802154Ecsl.c ****    // record the captured time
1328:openstack/02a-MAClow/IEEE802154Ecsl.c ****    ieee154e_vars.lastCapturedTime = capturedTime;
 2847              		.loc 1 1328 0
 2848 12e8 40F20003 		movw	r3, #:lower16:ieee154e_vars
 2849 12ec C0F20003 		movt	r3, #:upper16:ieee154e_vars
 2850 12f0 7A68     		ldr	r2, [r7, #4]
 2851 12f2 5A62     		str	r2, [r3, #36]
1329:openstack/02a-MAClow/IEEE802154Ecsl.c **** 
1330:openstack/02a-MAClow/IEEE802154Ecsl.c ****    // record the captured time to sync
1331:openstack/02a-MAClow/IEEE802154Ecsl.c ****    ieee154e_vars.syncCapturedTime = capturedTime;
 2852              		.loc 1 1331 0
 2853 12f4 40F20003 		movw	r3, #:lower16:ieee154e_vars
 2854 12f8 C0F20003 		movt	r3, #:upper16:ieee154e_vars
 2855 12fc 7A68     		ldr	r2, [r7, #4]
 2856 12fe 9A62     		str	r2, [r3, #40]
1332:openstack/02a-MAClow/IEEE802154Ecsl.c **** 
1333:openstack/02a-MAClow/IEEE802154Ecsl.c ****    radiotimer_schedule(DURATION_rt4);
 2857              		.loc 1 1333 0
 2858 1300 40F20003 		movw	r3, #:lower16:ieee154e_vars
 2859 1304 C0F20003 		movt	r3, #:upper16:ieee154e_vars
 2860 1308 5B6A     		ldr	r3, [r3, #36]
 2861 130a 03F1A403 		add	r3, r3, #164
 2862 130e 1846     		mov	r0, r3
 2863 1310 FFF7FEFF 		bl	radiotimer_schedule
1334:openstack/02a-MAClow/IEEE802154Ecsl.c **** }
 2864              		.loc 1 1334 0
 2865 1314 07F10807 		add	r7, r7, #8
 2866 1318 BD46     		mov	sp, r7
 2867 131a 80BD     		pop	{r7, pc}
 2868              		.cfi_endproc
 2869              	.LFE35:
 2871              		.align	2
 2872              		.global	activity_csl_wakeup_rie3
 2873              		.thumb
 2874              		.thumb_func
 2876              	activity_csl_wakeup_rie3:
 2877              	.LFB36:
1335:openstack/02a-MAClow/IEEE802154Ecsl.c **** 
1336:openstack/02a-MAClow/IEEE802154Ecsl.c **** 
1337:openstack/02a-MAClow/IEEE802154Ecsl.c **** /**
1338:openstack/02a-MAClow/IEEE802154Ecsl.c ****  \brief Activity for CSL RX Sampling error [wake-up rie3].
1339:openstack/02a-MAClow/IEEE802154Ecsl.c **** 
1340:openstack/02a-MAClow/IEEE802154Ecsl.c ****   This is triggered by #rt4 expiring, i.e. timer fires while state = S_CSLRXWAKEUP. This is an erro
1341:openstack/02a-MAClow/IEEE802154Ecsl.c ****   transmit the data packet. The implemented behaviour is to log the error and move on the next CSL 
1342:openstack/02a-MAClow/IEEE802154Ecsl.c **** */
1343:openstack/02a-MAClow/IEEE802154Ecsl.c **** port_INLINE void activity_csl_wakeup_rie3() {
 2878              		.loc 1 1343 0
 2879              		.cfi_startproc
 2880              		@ args = 0, pretend = 0, frame = 0
 2881              		@ frame_needed = 1, uses_anonymous_args = 0
 2882 131c 80B5     		push	{r7, lr}
 2883              	.LCFI84:
 2884              		.cfi_def_cfa_offset 8
 2885              		.cfi_offset 7, -8
 2886              		.cfi_offset 14, -4
 2887 131e 00AF     		add	r7, sp, #0
 2888              	.LCFI85:
 2889              		.cfi_def_cfa_register 7
1344:openstack/02a-MAClow/IEEE802154Ecsl.c **** 
1345:openstack/02a-MAClow/IEEE802154Ecsl.c ****    // log the error
1346:openstack/02a-MAClow/IEEE802154Ecsl.c ****    openserial_printError(COMPONENT_IEEE802154E,ERR_WDWAKEUPDURATION_OVERFLOWS,
1347:openstack/02a-MAClow/IEEE802154Ecsl.c ****                          (errorparameter_t)ieee154e_vars.state,
 2890              		.loc 1 1347 0
 2891 1320 40F20003 		movw	r3, #:lower16:ieee154e_vars
 2892 1324 C0F20003 		movt	r3, #:upper16:ieee154e_vars
 2893 1328 5B7C     		ldrb	r3, [r3, #17]	@ zero_extendqisi2
1346:openstack/02a-MAClow/IEEE802154Ecsl.c ****    openserial_printError(COMPONENT_IEEE802154E,ERR_WDWAKEUPDURATION_OVERFLOWS,
 2894              		.loc 1 1346 0
 2895 132a 1A46     		mov	r2, r3
1348:openstack/02a-MAClow/IEEE802154Ecsl.c ****                          (errorparameter_t)ieee154e_dbg.num_cslSamples);
 2896              		.loc 1 1348 0
 2897 132c 40F20003 		movw	r3, #:lower16:ieee154e_dbg
 2898 1330 C0F20003 		movt	r3, #:upper16:ieee154e_dbg
 2899 1334 1B69     		ldr	r3, [r3, #16]
1346:openstack/02a-MAClow/IEEE802154Ecsl.c ****    openserial_printError(COMPONENT_IEEE802154E,ERR_WDWAKEUPDURATION_OVERFLOWS,
 2900              		.loc 1 1346 0
 2901 1336 9BB2     		uxth	r3, r3
 2902 1338 4FF00900 		mov	r0, #9
 2903 133c 4FF03D01 		mov	r1, #61
 2904 1340 FFF7FEFF 		bl	openserial_printError
1349:openstack/02a-MAClow/IEEE802154Ecsl.c ****    // abort
1350:openstack/02a-MAClow/IEEE802154Ecsl.c ****    endOps();
 2905              		.loc 1 1350 0
 2906 1344 FFF7FEFF 		bl	endOps
1351:openstack/02a-MAClow/IEEE802154Ecsl.c **** }
 2907              		.loc 1 1351 0
 2908 1348 80BD     		pop	{r7, pc}
 2909              		.cfi_endproc
 2910              	.LFE36:
 2912 134a 00BF     		.align	2
 2913              		.global	activity_csl_wakeup_ri5
 2914              		.thumb
 2915              		.thumb_func
 2917              	activity_csl_wakeup_ri5:
 2918              	.LFB37:
1352:openstack/02a-MAClow/IEEE802154Ecsl.c **** 
1353:openstack/02a-MAClow/IEEE802154Ecsl.c **** 
1354:openstack/02a-MAClow/IEEE802154Ecsl.c **** /**
1355:openstack/02a-MAClow/IEEE802154Ecsl.c ****  \brief Activity for CSL RX Sampling stage [wake-up ri5].
1356:openstack/02a-MAClow/IEEE802154Ecsl.c **** 
1357:openstack/02a-MAClow/IEEE802154Ecsl.c ****   This method is invoked from ISR-mode "ieee154ecsl_endOfFrame" function when a end of frame event 
1358:openstack/02a-MAClow/IEEE802154Ecsl.c ****   The functionality is to change state, cancel #rt4, validate wake-up frame and destination, and ar
1359:openstack/02a-MAClow/IEEE802154Ecsl.c **** */
1360:openstack/02a-MAClow/IEEE802154Ecsl.c **** port_INLINE void activity_csl_wakeup_ri5(PORT_RADIOTIMER_WIDTH capturedTime) {
 2919              		.loc 1 1360 0
 2920              		.cfi_startproc
 2921              		@ args = 0, pretend = 0, frame = 120
 2922              		@ frame_needed = 1, uses_anonymous_args = 0
 2923 134c 90B5     		push	{r4, r7, lr}
 2924              	.LCFI86:
 2925              		.cfi_def_cfa_offset 12
 2926              		.cfi_offset 4, -12
 2927              		.cfi_offset 7, -8
 2928              		.cfi_offset 14, -4
 2929 134e A1B0     		sub	sp, sp, #132
 2930              	.LCFI87:
 2931              		.cfi_def_cfa_offset 144
 2932 1350 02AF     		add	r7, sp, #8
 2933              	.LCFI88:
 2934              		.cfi_def_cfa 7, 136
 2935 1352 7860     		str	r0, [r7, #4]
1361:openstack/02a-MAClow/IEEE802154Ecsl.c **** 
1362:openstack/02a-MAClow/IEEE802154Ecsl.c **** 	ieee802154_header_iht ieee802514_header;
1363:openstack/02a-MAClow/IEEE802154Ecsl.c **** 	open_addr_t myID, myID16b;
1364:openstack/02a-MAClow/IEEE802154Ecsl.c **** 	uint16_t rztime = 0;
 2936              		.loc 1 1364 0
 2937 1354 4FF00003 		mov	r3, #0
 2938 1358 FB81     		strh	r3, [r7, #14]	@ movhi
1365:openstack/02a-MAClow/IEEE802154Ecsl.c **** 
1366:openstack/02a-MAClow/IEEE802154Ecsl.c **** 	// CSL TEST CODE
1367:openstack/02a-MAClow/IEEE802154Ecsl.c **** 	// Only for Testing due to we are hard-coding destination (neighbor) address on schedule, sent pac
1368:openstack/02a-MAClow/IEEE802154Ecsl.c **** 
1369:openstack/02a-MAClow/IEEE802154Ecsl.c ****     myID.addr_64b[0]=0x00;
 2939              		.loc 1 1369 0
 2940 135a 4FF00003 		mov	r3, #0
 2941 135e 87F82530 		strb	r3, [r7, #37]
1370:openstack/02a-MAClow/IEEE802154Ecsl.c **** 	myID.addr_64b[1]=0x11;
 2942              		.loc 1 1370 0
 2943 1362 4FF01103 		mov	r3, #17
 2944 1366 87F82630 		strb	r3, [r7, #38]
1371:openstack/02a-MAClow/IEEE802154Ecsl.c **** 	myID.addr_64b[2]=0x22;
 2945              		.loc 1 1371 0
 2946 136a 4FF02203 		mov	r3, #34
 2947 136e 87F82730 		strb	r3, [r7, #39]
1372:openstack/02a-MAClow/IEEE802154Ecsl.c **** 	myID.addr_64b[3]=0x33;
 2948              		.loc 1 1372 0
 2949 1372 4FF03303 		mov	r3, #51
 2950 1376 87F82830 		strb	r3, [r7, #40]
1373:openstack/02a-MAClow/IEEE802154Ecsl.c **** 	myID.addr_64b[4]=0x44;
 2951              		.loc 1 1373 0
 2952 137a 4FF04403 		mov	r3, #68
 2953 137e 87F82930 		strb	r3, [r7, #41]
1374:openstack/02a-MAClow/IEEE802154Ecsl.c **** 	myID.addr_64b[5]=0x55;
 2954              		.loc 1 1374 0
 2955 1382 4FF05503 		mov	r3, #85
 2956 1386 87F82A30 		strb	r3, [r7, #42]
1375:openstack/02a-MAClow/IEEE802154Ecsl.c **** 	myID.addr_64b[6]=0x66;
 2957              		.loc 1 1375 0
 2958 138a 4FF06603 		mov	r3, #102
 2959 138e 87F82B30 		strb	r3, [r7, #43]
1376:openstack/02a-MAClow/IEEE802154Ecsl.c **** 	myID.addr_64b[7]=0x77;
 2960              		.loc 1 1376 0
 2961 1392 4FF07703 		mov	r3, #119
 2962 1396 87F82C30 		strb	r3, [r7, #44]
1377:openstack/02a-MAClow/IEEE802154Ecsl.c **** 
1378:openstack/02a-MAClow/IEEE802154Ecsl.c **** 	myID.type=ADDR_64B;
 2963              		.loc 1 1378 0
 2964 139a 4FF00203 		mov	r3, #2
 2965 139e 87F82430 		strb	r3, [r7, #36]
1379:openstack/02a-MAClow/IEEE802154Ecsl.c **** 
1380:openstack/02a-MAClow/IEEE802154Ecsl.c **** 	// END CSL TEST
1381:openstack/02a-MAClow/IEEE802154Ecsl.c **** 
1382:openstack/02a-MAClow/IEEE802154Ecsl.c **** 	// En este punto ya hemos recibido la trama por lo que hay que hacer las siguientes validaciones:
1383:openstack/02a-MAClow/IEEE802154Ecsl.c **** 	//   1.- Cambiar el estado a S_CSLRXWAKEUPVALIDATE y cancelar el temporizador rt4.
1384:openstack/02a-MAClow/IEEE802154Ecsl.c **** 	//   2.- Apagar la radio.
1385:openstack/02a-MAClow/IEEE802154Ecsl.c **** 	//   3.- Analizar el mensaje recibido y parsear su cabecera.
1386:openstack/02a-MAClow/IEEE802154Ecsl.c **** 	//   4.- Verificar que se trata de una trama de tipo wake-up.
1387:openstack/02a-MAClow/IEEE802154Ecsl.c **** 	//   5.- Comprobar que el destinatario soy yo mismo.
1388:openstack/02a-MAClow/IEEE802154Ecsl.c **** 	//
1389:openstack/02a-MAClow/IEEE802154Ecsl.c **** 	// En caso afirmativo, utilizamos el Rendezvous time recibido para saber cuánto tiempo hay que do
1390:openstack/02a-MAClow/IEEE802154Ecsl.c **** 	// En caso negativo, desactivamos la radio e iniciamos de nuevo el proceso de channel sampling.
1391:openstack/02a-MAClow/IEEE802154Ecsl.c **** 
1392:openstack/02a-MAClow/IEEE802154Ecsl.c ****    // actualizamos el estado.
1393:openstack/02a-MAClow/IEEE802154Ecsl.c ****    changeState(S_CSLRXWAKEUPVALIDATE);
 2966              		.loc 1 1393 0
 2967 13a2 4FF03000 		mov	r0, #48
 2968 13a6 FFF7FEFF 		bl	changeState
1394:openstack/02a-MAClow/IEEE802154Ecsl.c **** 
1395:openstack/02a-MAClow/IEEE802154Ecsl.c ****    // cancelamos el timer #rt4
1396:openstack/02a-MAClow/IEEE802154Ecsl.c ****    radiotimer_cancel();
 2969              		.loc 1 1396 0
 2970 13aa FFF7FEFF 		bl	radiotimer_cancel
1397:openstack/02a-MAClow/IEEE802154Ecsl.c **** 
1398:openstack/02a-MAClow/IEEE802154Ecsl.c ****    // apagamos la radio
1399:openstack/02a-MAClow/IEEE802154Ecsl.c ****    radio_rfOff();
 2971              		.loc 1 1399 0
 2972 13ae FFF7FEFF 		bl	radio_rfOff
1400:openstack/02a-MAClow/IEEE802154Ecsl.c **** 
1401:openstack/02a-MAClow/IEEE802154Ecsl.c ****    // obtenemos un buffer en el cual poder guardar los datos recibidos.
1402:openstack/02a-MAClow/IEEE802154Ecsl.c ****    ieee154e_vars.wakeupReceived = openqueue_getFreePacketBuffer(COMPONENT_IEEE802154E);
 2973              		.loc 1 1402 0
 2974 13b2 4FF00900 		mov	r0, #9
 2975 13b6 FFF7FEFF 		bl	openqueue_getFreePacketBuffer
 2976 13ba 0246     		mov	r2, r0
 2977 13bc 40F20003 		movw	r3, #:lower16:ieee154e_vars
 2978 13c0 C0F20003 		movt	r3, #:upper16:ieee154e_vars
 2979 13c4 1A64     		str	r2, [r3, #64]
1403:openstack/02a-MAClow/IEEE802154Ecsl.c ****    if (ieee154e_vars.wakeupReceived==NULL) {
 2980              		.loc 1 1403 0
 2981 13c6 40F20003 		movw	r3, #:lower16:ieee154e_vars
 2982 13ca C0F20003 		movt	r3, #:upper16:ieee154e_vars
 2983 13ce 1B6C     		ldr	r3, [r3, #64]
 2984 13d0 002B     		cmp	r3, #0
 2985 13d2 0CD1     		bne	.L150
1404:openstack/02a-MAClow/IEEE802154Ecsl.c ****       // registro del error & fin de operaciones.
1405:openstack/02a-MAClow/IEEE802154Ecsl.c ****       openserial_printError(COMPONENT_IEEE802154E,ERR_NO_FREE_PACKET_BUFFER, (errorparameter_t)0, (
 2986              		.loc 1 1405 0
 2987 13d4 4FF00900 		mov	r0, #9
 2988 13d8 4FF02C01 		mov	r1, #44
 2989 13dc 4FF00002 		mov	r2, #0
 2990 13e0 4FF00003 		mov	r3, #0
 2991 13e4 FFF7FEFF 		bl	openserial_printError
1406:openstack/02a-MAClow/IEEE802154Ecsl.c ****       endOps();
 2992              		.loc 1 1406 0
 2993 13e8 FFF7FEFF 		bl	endOps
 2994 13ec 40E1     		b	.L149
 2995              	.L150:
1407:openstack/02a-MAClow/IEEE802154Ecsl.c ****       return;
1408:openstack/02a-MAClow/IEEE802154Ecsl.c ****    }
1409:openstack/02a-MAClow/IEEE802154Ecsl.c **** 
1410:openstack/02a-MAClow/IEEE802154Ecsl.c ****    // Declaración de propiedad sobre el paquete.
1411:openstack/02a-MAClow/IEEE802154Ecsl.c ****    ieee154e_vars.wakeupReceived->creator = COMPONENT_IEEE802154E;
 2996              		.loc 1 1411 0
 2997 13ee 40F20003 		movw	r3, #:lower16:ieee154e_vars
 2998 13f2 C0F20003 		movt	r3, #:upper16:ieee154e_vars
 2999 13f6 1B6C     		ldr	r3, [r3, #64]
 3000 13f8 4FF00902 		mov	r2, #9
 3001 13fc 1A70     		strb	r2, [r3, #0]
1412:openstack/02a-MAClow/IEEE802154Ecsl.c ****    ieee154e_vars.wakeupReceived->owner   = COMPONENT_IEEE802154E;
 3002              		.loc 1 1412 0
 3003 13fe 40F20003 		movw	r3, #:lower16:ieee154e_vars
 3004 1402 C0F20003 		movt	r3, #:upper16:ieee154e_vars
 3005 1406 1B6C     		ldr	r3, [r3, #64]
 3006 1408 4FF00902 		mov	r2, #9
 3007 140c 5A70     		strb	r2, [r3, #1]
1413:openstack/02a-MAClow/IEEE802154Ecsl.c **** 
1414:openstack/02a-MAClow/IEEE802154Ecsl.c ****    /*
1415:openstack/02a-MAClow/IEEE802154Ecsl.c ****    The do-while loop that follows is a little parsing trick.
1416:openstack/02a-MAClow/IEEE802154Ecsl.c ****    Because it contains a while(0) condition, it gets executed only once.
1417:openstack/02a-MAClow/IEEE802154Ecsl.c ****    The behavior is:
1418:openstack/02a-MAClow/IEEE802154Ecsl.c ****    - if a break occurs inside the do{} body, the error code below the loop gets executed. This indi
1419:openstack/02a-MAClow/IEEE802154Ecsl.c ****    - if a return occurs inside the do{} body, the error code below the loop does not get executed. 
1420:openstack/02a-MAClow/IEEE802154Ecsl.c ****    */
1421:openstack/02a-MAClow/IEEE802154Ecsl.c ****    do { // Este "loop" es ejecutado sólo en una ocasión.
1422:openstack/02a-MAClow/IEEE802154Ecsl.c **** 
1423:openstack/02a-MAClow/IEEE802154Ecsl.c ****       // Obtenemos la trama con los datos recibidos desde el buffer de recepción de la radio.
1424:openstack/02a-MAClow/IEEE802154Ecsl.c ****       ieee154e_vars.wakeupReceived->payload = &(ieee154e_vars.wakeupReceived->packet[FIRST_FRAME_BY
 3008              		.loc 1 1424 0
 3009 140e 40F20003 		movw	r3, #:lower16:ieee154e_vars
 3010 1412 C0F20003 		movt	r3, #:upper16:ieee154e_vars
 3011 1416 1A6C     		ldr	r2, [r3, #64]
 3012 1418 40F20003 		movw	r3, #:lower16:ieee154e_vars
 3013 141c C0F20003 		movt	r3, #:upper16:ieee154e_vars
 3014 1420 1B6C     		ldr	r3, [r3, #64]
 3015 1422 03F16C03 		add	r3, r3, #108
 3016 1426 5360     		str	r3, [r2, #4]
1425:openstack/02a-MAClow/IEEE802154Ecsl.c ****       radio_getReceivedFrame(      ieee154e_vars.wakeupReceived->payload,
 3017              		.loc 1 1425 0
 3018 1428 40F20003 		movw	r3, #:lower16:ieee154e_vars
 3019 142c C0F20003 		movt	r3, #:upper16:ieee154e_vars
 3020 1430 1B6C     		ldr	r3, [r3, #64]
 3021 1432 5968     		ldr	r1, [r3, #4]
1426:openstack/02a-MAClow/IEEE802154Ecsl.c ****                                    &ieee154e_vars.wakeupReceived->length,
 3022              		.loc 1 1426 0
 3023 1434 40F20003 		movw	r3, #:lower16:ieee154e_vars
 3024 1438 C0F20003 		movt	r3, #:upper16:ieee154e_vars
 3025 143c 1B6C     		ldr	r3, [r3, #64]
1425:openstack/02a-MAClow/IEEE802154Ecsl.c ****       radio_getReceivedFrame(      ieee154e_vars.wakeupReceived->payload,
 3026              		.loc 1 1425 0
 3027 143e 03F10802 		add	r2, r3, #8
1427:openstack/02a-MAClow/IEEE802154Ecsl.c ****                              sizeof(ieee154e_vars.wakeupReceived->packet),
1428:openstack/02a-MAClow/IEEE802154Ecsl.c ****                                    &ieee154e_vars.wakeupReceived->l1_rssi,
 3028              		.loc 1 1428 0
 3029 1442 40F20003 		movw	r3, #:lower16:ieee154e_vars
 3030 1446 C0F20003 		movt	r3, #:upper16:ieee154e_vars
 3031 144a 1B6C     		ldr	r3, [r3, #64]
1425:openstack/02a-MAClow/IEEE802154Ecsl.c ****       radio_getReceivedFrame(      ieee154e_vars.wakeupReceived->payload,
 3032              		.loc 1 1425 0
 3033 144c 03F16804 		add	r4, r3, #104
1429:openstack/02a-MAClow/IEEE802154Ecsl.c ****                                    &ieee154e_vars.wakeupReceived->l1_lqi,
 3034              		.loc 1 1429 0
 3035 1450 40F20003 		movw	r3, #:lower16:ieee154e_vars
 3036 1454 C0F20003 		movt	r3, #:upper16:ieee154e_vars
 3037 1458 1B6C     		ldr	r3, [r3, #64]
1425:openstack/02a-MAClow/IEEE802154Ecsl.c ****       radio_getReceivedFrame(      ieee154e_vars.wakeupReceived->payload,
 3038              		.loc 1 1425 0
 3039 145a 03F16900 		add	r0, r3, #105
1430:openstack/02a-MAClow/IEEE802154Ecsl.c ****                                    &ieee154e_vars.wakeupReceived->l1_crc);
 3040              		.loc 1 1430 0
 3041 145e 40F20003 		movw	r3, #:lower16:ieee154e_vars
 3042 1462 C0F20003 		movt	r3, #:upper16:ieee154e_vars
 3043 1466 1B6C     		ldr	r3, [r3, #64]
1425:openstack/02a-MAClow/IEEE802154Ecsl.c ****       radio_getReceivedFrame(      ieee154e_vars.wakeupReceived->payload,
 3044              		.loc 1 1425 0
 3045 1468 03F16A03 		add	r3, r3, #106
 3046 146c 0090     		str	r0, [sp, #0]
 3047 146e 0193     		str	r3, [sp, #4]
 3048 1470 0846     		mov	r0, r1
 3049 1472 1146     		mov	r1, r2
 3050 1474 4FF08202 		mov	r2, #130
 3051 1478 2346     		mov	r3, r4
 3052 147a FFF7FEFF 		bl	radio_getReceivedFrame
1431:openstack/02a-MAClow/IEEE802154Ecsl.c **** 
1432:openstack/02a-MAClow/IEEE802154Ecsl.c ****       // Finalizamos si la longitud no es correcta.
1433:openstack/02a-MAClow/IEEE802154Ecsl.c ****       if (ieee154e_vars.wakeupReceived->length<LENGTH_CRC || ieee154e_vars.wakeupReceived->length>L
 3053              		.loc 1 1433 0
 3054 147e 40F20003 		movw	r3, #:lower16:ieee154e_vars
 3055 1482 C0F20003 		movt	r3, #:upper16:ieee154e_vars
 3056 1486 1B6C     		ldr	r3, [r3, #64]
 3057 1488 1B7A     		ldrb	r3, [r3, #8]	@ zero_extendqisi2
 3058 148a 012B     		cmp	r3, #1
 3059 148c 07D9     		bls	.L152
 3060              		.loc 1 1433 0 is_stmt 0 discriminator 1
 3061 148e 40F20003 		movw	r3, #:lower16:ieee154e_vars
 3062 1492 C0F20003 		movt	r3, #:upper16:ieee154e_vars
 3063 1496 1B6C     		ldr	r3, [r3, #64]
 3064 1498 1B7A     		ldrb	r3, [r3, #8]	@ zero_extendqisi2
 3065 149a 802B     		cmp	r3, #128
 3066 149c 0ED9     		bls	.L153
 3067              	.L152:
1434:openstack/02a-MAClow/IEEE802154Ecsl.c ****         openserial_printError(COMPONENT_IEEE802154E,ERR_INVALIDPACKETFROMRADIO, (errorparameter_t)2
 3068              		.loc 1 1434 0 is_stmt 1
 3069 149e 40F20003 		movw	r3, #:lower16:ieee154e_vars
 3070 14a2 C0F20003 		movt	r3, #:upper16:ieee154e_vars
 3071 14a6 1B6C     		ldr	r3, [r3, #64]
 3072 14a8 1B7A     		ldrb	r3, [r3, #8]	@ zero_extendqisi2
 3073 14aa 4FF00900 		mov	r0, #9
 3074 14ae 4FF03701 		mov	r1, #55
 3075 14b2 4FF00202 		mov	r2, #2
 3076 14b6 FFF7FEFF 		bl	openserial_printError
1435:openstack/02a-MAClow/IEEE802154Ecsl.c ****         break;
 3077              		.loc 1 1435 0
 3078 14ba C8E0     		b	.L154
 3079              	.L153:
1436:openstack/02a-MAClow/IEEE802154Ecsl.c ****       }
1437:openstack/02a-MAClow/IEEE802154Ecsl.c **** 
1438:openstack/02a-MAClow/IEEE802154Ecsl.c ****       // toss CRC (2 últimos bytes)
1439:openstack/02a-MAClow/IEEE802154Ecsl.c ****       packetfunctions_tossFooter(ieee154e_vars.wakeupReceived, LENGTH_CRC);
 3080              		.loc 1 1439 0
 3081 14bc 40F20003 		movw	r3, #:lower16:ieee154e_vars
 3082 14c0 C0F20003 		movt	r3, #:upper16:ieee154e_vars
 3083 14c4 1B6C     		ldr	r3, [r3, #64]
 3084 14c6 1846     		mov	r0, r3
 3085 14c8 4FF00201 		mov	r1, #2
 3086 14cc FFF7FEFF 		bl	packetfunctions_tossFooter
1440:openstack/02a-MAClow/IEEE802154Ecsl.c **** 
1441:openstack/02a-MAClow/IEEE802154Ecsl.c ****       // si CRC no es válido, finalizamos el proceso.
1442:openstack/02a-MAClow/IEEE802154Ecsl.c ****       if (ieee154e_vars.wakeupReceived->l1_crc==FALSE) { break; }
 3087              		.loc 1 1442 0
 3088 14d0 40F20003 		movw	r3, #:lower16:ieee154e_vars
 3089 14d4 C0F20003 		movt	r3, #:upper16:ieee154e_vars
 3090 14d8 1B6C     		ldr	r3, [r3, #64]
 3091 14da 93F86A30 		ldrb	r3, [r3, #106]	@ zero_extendqisi2
 3092 14de 83F00103 		eor	r3, r3, #1
 3093 14e2 DBB2     		uxtb	r3, r3
 3094 14e4 002B     		cmp	r3, #0
 3095 14e6 40F0AD80 		bne	.L162
 3096              	.L155:
1443:openstack/02a-MAClow/IEEE802154Ecsl.c **** 
1444:openstack/02a-MAClow/IEEE802154Ecsl.c ****       // parseamos la trama IEEE802.15.4 WAKE-UP y su cabecera.
1445:openstack/02a-MAClow/IEEE802154Ecsl.c ****       ieee802154_retrieveWakeUpFrame(ieee154e_vars.wakeupReceived,&ieee802514_header,&rztime);
 3097              		.loc 1 1445 0
 3098 14ea 40F20003 		movw	r3, #:lower16:ieee154e_vars
 3099 14ee C0F20003 		movt	r3, #:upper16:ieee154e_vars
 3100 14f2 196C     		ldr	r1, [r3, #64]
 3101 14f4 07F13802 		add	r2, r7, #56
 3102 14f8 07F10E03 		add	r3, r7, #14
 3103 14fc 0846     		mov	r0, r1
 3104 14fe 1146     		mov	r1, r2
 3105 1500 1A46     		mov	r2, r3
 3106 1502 FFF7FEFF 		bl	ieee802154_retrieveWakeUpFrame
1446:openstack/02a-MAClow/IEEE802154Ecsl.c **** 
1447:openstack/02a-MAClow/IEEE802154Ecsl.c ****       // En el caso de que no sea una cabecera IEEE802.15.4 válida, finalizamos el proceso.
1448:openstack/02a-MAClow/IEEE802154Ecsl.c ****       if (ieee802514_header.valid==FALSE) { break; }
 3107              		.loc 1 1448 0
 3108 1506 97F83830 		ldrb	r3, [r7, #56]	@ zero_extendqisi2
 3109 150a 83F00103 		eor	r3, r3, #1
 3110 150e DBB2     		uxtb	r3, r3
 3111 1510 002B     		cmp	r3, #0
 3112 1512 40F09980 		bne	.L163
 3113              	.L156:
1449:openstack/02a-MAClow/IEEE802154Ecsl.c **** 
1450:openstack/02a-MAClow/IEEE802154Ecsl.c ****       // Verificamos que se trata de una trama WAKE-UP, perteneciente a la misma PAN ID, y dirigida
1451:openstack/02a-MAClow/IEEE802154Ecsl.c ****       if(ieee802514_header.frameType==IEEE154_TYPE_MULTIPURPOSE) {
 3114              		.loc 1 1451 0
 3115 1516 97F83A30 		ldrb	r3, [r7, #58]	@ zero_extendqisi2
 3116 151a 052B     		cmp	r3, #5
 3117 151c 40F09680 		bne	.L164
1452:openstack/02a-MAClow/IEEE802154Ecsl.c ****     	  // Comentado y sustituido para CSL TESTING ya que está hard-codeada la direccion.
1453:openstack/02a-MAClow/IEEE802154Ecsl.c ****      	  //if(packetfunctions_sameAddress(&ieee802514_header.dest,idmanager_getMyID(ADDR_16B)) &&
1454:openstack/02a-MAClow/IEEE802154Ecsl.c ****     	  // CSL TEST
1455:openstack/02a-MAClow/IEEE802154Ecsl.c ****     	  packetfunctions_mac64bToMac16b(&myID,&myID16b);
 3118              		.loc 1 1455 0
 3119 1520 07F12402 		add	r2, r7, #36
 3120 1524 07F11003 		add	r3, r7, #16
 3121 1528 1046     		mov	r0, r2
 3122 152a 1946     		mov	r1, r3
 3123 152c FFF7FEFF 		bl	packetfunctions_mac64bToMac16b
1456:openstack/02a-MAClow/IEEE802154Ecsl.c ****     	  if(packetfunctions_sameAddress(&ieee802514_header.dest, &myID16b) &&
 3124              		.loc 1 1456 0
 3125 1530 07F13803 		add	r3, r7, #56
 3126 1534 03F11B02 		add	r2, r3, #27
 3127 1538 07F11003 		add	r3, r7, #16
 3128 153c 1046     		mov	r0, r2
 3129 153e 1946     		mov	r1, r3
 3130 1540 FFF7FEFF 		bl	packetfunctions_sameAddress
 3131 1544 0346     		mov	r3, r0
 3132 1546 002B     		cmp	r3, #0
 3133 1548 43D0     		beq	.L158
1457:openstack/02a-MAClow/IEEE802154Ecsl.c ****    		  // END CSL TEST
1458:openstack/02a-MAClow/IEEE802154Ecsl.c ****     	     packetfunctions_sameAddress(&ieee802514_header.panid,idmanager_getMyID(ADDR_PANID))) {
 3134              		.loc 1 1458 0 discriminator 1
 3135 154a 4FF00400 		mov	r0, #4
 3136 154e FFF7FEFF 		bl	idmanager_getMyID
 3137 1552 0346     		mov	r3, r0
 3138 1554 07F13802 		add	r2, r7, #56
 3139 1558 02F10A02 		add	r2, r2, #10
 3140 155c 1046     		mov	r0, r2
 3141 155e 1946     		mov	r1, r3
 3142 1560 FFF7FEFF 		bl	packetfunctions_sameAddress
 3143 1564 0346     		mov	r3, r0
1456:openstack/02a-MAClow/IEEE802154Ecsl.c ****     	  if(packetfunctions_sameAddress(&ieee802514_header.dest, &myID16b) &&
 3144              		.loc 1 1456 0 discriminator 1
 3145 1566 002B     		cmp	r3, #0
 3146 1568 33D0     		beq	.L158
1459:openstack/02a-MAClow/IEEE802154Ecsl.c **** 
1460:openstack/02a-MAClow/IEEE802154Ecsl.c ****     	   // En este caso, debemos dormir el tiempo indicado por RZ Time, estableciendo el estado a S
1461:openstack/02a-MAClow/IEEE802154Ecsl.c ****  	       changeState(S_CSLRXDATAOFFSET);
 3147              		.loc 1 1461 0
 3148 156a 4FF03100 		mov	r0, #49
 3149 156e FFF7FEFF 		bl	changeState
1462:openstack/02a-MAClow/IEEE802154Ecsl.c **** 
1463:openstack/02a-MAClow/IEEE802154Ecsl.c ****     	   // registro del tiempo de captura
1464:openstack/02a-MAClow/IEEE802154Ecsl.c ****            ieee154e_vars.lastCapturedTime = capturedTime;
 3150              		.loc 1 1464 0
 3151 1572 40F20003 		movw	r3, #:lower16:ieee154e_vars
 3152 1576 C0F20003 		movt	r3, #:upper16:ieee154e_vars
 3153 157a 7A68     		ldr	r2, [r7, #4]
 3154 157c 5A62     		str	r2, [r3, #36]
1465:openstack/02a-MAClow/IEEE802154Ecsl.c **** 
1466:openstack/02a-MAClow/IEEE802154Ecsl.c ****     	   // Tratamos el caso en el cual rztime_ie.time sea cero, es decir, sea la ultima trama wake-
1467:openstack/02a-MAClow/IEEE802154Ecsl.c ****     	   if (rztime == 0) {
 3155              		.loc 1 1467 0
 3156 157e FB89     		ldrh	r3, [r7, #14]
 3157 1580 002B     		cmp	r3, #0
 3158 1582 0AD1     		bne	.L159
1468:openstack/02a-MAClow/IEEE802154Ecsl.c ****     	     // Establecemos el timer rt1 (consideramos el mismo tiempo de offset para la recepción d
1469:openstack/02a-MAClow/IEEE802154Ecsl.c ****     	     radiotimer_schedule(DURATION_rt1);
 3159              		.loc 1 1469 0
 3160 1584 40F20003 		movw	r3, #:lower16:ieee154e_vars
 3161 1588 C0F20003 		movt	r3, #:upper16:ieee154e_vars
 3162 158c 5B6A     		ldr	r3, [r3, #36]
 3163 158e 03F13703 		add	r3, r3, #55
 3164 1592 1846     		mov	r0, r3
 3165 1594 FFF7FEFF 		bl	radiotimer_schedule
 3166 1598 0BE0     		b	.L160
 3167              	.L159:
1470:openstack/02a-MAClow/IEEE802154Ecsl.c ****     	   } else {
