   1              		.syntax unified
   2              		.cpu cortex-m3
   3              		.fpu softvfp
   4              		.eabi_attribute 20, 1
   5              		.eabi_attribute 21, 1
   6              		.eabi_attribute 23, 3
   7              		.eabi_attribute 24, 1
   8              		.eabi_attribute 25, 1
   9              		.eabi_attribute 26, 1
  10              		.eabi_attribute 30, 6
  11              		.eabi_attribute 34, 1
  12              		.eabi_attribute 18, 4
  13              		.thumb
  14              		.file	"cinfo.c"
  15              		.text
  16              	.Ltext0:
  17              		.cfi_sections	.debug_frame
  18              		.section	.rodata
  19              		.align	2
  22              	rreg_uriquery:
  23 0000 683D7563 		.ascii	"h=ucb\000"
  23      6200
  24 0006 0000     		.align	2
  27              	infoBoardname:
  28 0008 43433235 		.ascii	"CC2538\000"
  28      333800
  29 000f 00       		.align	2
  32              	infouCName:
  33 0010 43433235 		.ascii	"CC2538\000"
  33      333800
  34 0017 00       		.align	2
  37              	infoRadioName:
  38 0018 43433235 		.ascii	"CC2538 SoC\000"
  38      33382053 
  38      6F4300
  39 0023 00       		.align	2
  42              	infoStackName:
  43 0024 4F70656E 		.ascii	"OpenWSN \000"
  43      57534E20 
  43      00
  44 002d 000000   		.align	2
  47              	ipAddr_ipsoRD:
  48 0030 26       		.byte	38
  49 0031 07       		.byte	7
  50 0032 F7       		.byte	-9
  51 0033 40       		.byte	64
  52 0034 00       		.byte	0
  53 0035 00       		.byte	0
  54 0036 00       		.byte	0
  55 0037 3F       		.byte	63
  56 0038 00       		.byte	0
  57 0039 00       		.byte	0
  58 003a 00       		.byte	0
  59 003b 00       		.byte	0
  60 003c 00       		.byte	0
  61 003d 00       		.byte	0
  62 003e 0E       		.byte	14
  63 003f 29       		.byte	41
  64              		.align	2
  67              	ipAddr_motesEecs:
  68 0040 20       		.byte	32
  69 0041 01       		.byte	1
  70 0042 04       		.byte	4
  71 0043 70       		.byte	112
  72 0044 00       		.byte	0
  73 0045 66       		.byte	102
  74 0046 00       		.byte	0
  75 0047 19       		.byte	25
  76 0048 00       		.byte	0
  77 0049 00       		.byte	0
  78 004a 00       		.byte	0
  79 004b 00       		.byte	0
  80 004c 00       		.byte	0
  81 004d 00       		.byte	0
  82 004e 00       		.byte	0
  83 004f 02       		.byte	2
  84              		.align	2
  87              	ipAddr_local:
  88 0050 26       		.byte	38
  89 0051 07       		.byte	7
  90 0052 F1       		.byte	-15
  91 0053 40       		.byte	64
  92 0054 04       		.byte	4
  93 0055 00       		.byte	0
  94 0056 10       		.byte	16
  95 0057 36       		.byte	54
  96 0058 4D       		.byte	77
  97 0059 CD       		.byte	-51
  98 005a AB       		.byte	-85
  99 005b 54       		.byte	84
 100 005c 81       		.byte	-127
 101 005d 99       		.byte	-103
 102 005e C1       		.byte	-63
 103 005f F7       		.byte	-9
 104              		.align	2
 107              	ipAddr_motedata:
 108 0060 20       		.byte	32
 109 0061 01       		.byte	1
 110 0062 04       		.byte	4
 111 0063 70       		.byte	112
 112 0064 00       		.byte	0
 113 0065 66       		.byte	102
 114 0066 00       		.byte	0
 115 0067 17       		.byte	23
 116 0068 00       		.byte	0
 117 0069 00       		.byte	0
 118 006a 00       		.byte	0
 119 006b 00       		.byte	0
 120 006c 00       		.byte	0
 121 006d 00       		.byte	0
 122 006e 00       		.byte	0
 123 006f 02       		.byte	2
 124              		.global	cinfo_path0
 125              		.align	2
 128              	cinfo_path0:
 129 0070 6900     		.ascii	"i\000"
 130              		.comm	cinfo_vars,36,4
 131 0072 0000     		.text
 132              		.align	2
 133              		.global	cinfo_init
 134              		.thumb
 135              		.thumb_func
 137              	cinfo_init:
 138              	.LFB0:
 139              		.file 1 "openapps/cinfo/cinfo.c"
   1:openapps/cinfo/cinfo.c **** /**
   2:openapps/cinfo/cinfo.c **** \brief A CoAP resource which indicates the board its running on.
   3:openapps/cinfo/cinfo.c **** */
   4:openapps/cinfo/cinfo.c **** 
   5:openapps/cinfo/cinfo.c **** #include "opendefs.h"
   6:openapps/cinfo/cinfo.c **** #include "cinfo.h"
   7:openapps/cinfo/cinfo.c **** #include "opencoap.h"
   8:openapps/cinfo/cinfo.c **** #include "openqueue.h"
   9:openapps/cinfo/cinfo.c **** #include "packetfunctions.h"
  10:openapps/cinfo/cinfo.c **** #include "openserial.h"
  11:openapps/cinfo/cinfo.c **** #include "openrandom.h"
  12:openapps/cinfo/cinfo.c **** #include "board.h"
  13:openapps/cinfo/cinfo.c **** #include "idmanager.h"
  14:openapps/cinfo/cinfo.c **** 
  15:openapps/cinfo/cinfo.c **** //=========================== defines =========================================
  16:openapps/cinfo/cinfo.c **** 
  17:openapps/cinfo/cinfo.c **** const uint8_t cinfo_path0[] = "i";
  18:openapps/cinfo/cinfo.c **** 
  19:openapps/cinfo/cinfo.c **** //=========================== variables =======================================
  20:openapps/cinfo/cinfo.c **** 
  21:openapps/cinfo/cinfo.c **** cinfo_vars_t cinfo_vars;
  22:openapps/cinfo/cinfo.c **** 
  23:openapps/cinfo/cinfo.c **** //=========================== prototypes ======================================
  24:openapps/cinfo/cinfo.c **** 
  25:openapps/cinfo/cinfo.c **** owerror_t     cinfo_receive(
  26:openapps/cinfo/cinfo.c ****    OpenQueueEntry_t* msg,
  27:openapps/cinfo/cinfo.c ****    coap_header_iht*  coap_header,
  28:openapps/cinfo/cinfo.c ****    coap_option_iht*  coap_options
  29:openapps/cinfo/cinfo.c **** );
  30:openapps/cinfo/cinfo.c **** void          cinfo_sendDone(
  31:openapps/cinfo/cinfo.c ****    OpenQueueEntry_t* msg,
  32:openapps/cinfo/cinfo.c ****    owerror_t error
  33:openapps/cinfo/cinfo.c **** );
  34:openapps/cinfo/cinfo.c **** 
  35:openapps/cinfo/cinfo.c **** //=========================== public ==========================================
  36:openapps/cinfo/cinfo.c **** 
  37:openapps/cinfo/cinfo.c **** /**
  38:openapps/cinfo/cinfo.c **** \brief Initialize this module.
  39:openapps/cinfo/cinfo.c **** */
  40:openapps/cinfo/cinfo.c **** void cinfo_init() {
 140              		.loc 1 40 0
 141              		.cfi_startproc
 142              		@ args = 0, pretend = 0, frame = 0
 143              		@ frame_needed = 1, uses_anonymous_args = 0
 144 0000 80B5     		push	{r7, lr}
 145              	.LCFI0:
 146              		.cfi_def_cfa_offset 8
 147              		.cfi_offset 7, -8
 148              		.cfi_offset 14, -4
 149 0002 00AF     		add	r7, sp, #0
 150              	.LCFI1:
 151              		.cfi_def_cfa_register 7
  41:openapps/cinfo/cinfo.c ****    // do not run if DAGroot
  42:openapps/cinfo/cinfo.c ****    if(idmanager_getIsDAGroot()==TRUE) return; 
 152              		.loc 1 42 0
 153 0004 FFF7FEFF 		bl	idmanager_getIsDAGroot
 154 0008 0346     		mov	r3, r0
 155 000a 002B     		cmp	r3, #0
 156 000c 3DD1     		bne	.L4
 157              	.L2:
  43:openapps/cinfo/cinfo.c ****    
  44:openapps/cinfo/cinfo.c ****    // prepare the resource descriptor for the /i path
  45:openapps/cinfo/cinfo.c ****    cinfo_vars.desc.path0len             = sizeof(cinfo_path0)-1;
 158              		.loc 1 45 0
 159 000e 40F20003 		movw	r3, #:lower16:cinfo_vars
 160 0012 C0F20003 		movt	r3, #:upper16:cinfo_vars
 161 0016 4FF00102 		mov	r2, #1
 162 001a 1A70     		strb	r2, [r3, #0]
  46:openapps/cinfo/cinfo.c ****    cinfo_vars.desc.path0val             = (uint8_t*)(&cinfo_path0);
 163              		.loc 1 46 0
 164 001c 40F20003 		movw	r3, #:lower16:cinfo_vars
 165 0020 C0F20003 		movt	r3, #:upper16:cinfo_vars
 166 0024 40F20002 		movw	r2, #:lower16:cinfo_path0
 167 0028 C0F20002 		movt	r2, #:upper16:cinfo_path0
 168 002c 5A60     		str	r2, [r3, #4]
  47:openapps/cinfo/cinfo.c ****    cinfo_vars.desc.path1len             = 0;
 169              		.loc 1 47 0
 170 002e 40F20003 		movw	r3, #:lower16:cinfo_vars
 171 0032 C0F20003 		movt	r3, #:upper16:cinfo_vars
 172 0036 4FF00002 		mov	r2, #0
 173 003a 1A72     		strb	r2, [r3, #8]
  48:openapps/cinfo/cinfo.c ****    cinfo_vars.desc.path1val             = NULL;
 174              		.loc 1 48 0
 175 003c 40F20003 		movw	r3, #:lower16:cinfo_vars
 176 0040 C0F20003 		movt	r3, #:upper16:cinfo_vars
 177 0044 4FF00002 		mov	r2, #0
 178 0048 DA60     		str	r2, [r3, #12]
  49:openapps/cinfo/cinfo.c ****    cinfo_vars.desc.componentID          = COMPONENT_CINFO;
 179              		.loc 1 49 0
 180 004a 40F20003 		movw	r3, #:lower16:cinfo_vars
 181 004e C0F20003 		movt	r3, #:upper16:cinfo_vars
 182 0052 4FF01C02 		mov	r2, #28
 183 0056 1A74     		strb	r2, [r3, #16]
  50:openapps/cinfo/cinfo.c ****    cinfo_vars.desc.callbackRx           = &cinfo_receive;
 184              		.loc 1 50 0
 185 0058 40F20003 		movw	r3, #:lower16:cinfo_vars
 186 005c C0F20003 		movt	r3, #:upper16:cinfo_vars
 187 0060 40F20002 		movw	r2, #:lower16:cinfo_receive
 188 0064 C0F20002 		movt	r2, #:upper16:cinfo_receive
 189 0068 9A61     		str	r2, [r3, #24]
  51:openapps/cinfo/cinfo.c ****    cinfo_vars.desc.callbackSendDone     = &cinfo_sendDone;
 190              		.loc 1 51 0
 191 006a 40F20003 		movw	r3, #:lower16:cinfo_vars
 192 006e C0F20003 		movt	r3, #:upper16:cinfo_vars
 193 0072 40F20002 		movw	r2, #:lower16:cinfo_sendDone
 194 0076 C0F20002 		movt	r2, #:upper16:cinfo_sendDone
 195 007a DA61     		str	r2, [r3, #28]
  52:openapps/cinfo/cinfo.c ****    
  53:openapps/cinfo/cinfo.c ****    // register with the CoAP module
  54:openapps/cinfo/cinfo.c ****    opencoap_register(&cinfo_vars.desc);
 196              		.loc 1 54 0
 197 007c 40F20000 		movw	r0, #:lower16:cinfo_vars
 198 0080 C0F20000 		movt	r0, #:upper16:cinfo_vars
 199 0084 FFF7FEFF 		bl	opencoap_register
 200 0088 00E0     		b	.L1
 201              	.L4:
  42:openapps/cinfo/cinfo.c ****    if(idmanager_getIsDAGroot()==TRUE) return; 
 202              		.loc 1 42 0
 203 008a 00BF     		nop
 204              	.L1:
  55:openapps/cinfo/cinfo.c **** }
 205              		.loc 1 55 0
 206 008c 80BD     		pop	{r7, pc}
 207              		.cfi_endproc
 208              	.LFE0:
 210 008e 00BF     		.align	2
 211              		.global	cinfo_receive
 212              		.thumb
 213              		.thumb_func
 215              	cinfo_receive:
 216              	.LFB1:
  56:openapps/cinfo/cinfo.c **** 
  57:openapps/cinfo/cinfo.c **** //=========================== private =========================================
  58:openapps/cinfo/cinfo.c **** 
  59:openapps/cinfo/cinfo.c **** /**
  60:openapps/cinfo/cinfo.c **** \brief Called when a CoAP message is received for this resource.
  61:openapps/cinfo/cinfo.c **** 
  62:openapps/cinfo/cinfo.c **** \param[in] msg          The received message. CoAP header and options already
  63:openapps/cinfo/cinfo.c ****    parsed.
  64:openapps/cinfo/cinfo.c **** \param[in] coap_header  The CoAP header contained in the message.
  65:openapps/cinfo/cinfo.c **** \param[in] coap_options The CoAP options contained in the message.
  66:openapps/cinfo/cinfo.c **** 
  67:openapps/cinfo/cinfo.c **** \return Whether the response is prepared successfully.
  68:openapps/cinfo/cinfo.c **** */
  69:openapps/cinfo/cinfo.c **** owerror_t cinfo_receive(
  70:openapps/cinfo/cinfo.c ****       OpenQueueEntry_t* msg,
  71:openapps/cinfo/cinfo.c ****       coap_header_iht* coap_header,
  72:openapps/cinfo/cinfo.c ****       coap_option_iht* coap_options
  73:openapps/cinfo/cinfo.c ****    ) {
 217              		.loc 1 73 0
 218              		.cfi_startproc
 219              		@ args = 0, pretend = 0, frame = 24
 220              		@ frame_needed = 1, uses_anonymous_args = 0
 221 0090 80B5     		push	{r7, lr}
 222              	.LCFI2:
 223              		.cfi_def_cfa_offset 8
 224              		.cfi_offset 7, -8
 225              		.cfi_offset 14, -4
 226 0092 86B0     		sub	sp, sp, #24
 227              	.LCFI3:
 228              		.cfi_def_cfa_offset 32
 229 0094 00AF     		add	r7, sp, #0
 230              	.LCFI4:
 231              		.cfi_def_cfa_register 7
 232 0096 F860     		str	r0, [r7, #12]
 233 0098 B960     		str	r1, [r7, #8]
 234 009a 7A60     		str	r2, [r7, #4]
  74:openapps/cinfo/cinfo.c ****    
  75:openapps/cinfo/cinfo.c ****    owerror_t outcome;
  76:openapps/cinfo/cinfo.c ****    
  77:openapps/cinfo/cinfo.c ****    switch (coap_header->Code) {
 235              		.loc 1 77 0
 236 009c BB68     		ldr	r3, [r7, #8]
 237 009e DB78     		ldrb	r3, [r3, #3]	@ zero_extendqisi2
 238 00a0 012B     		cmp	r3, #1
 239 00a2 40F09C80 		bne	.L10
 240              	.L7:
  78:openapps/cinfo/cinfo.c ****       case COAP_CODE_REQ_GET:
  79:openapps/cinfo/cinfo.c ****          
  80:openapps/cinfo/cinfo.c ****          //=== reset packet payload (we will reuse this packetBuffer)
  81:openapps/cinfo/cinfo.c ****          msg->payload                     = &(msg->packet[127]);
 241              		.loc 1 81 0
 242 00a6 FB68     		ldr	r3, [r7, #12]
 243 00a8 03F1EA02 		add	r2, r3, #234
 244 00ac FB68     		ldr	r3, [r7, #12]
 245 00ae 5A60     		str	r2, [r3, #4]
  82:openapps/cinfo/cinfo.c ****          msg->length                      = 0;
 246              		.loc 1 82 0
 247 00b0 FB68     		ldr	r3, [r7, #12]
 248 00b2 4FF00002 		mov	r2, #0
 249 00b6 1A72     		strb	r2, [r3, #8]
  83:openapps/cinfo/cinfo.c ****          
  84:openapps/cinfo/cinfo.c ****          //=== prepare  CoAP response
  85:openapps/cinfo/cinfo.c ****          
  86:openapps/cinfo/cinfo.c ****          // radio name
  87:openapps/cinfo/cinfo.c ****          packetfunctions_reserveHeaderSize(msg,sizeof(infoRadioName)-1);
 250              		.loc 1 87 0
 251 00b8 F868     		ldr	r0, [r7, #12]
 252 00ba 4FF00A01 		mov	r1, #10
 253 00be FFF7FEFF 		bl	packetfunctions_reserveHeaderSize
  88:openapps/cinfo/cinfo.c ****          memcpy(&msg->payload[0],&infoRadioName,sizeof(infoRadioName)-1);
 254              		.loc 1 88 0
 255 00c2 FB68     		ldr	r3, [r7, #12]
 256 00c4 5B68     		ldr	r3, [r3, #4]
 257 00c6 1846     		mov	r0, r3
 258 00c8 40F20001 		movw	r1, #:lower16:infoRadioName
 259 00cc C0F20001 		movt	r1, #:upper16:infoRadioName
 260 00d0 4FF00A02 		mov	r2, #10
 261 00d4 FFF7FEFF 		bl	memcpy
  89:openapps/cinfo/cinfo.c ****          
  90:openapps/cinfo/cinfo.c ****          // uC name
  91:openapps/cinfo/cinfo.c ****          packetfunctions_reserveHeaderSize(msg,1);
 262              		.loc 1 91 0
 263 00d8 F868     		ldr	r0, [r7, #12]
 264 00da 4FF00101 		mov	r1, #1
 265 00de FFF7FEFF 		bl	packetfunctions_reserveHeaderSize
  92:openapps/cinfo/cinfo.c ****          msg->payload[0] = '\n';
 266              		.loc 1 92 0
 267 00e2 FB68     		ldr	r3, [r7, #12]
 268 00e4 5B68     		ldr	r3, [r3, #4]
 269 00e6 4FF00A02 		mov	r2, #10
 270 00ea 1A70     		strb	r2, [r3, #0]
  93:openapps/cinfo/cinfo.c ****          packetfunctions_reserveHeaderSize(msg,sizeof(infouCName)-1);
 271              		.loc 1 93 0
 272 00ec F868     		ldr	r0, [r7, #12]
 273 00ee 4FF00601 		mov	r1, #6
 274 00f2 FFF7FEFF 		bl	packetfunctions_reserveHeaderSize
  94:openapps/cinfo/cinfo.c ****          memcpy(&msg->payload[0],&infouCName,sizeof(infouCName)-1);
 275              		.loc 1 94 0
 276 00f6 FB68     		ldr	r3, [r7, #12]
 277 00f8 5B68     		ldr	r3, [r3, #4]
 278 00fa 1846     		mov	r0, r3
 279 00fc 40F20001 		movw	r1, #:lower16:infouCName
 280 0100 C0F20001 		movt	r1, #:upper16:infouCName
 281 0104 4FF00602 		mov	r2, #6
 282 0108 FFF7FEFF 		bl	memcpy
  95:openapps/cinfo/cinfo.c ****          
  96:openapps/cinfo/cinfo.c ****          // board name
  97:openapps/cinfo/cinfo.c ****          packetfunctions_reserveHeaderSize(msg,1);
 283              		.loc 1 97 0
 284 010c F868     		ldr	r0, [r7, #12]
 285 010e 4FF00101 		mov	r1, #1
 286 0112 FFF7FEFF 		bl	packetfunctions_reserveHeaderSize
  98:openapps/cinfo/cinfo.c ****          msg->payload[0] = '\n';
 287              		.loc 1 98 0
 288 0116 FB68     		ldr	r3, [r7, #12]
 289 0118 5B68     		ldr	r3, [r3, #4]
 290 011a 4FF00A02 		mov	r2, #10
 291 011e 1A70     		strb	r2, [r3, #0]
  99:openapps/cinfo/cinfo.c ****          packetfunctions_reserveHeaderSize(msg,sizeof(infoBoardname)-1);
 292              		.loc 1 99 0
 293 0120 F868     		ldr	r0, [r7, #12]
 294 0122 4FF00601 		mov	r1, #6
 295 0126 FFF7FEFF 		bl	packetfunctions_reserveHeaderSize
 100:openapps/cinfo/cinfo.c ****          memcpy(&msg->payload[0],&infoBoardname,sizeof(infoBoardname)-1);
 296              		.loc 1 100 0
 297 012a FB68     		ldr	r3, [r7, #12]
 298 012c 5B68     		ldr	r3, [r3, #4]
 299 012e 1846     		mov	r0, r3
 300 0130 40F20001 		movw	r1, #:lower16:infoBoardname
 301 0134 C0F20001 		movt	r1, #:upper16:infoBoardname
 302 0138 4FF00602 		mov	r2, #6
 303 013c FFF7FEFF 		bl	memcpy
 101:openapps/cinfo/cinfo.c ****          
 102:openapps/cinfo/cinfo.c ****          // stack name and version
 103:openapps/cinfo/cinfo.c ****          packetfunctions_reserveHeaderSize(msg,1);
 304              		.loc 1 103 0
 305 0140 F868     		ldr	r0, [r7, #12]
 306 0142 4FF00101 		mov	r1, #1
 307 0146 FFF7FEFF 		bl	packetfunctions_reserveHeaderSize
 104:openapps/cinfo/cinfo.c ****          msg->payload[0] = '\n';
 308              		.loc 1 104 0
 309 014a FB68     		ldr	r3, [r7, #12]
 310 014c 5B68     		ldr	r3, [r3, #4]
 311 014e 4FF00A02 		mov	r2, #10
 312 0152 1A70     		strb	r2, [r3, #0]
 105:openapps/cinfo/cinfo.c ****          packetfunctions_reserveHeaderSize(msg,sizeof(infoStackName)-1+5);
 313              		.loc 1 105 0
 314 0154 F868     		ldr	r0, [r7, #12]
 315 0156 4FF00D01 		mov	r1, #13
 316 015a FFF7FEFF 		bl	packetfunctions_reserveHeaderSize
 106:openapps/cinfo/cinfo.c ****          memcpy(&msg->payload[0],&infoStackName,sizeof(infoStackName)-1);
 317              		.loc 1 106 0
 318 015e FB68     		ldr	r3, [r7, #12]
 319 0160 5B68     		ldr	r3, [r3, #4]
 320 0162 1846     		mov	r0, r3
 321 0164 40F20001 		movw	r1, #:lower16:infoStackName
 322 0168 C0F20001 		movt	r1, #:upper16:infoStackName
 323 016c 4FF00802 		mov	r2, #8
 324 0170 FFF7FEFF 		bl	memcpy
 107:openapps/cinfo/cinfo.c ****          msg->payload[sizeof(infoStackName)-1+5-5] = '0'+OPENWSN_VERSION_MAJOR;
 325              		.loc 1 107 0
 326 0174 FB68     		ldr	r3, [r7, #12]
 327 0176 5B68     		ldr	r3, [r3, #4]
 328 0178 03F10803 		add	r3, r3, #8
 329 017c 4FF03102 		mov	r2, #49
 330 0180 1A70     		strb	r2, [r3, #0]
 108:openapps/cinfo/cinfo.c ****          msg->payload[sizeof(infoStackName)-1+5-4] = '.';
 331              		.loc 1 108 0
 332 0182 FB68     		ldr	r3, [r7, #12]
 333 0184 5B68     		ldr	r3, [r3, #4]
 334 0186 03F10903 		add	r3, r3, #9
 335 018a 4FF02E02 		mov	r2, #46
 336 018e 1A70     		strb	r2, [r3, #0]
 109:openapps/cinfo/cinfo.c ****          msg->payload[sizeof(infoStackName)-1+5-3] = '0'+OPENWSN_VERSION_MINOR;
 337              		.loc 1 109 0
 338 0190 FB68     		ldr	r3, [r7, #12]
 339 0192 5B68     		ldr	r3, [r3, #4]
 340 0194 03F10A03 		add	r3, r3, #10
 341 0198 4FF03902 		mov	r2, #57
 342 019c 1A70     		strb	r2, [r3, #0]
 110:openapps/cinfo/cinfo.c ****          msg->payload[sizeof(infoStackName)-1+5-2] = '.';
 343              		.loc 1 110 0
 344 019e FB68     		ldr	r3, [r7, #12]
 345 01a0 5B68     		ldr	r3, [r3, #4]
 346 01a2 03F10B03 		add	r3, r3, #11
 347 01a6 4FF02E02 		mov	r2, #46
 348 01aa 1A70     		strb	r2, [r3, #0]
 111:openapps/cinfo/cinfo.c ****          msg->payload[sizeof(infoStackName)-1+5-1] = '0'+OPENWSN_VERSION_PATCH;
 349              		.loc 1 111 0
 350 01ac FB68     		ldr	r3, [r7, #12]
 351 01ae 5B68     		ldr	r3, [r3, #4]
 352 01b0 03F10C03 		add	r3, r3, #12
 353 01b4 4FF03002 		mov	r2, #48
 354 01b8 1A70     		strb	r2, [r3, #0]
 112:openapps/cinfo/cinfo.c ****          
 113:openapps/cinfo/cinfo.c ****          // payload marker
 114:openapps/cinfo/cinfo.c ****          packetfunctions_reserveHeaderSize(msg,1);
 355              		.loc 1 114 0
 356 01ba F868     		ldr	r0, [r7, #12]
 357 01bc 4FF00101 		mov	r1, #1
 358 01c0 FFF7FEFF 		bl	packetfunctions_reserveHeaderSize
 115:openapps/cinfo/cinfo.c ****          msg->payload[0] = COAP_PAYLOAD_MARKER;
 359              		.loc 1 115 0
 360 01c4 FB68     		ldr	r3, [r7, #12]
 361 01c6 5B68     		ldr	r3, [r3, #4]
 362 01c8 4FF0FF02 		mov	r2, #255
 363 01cc 1A70     		strb	r2, [r3, #0]
 116:openapps/cinfo/cinfo.c ****          
 117:openapps/cinfo/cinfo.c ****          // set the CoAP header
 118:openapps/cinfo/cinfo.c ****          coap_header->Code                = COAP_CODE_RESP_CONTENT;
 364              		.loc 1 118 0
 365 01ce BB68     		ldr	r3, [r7, #8]
 366 01d0 4FF04502 		mov	r2, #69
 367 01d4 DA70     		strb	r2, [r3, #3]
 119:openapps/cinfo/cinfo.c ****          
 120:openapps/cinfo/cinfo.c ****          outcome                          = E_SUCCESS;
 368              		.loc 1 120 0
 369 01d6 4FF00003 		mov	r3, #0
 370 01da FB75     		strb	r3, [r7, #23]
 121:openapps/cinfo/cinfo.c ****          break;
 371              		.loc 1 121 0
 372 01dc 02E0     		b	.L8
 373              	.L10:
 122:openapps/cinfo/cinfo.c ****       default:
 123:openapps/cinfo/cinfo.c ****          // return an error message
 124:openapps/cinfo/cinfo.c ****          outcome = E_FAIL;
 374              		.loc 1 124 0
 375 01de 4FF00103 		mov	r3, #1
 376 01e2 FB75     		strb	r3, [r7, #23]
 377              	.L8:
 125:openapps/cinfo/cinfo.c ****    }
 126:openapps/cinfo/cinfo.c ****    
 127:openapps/cinfo/cinfo.c ****    return outcome;
 378              		.loc 1 127 0
 379 01e4 FB7D     		ldrb	r3, [r7, #23]	@ zero_extendqisi2
 128:openapps/cinfo/cinfo.c **** }
 380              		.loc 1 128 0
 381 01e6 1846     		mov	r0, r3
 382 01e8 07F11807 		add	r7, r7, #24
 383 01ec BD46     		mov	sp, r7
 384 01ee 80BD     		pop	{r7, pc}
 385              		.cfi_endproc
 386              	.LFE1:
 388              		.align	2
 389              		.global	cinfo_sendDone
 390              		.thumb
 391              		.thumb_func
 393              	cinfo_sendDone:
 394              	.LFB2:
 129:openapps/cinfo/cinfo.c **** 
 130:openapps/cinfo/cinfo.c **** /**
 131:openapps/cinfo/cinfo.c **** \brief The stack indicates that the packet was sent.
 132:openapps/cinfo/cinfo.c **** 
 133:openapps/cinfo/cinfo.c **** \param[in] msg The CoAP message just sent.
 134:openapps/cinfo/cinfo.c **** \param[in] error The outcome of sending it.
 135:openapps/cinfo/cinfo.c **** */
 136:openapps/cinfo/cinfo.c **** void cinfo_sendDone(OpenQueueEntry_t* msg, owerror_t error) {
 395              		.loc 1 136 0
 396              		.cfi_startproc
 397              		@ args = 0, pretend = 0, frame = 8
 398              		@ frame_needed = 1, uses_anonymous_args = 0
 399 01f0 80B5     		push	{r7, lr}
 400              	.LCFI5:
 401              		.cfi_def_cfa_offset 8
 402              		.cfi_offset 7, -8
 403              		.cfi_offset 14, -4
 404 01f2 82B0     		sub	sp, sp, #8
 405              	.LCFI6:
 406              		.cfi_def_cfa_offset 16
 407 01f4 00AF     		add	r7, sp, #0
 408              	.LCFI7:
 409              		.cfi_def_cfa_register 7
 410 01f6 7860     		str	r0, [r7, #4]
 411 01f8 0B46     		mov	r3, r1
 412 01fa FB70     		strb	r3, [r7, #3]
 137:openapps/cinfo/cinfo.c ****    openqueue_freePacketBuffer(msg);
 413              		.loc 1 137 0
 414 01fc 7868     		ldr	r0, [r7, #4]
 415 01fe FFF7FEFF 		bl	openqueue_freePacketBuffer
 138:openapps/cinfo/cinfo.c **** }...
 416              		.loc 1 138 0
 417 0202 07F10807 		add	r7, r7, #8
 418 0206 BD46     		mov	sp, r7
 419 0208 80BD     		pop	{r7, pc}
 420              		.cfi_endproc
 421              	.LFE2:
 423              	.Letext0:
 424              		.file 2 "/opt/gcc-arm-none-eabi-4_7-2013q3/bin/../lib/gcc/arm-none-eabi/4.7.4/../../../../arm-none
 425              		.file 3 "inc/opendefs.h"
 426              		.file 4 "openstack/04-TRAN/opencoap.h"
 427              		.file 5 "openapps/cinfo/cinfo.h"
 428              		.file 6 "bsp/boards/OpenMote-CC2538/board_info.h"