   1              		.syntax unified
   2              		.cpu cortex-m3
   3              		.fpu softvfp
   4              		.eabi_attribute 20, 1
   5              		.eabi_attribute 21, 1
   6              		.eabi_attribute 23, 3
   7              		.eabi_attribute 24, 1
   8              		.eabi_attribute 25, 1
   9              		.eabi_attribute 26, 1
  10              		.eabi_attribute 30, 6
  11              		.eabi_attribute 34, 1
  12              		.eabi_attribute 18, 4
  13              		.thumb
  14              		.file	"icmpv6.c"
  15              		.text
  16              	.Ltext0:
  17              		.cfi_sections	.debug_frame
  18              		.section	.rodata
  19              		.align	2
  22              	rreg_uriquery:
  23 0000 683D7563 		.ascii	"h=ucb\000"
  23      6200
  24 0006 0000     		.align	2
  27              	infoBoardname:
  28 0008 43433235 		.ascii	"CC2538\000"
  28      333800
  29 000f 00       		.align	2
  32              	infouCName:
  33 0010 43433235 		.ascii	"CC2538\000"
  33      333800
  34 0017 00       		.align	2
  37              	infoRadioName:
  38 0018 43433235 		.ascii	"CC2538 SoC\000"
  38      33382053 
  38      6F4300
  39 0023 00       		.align	2
  42              	infoStackName:
  43 0024 4F70656E 		.ascii	"OpenWSN \000"
  43      57534E20 
  43      00
  44 002d 000000   		.align	2
  47              	all_routers_multicast:
  48 0030 FF       		.byte	-1
  49 0031 02       		.byte	2
  50 0032 00       		.byte	0
  51 0033 00       		.byte	0
  52 0034 00       		.byte	0
  53 0035 00       		.byte	0
  54 0036 00       		.byte	0
  55 0037 00       		.byte	0
  56 0038 00       		.byte	0
  57 0039 00       		.byte	0
  58 003a 00       		.byte	0
  59 003b 00       		.byte	0
  60 003c 00       		.byte	0
  61 003d 00       		.byte	0
  62 003e 00       		.byte	0
  63 003f 02       		.byte	2
  64              		.text
  65              		.align	2
  66              		.global	icmpv6_init
  67              		.thumb
  68              		.thumb_func
  70              	icmpv6_init:
  71              	.LFB0:
  72              		.file 1 "openstack/03b-IPv6/icmpv6.c"
   1:openstack/03b-IPv6/icmpv6.c **** #include "opendefs.h"
   2:openstack/03b-IPv6/icmpv6.c **** #include "icmpv6.h"
   3:openstack/03b-IPv6/icmpv6.c **** #include "icmpv6echo.h"
   4:openstack/03b-IPv6/icmpv6.c **** #include "icmpv6rpl.h"
   5:openstack/03b-IPv6/icmpv6.c **** #include "forwarding.h"
   6:openstack/03b-IPv6/icmpv6.c **** #include "openqueue.h"
   7:openstack/03b-IPv6/icmpv6.c **** #include "openserial.h"
   8:openstack/03b-IPv6/icmpv6.c **** 
   9:openstack/03b-IPv6/icmpv6.c **** //=========================== variables =======================================
  10:openstack/03b-IPv6/icmpv6.c **** 
  11:openstack/03b-IPv6/icmpv6.c **** //=========================== prototypes ======================================
  12:openstack/03b-IPv6/icmpv6.c **** 
  13:openstack/03b-IPv6/icmpv6.c **** //=========================== public ==========================================
  14:openstack/03b-IPv6/icmpv6.c **** 
  15:openstack/03b-IPv6/icmpv6.c **** void icmpv6_init() {
  73              		.loc 1 15 0
  74              		.cfi_startproc
  75              		@ args = 0, pretend = 0, frame = 0
  76              		@ frame_needed = 1, uses_anonymous_args = 0
  77              		@ link register save eliminated.
  78 0000 80B4     		push	{r7}
  79              	.LCFI0:
  80              		.cfi_def_cfa_offset 4
  81              		.cfi_offset 7, -4
  82 0002 00AF     		add	r7, sp, #0
  83              	.LCFI1:
  84              		.cfi_def_cfa_register 7
  16:openstack/03b-IPv6/icmpv6.c **** }
  85              		.loc 1 16 0
  86 0004 BD46     		mov	sp, r7
  87 0006 80BC     		pop	{r7}
  88 0008 7047     		bx	lr
  89              		.cfi_endproc
  90              	.LFE0:
  92 000a 00BF     		.align	2
  93              		.global	icmpv6_send
  94              		.thumb
  95              		.thumb_func
  97              	icmpv6_send:
  98              	.LFB1:
  17:openstack/03b-IPv6/icmpv6.c **** 
  18:openstack/03b-IPv6/icmpv6.c **** owerror_t icmpv6_send(OpenQueueEntry_t* msg) {
  99              		.loc 1 18 0
 100              		.cfi_startproc
 101              		@ args = 0, pretend = 0, frame = 8
 102              		@ frame_needed = 1, uses_anonymous_args = 0
 103 000c 80B5     		push	{r7, lr}
 104              	.LCFI2:
 105              		.cfi_def_cfa_offset 8
 106              		.cfi_offset 7, -8
 107              		.cfi_offset 14, -4
 108 000e 82B0     		sub	sp, sp, #8
 109              	.LCFI3:
 110              		.cfi_def_cfa_offset 16
 111 0010 00AF     		add	r7, sp, #0
 112              	.LCFI4:
 113              		.cfi_def_cfa_register 7
 114 0012 7860     		str	r0, [r7, #4]
  19:openstack/03b-IPv6/icmpv6.c ****    msg->owner       = COMPONENT_ICMPv6;
 115              		.loc 1 19 0
 116 0014 7B68     		ldr	r3, [r7, #4]
 117 0016 4FF01302 		mov	r2, #19
 118 001a 5A70     		strb	r2, [r3, #1]
  20:openstack/03b-IPv6/icmpv6.c ****    msg->l4_protocol = IANA_ICMPv6;
 119              		.loc 1 20 0
 120 001c 7B68     		ldr	r3, [r7, #4]
 121 001e 4FF03A02 		mov	r2, #58
 122 0022 5A72     		strb	r2, [r3, #9]
  21:openstack/03b-IPv6/icmpv6.c ****    return forwarding_send(msg);
 123              		.loc 1 21 0
 124 0024 7868     		ldr	r0, [r7, #4]
 125 0026 FFF7FEFF 		bl	forwarding_send
 126 002a 0346     		mov	r3, r0
  22:openstack/03b-IPv6/icmpv6.c **** }
 127              		.loc 1 22 0
 128 002c 1846     		mov	r0, r3
 129 002e 07F10807 		add	r7, r7, #8
 130 0032 BD46     		mov	sp, r7
 131 0034 80BD     		pop	{r7, pc}
 132              		.cfi_endproc
 133              	.LFE1:
 135 0036 00BF     		.align	2
 136              		.global	icmpv6_sendDone
 137              		.thumb
 138              		.thumb_func
 140              	icmpv6_sendDone:
 141              	.LFB2:
  23:openstack/03b-IPv6/icmpv6.c **** 
  24:openstack/03b-IPv6/icmpv6.c **** void icmpv6_sendDone(OpenQueueEntry_t* msg, owerror_t error) {
 142              		.loc 1 24 0
 143              		.cfi_startproc
 144              		@ args = 0, pretend = 0, frame = 8
 145              		@ frame_needed = 1, uses_anonymous_args = 0
 146 0038 80B5     		push	{r7, lr}
 147              	.LCFI5:
 148              		.cfi_def_cfa_offset 8
 149              		.cfi_offset 7, -8
 150              		.cfi_offset 14, -4
 151 003a 82B0     		sub	sp, sp, #8
 152              	.LCFI6:
 153              		.cfi_def_cfa_offset 16
 154 003c 00AF     		add	r7, sp, #0
 155              	.LCFI7:
 156              		.cfi_def_cfa_register 7
 157 003e 7860     		str	r0, [r7, #4]
 158 0040 0B46     		mov	r3, r1
 159 0042 FB70     		strb	r3, [r7, #3]
  25:openstack/03b-IPv6/icmpv6.c ****    msg->owner = COMPONENT_ICMPv6;
 160              		.loc 1 25 0
 161 0044 7B68     		ldr	r3, [r7, #4]
 162 0046 4FF01302 		mov	r2, #19
 163 004a 5A70     		strb	r2, [r3, #1]
  26:openstack/03b-IPv6/icmpv6.c ****    switch (msg->l4_sourcePortORicmpv6Type) {
 164              		.loc 1 26 0
 165 004c 7B68     		ldr	r3, [r7, #4]
 166 004e 9B89     		ldrh	r3, [r3, #12]
 167 0050 802B     		cmp	r3, #128
 168 0052 10DB     		blt	.L5
 169 0054 812B     		cmp	r3, #129
 170 0056 02DD     		ble	.L6
 171 0058 9B2B     		cmp	r3, #155
 172 005a 06D0     		beq	.L7
 173 005c 0BE0     		b	.L5
 174              	.L6:
  27:openstack/03b-IPv6/icmpv6.c ****       case IANA_ICMPv6_ECHO_REQUEST:
  28:openstack/03b-IPv6/icmpv6.c ****       case IANA_ICMPv6_ECHO_REPLY:
  29:openstack/03b-IPv6/icmpv6.c ****          icmpv6echo_sendDone(msg, error);
 175              		.loc 1 29 0
 176 005e FB78     		ldrb	r3, [r7, #3]	@ zero_extendqisi2
 177 0060 7868     		ldr	r0, [r7, #4]
 178 0062 1946     		mov	r1, r3
 179 0064 FFF7FEFF 		bl	icmpv6echo_sendDone
  30:openstack/03b-IPv6/icmpv6.c ****          break;
 180              		.loc 1 30 0
 181 0068 14E0     		b	.L4
 182              	.L7:
  31:openstack/03b-IPv6/icmpv6.c ****       case IANA_ICMPv6_RPL:
  32:openstack/03b-IPv6/icmpv6.c ****          icmpv6rpl_sendDone(msg, error);
 183              		.loc 1 32 0
 184 006a FB78     		ldrb	r3, [r7, #3]	@ zero_extendqisi2
 185 006c 7868     		ldr	r0, [r7, #4]
 186 006e 1946     		mov	r1, r3
 187 0070 FFF7FEFF 		bl	icmpv6rpl_sendDone
  33:openstack/03b-IPv6/icmpv6.c ****          break;
 188              		.loc 1 33 0
 189 0074 0EE0     		b	.L4
 190              	.L5:
  34:openstack/03b-IPv6/icmpv6.c ****       default:
  35:openstack/03b-IPv6/icmpv6.c ****          openserial_printCritical(COMPONENT_ICMPv6,ERR_UNSUPPORTED_ICMPV6_TYPE,
  36:openstack/03b-IPv6/icmpv6.c ****                                (errorparameter_t)msg->l4_sourcePortORicmpv6Type,
 191              		.loc 1 36 0
 192 0076 7B68     		ldr	r3, [r7, #4]
  35:openstack/03b-IPv6/icmpv6.c ****          openserial_printCritical(COMPONENT_ICMPv6,ERR_UNSUPPORTED_ICMPV6_TYPE,
 193              		.loc 1 35 0
 194 0078 9B89     		ldrh	r3, [r3, #12]
 195 007a 4FF01300 		mov	r0, #19
 196 007e 4FF00B01 		mov	r1, #11
 197 0082 1A46     		mov	r2, r3
 198 0084 4FF00003 		mov	r3, #0
 199 0088 FFF7FEFF 		bl	openserial_printCritical
  37:openstack/03b-IPv6/icmpv6.c ****                                (errorparameter_t)0);
  38:openstack/03b-IPv6/icmpv6.c ****          // free the corresponding packet buffer
  39:openstack/03b-IPv6/icmpv6.c ****          openqueue_freePacketBuffer(msg);
 200              		.loc 1 39 0
 201 008c 7868     		ldr	r0, [r7, #4]
 202 008e FFF7FEFF 		bl	openqueue_freePacketBuffer
  40:openstack/03b-IPv6/icmpv6.c ****          break;
 203              		.loc 1 40 0
 204 0092 00BF     		nop
 205              	.L4:
  41:openstack/03b-IPv6/icmpv6.c ****    }
  42:openstack/03b-IPv6/icmpv6.c **** }
 206              		.loc 1 42 0
 207 0094 07F10807 		add	r7, r7, #8
 208 0098 BD46     		mov	sp, r7
 209 009a 80BD     		pop	{r7, pc}
 210              		.cfi_endproc
 211              	.LFE2:
 213              		.align	2
 214              		.global	icmpv6_receive
 215              		.thumb
 216              		.thumb_func
 218              	icmpv6_receive:
 219              	.LFB3:
  43:openstack/03b-IPv6/icmpv6.c **** 
  44:openstack/03b-IPv6/icmpv6.c **** void icmpv6_receive(OpenQueueEntry_t* msg) {
 220              		.loc 1 44 0
 221              		.cfi_startproc
 222              		@ args = 0, pretend = 0, frame = 8
 223              		@ frame_needed = 1, uses_anonymous_args = 0
 224 009c 80B5     		push	{r7, lr}
 225              	.LCFI8:
 226              		.cfi_def_cfa_offset 8
 227              		.cfi_offset 7, -8
 228              		.cfi_offset 14, -4
 229 009e 82B0     		sub	sp, sp, #8
 230              	.LCFI9:
 231              		.cfi_def_cfa_offset 16
 232 00a0 00AF     		add	r7, sp, #0
 233              	.LCFI10:
 234              		.cfi_def_cfa_register 7
 235 00a2 7860     		str	r0, [r7, #4]
  45:openstack/03b-IPv6/icmpv6.c ****    msg->owner = COMPONENT_ICMPv6;
 236              		.loc 1 45 0
 237 00a4 7B68     		ldr	r3, [r7, #4]
 238 00a6 4FF01302 		mov	r2, #19
 239 00aa 5A70     		strb	r2, [r3, #1]
  46:openstack/03b-IPv6/icmpv6.c ****    msg->l4_sourcePortORicmpv6Type = ((ICMPv6_ht*)(msg->payload))->type;
 240              		.loc 1 46 0
 241 00ac 7B68     		ldr	r3, [r7, #4]
 242 00ae 5B68     		ldr	r3, [r3, #4]
 243 00b0 1B78     		ldrb	r3, [r3, #0]	@ zero_extendqisi2
 244 00b2 1A46     		mov	r2, r3
 245 00b4 7B68     		ldr	r3, [r7, #4]
 246 00b6 9A81     		strh	r2, [r3, #12]	@ movhi
  47:openstack/03b-IPv6/icmpv6.c ****    switch (msg->l4_sourcePortORicmpv6Type) {
 247              		.loc 1 47 0
 248 00b8 7B68     		ldr	r3, [r7, #4]
 249 00ba 9B89     		ldrh	r3, [r3, #12]
 250 00bc 802B     		cmp	r3, #128
 251 00be 0CDB     		blt	.L10
 252 00c0 812B     		cmp	r3, #129
 253 00c2 02DD     		ble	.L11
 254 00c4 9B2B     		cmp	r3, #155
 255 00c6 04D0     		beq	.L12
 256 00c8 07E0     		b	.L10
 257              	.L11:
  48:openstack/03b-IPv6/icmpv6.c ****       case IANA_ICMPv6_ECHO_REQUEST:
  49:openstack/03b-IPv6/icmpv6.c ****       case IANA_ICMPv6_ECHO_REPLY:
  50:openstack/03b-IPv6/icmpv6.c ****          icmpv6echo_receive(msg);
 258              		.loc 1 50 0
 259 00ca 7868     		ldr	r0, [r7, #4]
 260 00cc FFF7FEFF 		bl	icmpv6echo_receive
  51:openstack/03b-IPv6/icmpv6.c ****          break;
 261              		.loc 1 51 0
 262 00d0 12E0     		b	.L9
 263              	.L12:
  52:openstack/03b-IPv6/icmpv6.c ****       case IANA_ICMPv6_RPL:
  53:openstack/03b-IPv6/icmpv6.c ****          icmpv6rpl_receive(msg);
 264              		.loc 1 53 0
 265 00d2 7868     		ldr	r0, [r7, #4]
 266 00d4 FFF7FEFF 		bl	icmpv6rpl_receive
  54:openstack/03b-IPv6/icmpv6.c ****          break;
 267              		.loc 1 54 0
 268 00d8 0EE0     		b	.L9
 269              	.L10:
  55:openstack/03b-IPv6/icmpv6.c ****       default:
  56:openstack/03b-IPv6/icmpv6.c ****          openserial_printError(COMPONENT_ICMPv6,ERR_UNSUPPORTED_ICMPV6_TYPE,
  57:openstack/03b-IPv6/icmpv6.c ****                                (errorparameter_t)msg->l4_sourcePortORicmpv6Type,
 270              		.loc 1 57 0
 271 00da 7B68     		ldr	r3, [r7, #4]
  56:openstack/03b-IPv6/icmpv6.c ****          openserial_printError(COMPONENT_ICMPv6,ERR_UNSUPPORTED_ICMPV6_TYPE,
 272              		.loc 1 56 0
 273 00dc 9B89     		ldrh	r3, [r3, #12]
 274 00de 4FF01300 		mov	r0, #19
 275 00e2 4FF00B01 		mov	r1, #11
 276 00e6 1A46     		mov	r2, r3
 277 00e8 4FF00103 		mov	r3, #1
 278 00ec FFF7FEFF 		bl	openserial_printError
  58:openstack/03b-IPv6/icmpv6.c ****                                (errorparameter_t)1);
  59:openstack/03b-IPv6/icmpv6.c ****          // free the corresponding packet buffer
  60:openstack/03b-IPv6/icmpv6.c ****          openqueue_freePacketBuffer(msg);
 279              		.loc 1 60 0
 280 00f0 7868     		ldr	r0, [r7, #4]
 281 00f2 FFF7FEFF 		bl	openqueue_freePacketBuffer
  61:openstack/03b-IPv6/icmpv6.c ****          break;
 282              		.loc 1 61 0
 283 00f6 00BF     		nop
 284              	.L9:
  62:openstack/03b-IPv6/icmpv6.c ****    }
  63:openstack/03b-IPv6/icmpv6.c **** }...
 285              		.loc 1 63 0
 286 00f8 07F10807 		add	r7, r7, #8
 287 00fc BD46     		mov	sp, r7
 288 00fe 80BD     		pop	{r7, pc}
 289              		.cfi_endproc
 290              	.LFE3:
 292              	.Letext0:
 293              		.file 2 "/opt/gcc-arm-none-eabi-4_7-2013q3/bin/../lib/gcc/arm-none-eabi/4.7.4/../../../../arm-none
 294              		.file 3 "inc/opendefs.h"
 295              		.file 4 "openstack/03b-IPv6/icmpv6.h"
 296              		.file 5 "bsp/boards/OpenMote-CC2538/board_info.h"
 297              		.file 6 "openstack/03b-IPv6/icmpv6rpl.h"